
crycon_linux.o:     формат файла elf32-i386


Дизассемблирование раздела .text:

00000000 <PRINT_OPERATION_STATUS>:
       0:	83 ec 0c             	sub    esp,0xc
       3:	8b 4c 24 14          	mov    ecx,DWORD PTR [esp+0x14]
       7:	83 f9 08             	cmp    ecx,0x8
       a:	77 31                	ja     3d <PRINT_OPERATION_STATUS+0x3d>
       c:	8b 44 24 10          	mov    eax,DWORD PTR [esp+0x10]
      10:	ff 24 8d 00 00 00 00 	jmp    DWORD PTR [ecx*4+0x0]
      17:	31 c9                	xor    ecx,ecx
      19:	83 b8 44 00 00 01 00 	cmp    DWORD PTR [eax+0x1000044],0x0
      20:	0f 95 c1             	setne  cl
      23:	83 ec 04             	sub    esp,0x4
      26:	ff 30                	push   DWORD PTR [eax]
      28:	ff 34 8d 74 00 00 00 	push   DWORD PTR [ecx*4+0x74]
      2f:	68 00 00 00 00       	push   0x0
      34:	e8 fc ff ff ff       	call   35 <PRINT_OPERATION_STATUS+0x35>
      39:	83 c4 1c             	add    esp,0x1c
      3c:	c3                   	ret    
      3d:	83 c4 0c             	add    esp,0xc
      40:	c3                   	ret    
      41:	31 c9                	xor    ecx,ecx
      43:	83 b8 44 00 00 01 00 	cmp    DWORD PTR [eax+0x1000044],0x0
      4a:	0f 95 c1             	setne  cl
      4d:	ff 30                	push   DWORD PTR [eax]
      4f:	ff 34 8d 74 00 00 00 	push   DWORD PTR [ecx*4+0x74]
      56:	68 00 00 00 00       	push   0x0
      5b:	eb 65                	jmp    c2 <PRINT_OPERATION_STATUS+0xc2>
      5d:	83 ec 04             	sub    esp,0x4
      60:	ff 70 04             	push   DWORD PTR [eax+0x4]
      63:	68 00 00 00 00       	push   0x0
      68:	eb 58                	jmp    c2 <PRINT_OPERATION_STATUS+0xc2>
      6a:	83 ec 04             	sub    esp,0x4
      6d:	ff 30                	push   DWORD PTR [eax]
      6f:	68 00 00 00 00       	push   0x0
      74:	eb 4c                	jmp    c2 <PRINT_OPERATION_STATUS+0xc2>
      76:	83 ec 04             	sub    esp,0x4
      79:	ff 70 04             	push   DWORD PTR [eax+0x4]
      7c:	68 00 00 00 00       	push   0x0
      81:	eb 3f                	jmp    c2 <PRINT_OPERATION_STATUS+0xc2>
      83:	83 ec 04             	sub    esp,0x4
      86:	ff 30                	push   DWORD PTR [eax]
      88:	68 00 00 00 00       	push   0x0
      8d:	eb 33                	jmp    c2 <PRINT_OPERATION_STATUS+0xc2>
      8f:	ff 35 00 00 00 00    	push   DWORD PTR ds:0x0
      95:	6a 01                	push   0x1
      97:	6a 1e                	push   0x1e
      99:	68 00 00 00 00       	push   0x0
      9e:	eb 0f                	jmp    af <PRINT_OPERATION_STATUS+0xaf>
      a0:	ff 35 00 00 00 00    	push   DWORD PTR ds:0x0
      a6:	6a 01                	push   0x1
      a8:	6a 1f                	push   0x1f
      aa:	68 00 00 00 00       	push   0x0
      af:	e8 fc ff ff ff       	call   b0 <PRINT_OPERATION_STATUS+0xb0>
      b4:	83 c4 1c             	add    esp,0x1c
      b7:	c3                   	ret    
      b8:	83 ec 04             	sub    esp,0x4
      bb:	ff 30                	push   DWORD PTR [eax]
      bd:	68 00 00 00 00       	push   0x0
      c2:	ff 35 00 00 00 00    	push   DWORD PTR ds:0x0
      c8:	e8 fc ff ff ff       	call   c9 <PRINT_OPERATION_STATUS+0xc9>
      cd:	83 c4 1c             	add    esp,0x1c
      d0:	c3                   	ret    
      d1:	90                   	nop
      d2:	90                   	nop
      d3:	90                   	nop
      d4:	90                   	nop
      d5:	90                   	nop
      d6:	90                   	nop
      d7:	90                   	nop
      d8:	90                   	nop
      d9:	90                   	nop
      da:	90                   	nop
      db:	90                   	nop
      dc:	90                   	nop
      dd:	90                   	nop
      de:	90                   	nop
      df:	90                   	nop

000000e0 <password_read>:
      e0:	55                   	push   ebp
      e1:	53                   	push   ebx
      e2:	57                   	push   edi
      e3:	56                   	push   esi
      e4:	81 ec 84 00 00 00    	sub    esp,0x84
      ea:	8d 6c 24 08          	lea    ebp,[esp+0x8]
      ee:	55                   	push   ebp
      ef:	6a 00                	push   0x0
      f1:	e8 fc ff ff ff       	call   f2 <password_read+0x12>
      f6:	83 c4 10             	add    esp,0x10
      f9:	8d 5c 24 40          	lea    ebx,[esp+0x40]
      fd:	b9 0f 00 00 00       	mov    ecx,0xf
     102:	89 df                	mov    edi,ebx
     104:	89 ee                	mov    esi,ebp
     106:	f3 a5                	rep movs DWORD PTR es:[edi],DWORD PTR ds:[esi]
     108:	80 64 24 0c f7       	and    BYTE PTR [esp+0xc],0xf7
     10d:	83 ec 04             	sub    esp,0x4
     110:	55                   	push   ebp
     111:	6a 00                	push   0x0
     113:	6a 00                	push   0x0
     115:	e8 fc ff ff ff       	call   116 <password_read+0x36>
     11a:	83 c4 08             	add    esp,0x8
     11d:	55                   	push   ebp
     11e:	6a 00                	push   0x0
     120:	e8 fc ff ff ff       	call   121 <password_read+0x41>
     125:	83 c4 10             	add    esp,0x10
     128:	f6 44 24 0c 08       	test   BYTE PTR [esp+0xc],0x8
     12d:	0f 85 88 00 00 00    	jne    1bb <password_read+0xdb>
     133:	8b b4 24 90 00 00 00 	mov    esi,DWORD PTR [esp+0x90]
     13a:	83 ec 0c             	sub    esp,0xc
     13d:	ff 35 00 00 00 00    	push   DWORD PTR ds:0x0
     143:	e8 fc ff ff ff       	call   144 <password_read+0x64>
     148:	83 c4 04             	add    esp,0x4
     14b:	68 00 00 00 00       	push   0x0
     150:	e8 fc ff ff ff       	call   151 <password_read+0x71>
     155:	83 c4 0c             	add    esp,0xc
     158:	ff 35 00 00 00 00    	push   DWORD PTR ds:0x0
     15e:	ff 76 0c             	push   DWORD PTR [esi+0xc]
     161:	ff 76 08             	push   DWORD PTR [esi+0x8]
     164:	e8 fc ff ff ff       	call   165 <password_read+0x85>
     169:	83 c4 10             	add    esp,0x10
     16c:	85 c0                	test   eax,eax
     16e:	74 76                	je     1e6 <password_read+0x106>
     170:	8b 46 0c             	mov    eax,DWORD PTR [esi+0xc]
     173:	85 c0                	test   eax,eax
     175:	0f 84 16 00 00 00    	je     191 <password_read+0xb1>
     17b:	8b 4e 08             	mov    ecx,DWORD PTR [esi+0x8]
     17e:	31 d2                	xor    edx,edx
     180:	80 3c 11 0a          	cmp    BYTE PTR [ecx+edx*1],0xa
     184:	74 07                	je     18d <password_read+0xad>
     186:	42                   	inc    edx
     187:	39 c2                	cmp    edx,eax
     189:	72 f5                	jb     180 <password_read+0xa0>
     18b:	eb 04                	jmp    191 <password_read+0xb1>
     18d:	c6 04 11 00          	mov    BYTE PTR [ecx+edx*1],0x0
     191:	83 ec 04             	sub    esp,0x4
     194:	53                   	push   ebx
     195:	6a 00                	push   0x0
     197:	6a 00                	push   0x0
     199:	e8 fc ff ff ff       	call   19a <password_read+0xba>
     19e:	83 c4 08             	add    esp,0x8
     1a1:	ff 35 00 00 00 00    	push   DWORD PTR ds:0x0
     1a7:	6a 0a                	push   0xa
     1a9:	e8 fc ff ff ff       	call   1aa <password_read+0xca>
     1ae:	83 c4 10             	add    esp,0x10
     1b1:	31 c0                	xor    eax,eax
     1b3:	83 c4 7c             	add    esp,0x7c
     1b6:	5e                   	pop    esi
     1b7:	5f                   	pop    edi
     1b8:	5b                   	pop    ebx
     1b9:	5d                   	pop    ebp
     1ba:	c3                   	ret    
     1bb:	ff 35 00 00 00 00    	push   DWORD PTR ds:0x0
     1c1:	6a 01                	push   0x1
     1c3:	6a 27                	push   0x27
     1c5:	68 00 00 00 00       	push   0x0
     1ca:	e8 fc ff ff ff       	call   1cb <password_read+0xeb>
     1cf:	83 c4 0c             	add    esp,0xc
     1d2:	53                   	push   ebx
     1d3:	6a 00                	push   0x0
     1d5:	6a 00                	push   0x0
     1d7:	e8 fc ff ff ff       	call   1d8 <password_read+0xf8>
     1dc:	83 c4 10             	add    esp,0x10
     1df:	b8 02 00 00 00       	mov    eax,0x2
     1e4:	eb cd                	jmp    1b3 <password_read+0xd3>
     1e6:	ff 35 00 00 00 00    	push   DWORD PTR ds:0x0
     1ec:	6a 01                	push   0x1
     1ee:	6a 29                	push   0x29
     1f0:	68 00 00 00 00       	push   0x0
     1f5:	e8 fc ff ff ff       	call   1f6 <password_read+0x116>
     1fa:	83 c4 10             	add    esp,0x10
     1fd:	b8 03 00 00 00       	mov    eax,0x3
     202:	eb af                	jmp    1b3 <password_read+0xd3>
     204:	90                   	nop
     205:	90                   	nop
     206:	90                   	nop
     207:	90                   	nop
     208:	90                   	nop
     209:	90                   	nop
     20a:	90                   	nop
     20b:	90                   	nop
     20c:	90                   	nop
     20d:	90                   	nop
     20e:	90                   	nop
     20f:	90                   	nop

00000210 <INITIALIZED_GLOBAL_MEMORY>:
     210:	57                   	push   edi
     211:	56                   	push   esi
     212:	50                   	push   eax
     213:	8b 7c 24 14          	mov    edi,DWORD PTR [esp+0x14]
     217:	8b 74 24 10          	mov    esi,DWORD PTR [esp+0x10]
     21b:	83 ec 0c             	sub    esp,0xc
     21e:	57                   	push   edi
     21f:	e8 fc ff ff ff       	call   220 <INITIALIZED_GLOBAL_MEMORY+0x10>
     224:	83 c4 10             	add    esp,0x10
     227:	89 06                	mov    DWORD PTR [esi],eax
     229:	85 c0                	test   eax,eax
     22b:	0f 84 c8 00 00 00    	je     2f9 <INITIALIZED_GLOBAL_MEMORY+0xe9>
     231:	83 ec 04             	sub    esp,0x4
     234:	57                   	push   edi
     235:	6a 00                	push   0x0
     237:	50                   	push   eax
     238:	e8 fc ff ff ff       	call   239 <INITIALIZED_GLOBAL_MEMORY+0x29>
     23d:	83 c4 10             	add    esp,0x10
     240:	8b 06                	mov    eax,DWORD PTR [esi]
     242:	c7 00 00 00 00 00    	mov    DWORD PTR [eax],0x0
     248:	8b 06                	mov    eax,DWORD PTR [esi]
     24a:	c7 40 04 00 00 00 00 	mov    DWORD PTR [eax+0x4],0x0
     251:	8b 06                	mov    eax,DWORD PTR [esi]
     253:	c7 40 18 00 00 00 00 	mov    DWORD PTR [eax+0x18],0x0
     25a:	8b 06                	mov    eax,DWORD PTR [esi]
     25c:	c7 40 20 00 00 00 00 	mov    DWORD PTR [eax+0x20],0x0
     263:	8b 3e                	mov    edi,DWORD PTR [esi]
     265:	c7 87 44 00 00 01 00 	mov    DWORD PTR [edi+0x1000044],0x0
     26c:	00 00 00 
     26f:	c7 87 48 00 00 01 00 	mov    DWORD PTR [edi+0x1000048],0x0
     276:	00 00 00 
     279:	c7 47 1c 00 00 00 00 	mov    DWORD PTR [edi+0x1c],0x0
     280:	c7 47 24 00 00 00 00 	mov    DWORD PTR [edi+0x24],0x0
     287:	c7 47 0c 00 08 00 00 	mov    DWORD PTR [edi+0xc],0x800
     28e:	c7 47 14 8c 00 00 00 	mov    DWORD PTR [edi+0x14],0x8c
     295:	83 ec 0c             	sub    esp,0xc
     298:	68 00 08 00 00       	push   0x800
     29d:	e8 fc ff ff ff       	call   29e <INITIALIZED_GLOBAL_MEMORY+0x8e>
     2a2:	83 c4 10             	add    esp,0x10
     2a5:	89 47 08             	mov    DWORD PTR [edi+0x8],eax
     2a8:	8b 3e                	mov    edi,DWORD PTR [esi]
     2aa:	83 7f 08 00          	cmp    DWORD PTR [edi+0x8],0x0
     2ae:	74 54                	je     304 <INITIALIZED_GLOBAL_MEMORY+0xf4>
     2b0:	83 ec 0c             	sub    esp,0xc
     2b3:	ff 77 14             	push   DWORD PTR [edi+0x14]
     2b6:	e8 fc ff ff ff       	call   2b7 <INITIALIZED_GLOBAL_MEMORY+0xa7>
     2bb:	83 c4 10             	add    esp,0x10
     2be:	89 47 10             	mov    DWORD PTR [edi+0x10],eax
     2c1:	8b 06                	mov    eax,DWORD PTR [esi]
     2c3:	83 78 10 00          	cmp    DWORD PTR [eax+0x10],0x0
     2c7:	74 46                	je     30f <INITIALIZED_GLOBAL_MEMORY+0xff>
     2c9:	83 ec 04             	sub    esp,0x4
     2cc:	ff 70 0c             	push   DWORD PTR [eax+0xc]
     2cf:	6a 00                	push   0x0
     2d1:	ff 70 08             	push   DWORD PTR [eax+0x8]
     2d4:	e8 fc ff ff ff       	call   2d5 <INITIALIZED_GLOBAL_MEMORY+0xc5>
     2d9:	83 c4 10             	add    esp,0x10
     2dc:	8b 06                	mov    eax,DWORD PTR [esi]
     2de:	83 ec 04             	sub    esp,0x4
     2e1:	ff 70 14             	push   DWORD PTR [eax+0x14]
     2e4:	6a 00                	push   0x0
     2e6:	ff 70 10             	push   DWORD PTR [eax+0x10]
     2e9:	e8 fc ff ff ff       	call   2ea <INITIALIZED_GLOBAL_MEMORY+0xda>
     2ee:	83 c4 10             	add    esp,0x10
     2f1:	31 c0                	xor    eax,eax
     2f3:	83 c4 04             	add    esp,0x4
     2f6:	5e                   	pop    esi
     2f7:	5f                   	pop    edi
     2f8:	c3                   	ret    
     2f9:	b8 01 00 00 00       	mov    eax,0x1
     2fe:	83 c4 04             	add    esp,0x4
     301:	5e                   	pop    esi
     302:	5f                   	pop    edi
     303:	c3                   	ret    
     304:	b8 02 00 00 00       	mov    eax,0x2
     309:	83 c4 04             	add    esp,0x4
     30c:	5e                   	pop    esi
     30d:	5f                   	pop    edi
     30e:	c3                   	ret    
     30f:	b8 03 00 00 00       	mov    eax,0x3
     314:	83 c4 04             	add    esp,0x4
     317:	5e                   	pop    esi
     318:	5f                   	pop    edi
     319:	c3                   	ret    
     31a:	90                   	nop
     31b:	90                   	nop
     31c:	90                   	nop
     31d:	90                   	nop
     31e:	90                   	nop
     31f:	90                   	nop

00000320 <main>:
     320:	55                   	push   ebp
     321:	53                   	push   ebx
     322:	57                   	push   edi
     323:	56                   	push   esi
     324:	81 ec 88 00 00 00    	sub    esp,0x88
     32a:	6a 00                	push   0x0
     32c:	e8 fc ff ff ff       	call   32d <main+0xd>
     331:	83 c4 10             	add    esp,0x10
     334:	85 c0                	test   eax,eax
     336:	0f 84 60 02 00 00    	je     59c <main+0x27c>
     33c:	83 ec 08             	sub    esp,0x8
     33f:	8d 44 24 34          	lea    eax,[esp+0x34]
     343:	68 4c 00 00 01       	push   0x100004c
     348:	50                   	push   eax
     349:	e8 fc ff ff ff       	call   34a <main+0x2a>
     34e:	83 c4 10             	add    esp,0x10
     351:	85 c0                	test   eax,eax
     353:	0f 85 5c 02 00 00    	jne    5b5 <main+0x295>
     359:	8b 9c 24 90 00 00 00 	mov    ebx,DWORD PTR [esp+0x90]
     360:	8d 43 fe             	lea    eax,[ebx-0x2]
     363:	83 f8 04             	cmp    eax,0x4
     366:	0f 87 70 02 00 00    	ja     5dc <main+0x2bc>
     36c:	8b bc 24 94 00 00 00 	mov    edi,DWORD PTR [esp+0x94]
     373:	83 fb 03             	cmp    ebx,0x3
     376:	0f 8c 45 00 00 00    	jl     3c1 <main+0xa1>
     37c:	bd 02 00 00 00       	mov    ebp,0x2
     381:	29 dd                	sub    ebp,ebx
     383:	be 01 00 00 00       	mov    esi,0x1
     388:	90                   	nop
     389:	90                   	nop
     38a:	90                   	nop
     38b:	90                   	nop
     38c:	90                   	nop
     38d:	90                   	nop
     38e:	90                   	nop
     38f:	90                   	nop
     390:	83 ec 08             	sub    esp,0x8
     393:	68 00 08 00 00       	push   0x800
     398:	ff 34 b7             	push   DWORD PTR [edi+esi*4]
     39b:	e8 fc ff ff ff       	call   39c <main+0x7c>
     3a0:	83 c4 10             	add    esp,0x10
     3a3:	3d 00 08 00 00       	cmp    eax,0x800
     3a8:	0f 84 9c 00 00 00    	je     44a <main+0x12a>
     3ae:	8d 44 35 01          	lea    eax,[ebp+esi*1+0x1]
     3b2:	46                   	inc    esi
     3b3:	83 f8 01             	cmp    eax,0x1
     3b6:	75 d8                	jne    390 <main+0x70>
     3b8:	83 fb 02             	cmp    ebx,0x2
     3bb:	0f 85 b1 00 00 00    	jne    472 <main+0x152>
     3c1:	8b 77 04             	mov    esi,DWORD PTR [edi+0x4]
     3c4:	83 ec 08             	sub    esp,0x8
     3c7:	68 00 00 00 00       	push   0x0
     3cc:	56                   	push   esi
     3cd:	e8 fc ff ff ff       	call   3ce <main+0xae>
     3d2:	83 c4 10             	add    esp,0x10
     3d5:	85 c0                	test   eax,eax
     3d7:	74 19                	je     3f2 <main+0xd2>
     3d9:	83 ec 08             	sub    esp,0x8
     3dc:	68 00 00 00 00       	push   0x0
     3e1:	56                   	push   esi
     3e2:	e8 fc ff ff ff       	call   3e3 <main+0xc3>
     3e7:	83 c4 10             	add    esp,0x10
     3ea:	85 c0                	test   eax,eax
     3ec:	0f 85 0b 02 00 00    	jne    5fd <main+0x2dd>
     3f2:	83 ec 0c             	sub    esp,0xc
     3f5:	ff 35 00 00 00 00    	push   DWORD PTR ds:0x0
     3fb:	e8 fc ff ff ff       	call   3fc <main+0xdc>
     400:	83 c4 04             	add    esp,0x4
     403:	68 00 00 00 00       	push   0x0
     408:	e8 fc ff ff ff       	call   409 <main+0xe9>
     40d:	83 c4 04             	add    esp,0x4
     410:	68 00 00 00 00       	push   0x0
     415:	e8 fc ff ff ff       	call   416 <main+0xf6>
     41a:	83 c4 04             	add    esp,0x4
     41d:	68 00 00 00 00       	push   0x0
     422:	e8 fc ff ff ff       	call   423 <main+0x103>
     427:	83 c4 04             	add    esp,0x4
     42a:	68 00 00 00 00       	push   0x0
     42f:	e8 fc ff ff ff       	call   430 <main+0x110>
     434:	83 c4 08             	add    esp,0x8
     437:	ff 37                	push   DWORD PTR [edi]
     439:	68 00 00 00 00       	push   0x0
     43e:	e8 fc ff ff ff       	call   43f <main+0x11f>
     443:	83 c4 10             	add    esp,0x10
     446:	31 f6                	xor    esi,esi
     448:	eb 1e                	jmp    468 <main+0x148>
     44a:	68 00 08 00 00       	push   0x800
     44f:	56                   	push   esi
     450:	68 00 00 00 00       	push   0x0
     455:	ff 35 00 00 00 00    	push   DWORD PTR ds:0x0
     45b:	e8 fc ff ff ff       	call   45c <main+0x13c>
     460:	83 c4 10             	add    esp,0x10
     463:	be 01 00 00 00       	mov    esi,0x1
     468:	89 f0                	mov    eax,esi
     46a:	83 c4 7c             	add    esp,0x7c
     46d:	5e                   	pop    esi
     46e:	5f                   	pop    edi
     46f:	5b                   	pop    ebx
     470:	5d                   	pop    ebp
     471:	c3                   	ret    
     472:	83 fb 03             	cmp    ebx,0x3
     475:	0f 8e 69 01 00 00    	jle    5e4 <main+0x2c4>
     47b:	8b 44 9f fc          	mov    eax,DWORD PTR [edi+ebx*4-0x4]
     47f:	8b 74 24 2c          	mov    esi,DWORD PTR [esp+0x2c]
     483:	89 46 04             	mov    DWORD PTR [esi+0x4],eax
     486:	8b 44 9f f8          	mov    eax,DWORD PTR [edi+ebx*4-0x8]
     48a:	89 06                	mov    DWORD PTR [esi],eax
     48c:	8b 5f 04             	mov    ebx,DWORD PTR [edi+0x4]
     48f:	83 ec 08             	sub    esp,0x8
     492:	68 00 00 00 00       	push   0x0
     497:	53                   	push   ebx
     498:	e8 fc ff ff ff       	call   499 <main+0x179>
     49d:	83 c4 10             	add    esp,0x10
     4a0:	bd 03 00 00 00       	mov    ebp,0x3
     4a5:	85 c0                	test   eax,eax
     4a7:	0f 84 e6 00 00 00    	je     593 <main+0x273>
     4ad:	83 ec 08             	sub    esp,0x8
     4b0:	68 00 00 00 00       	push   0x0
     4b5:	53                   	push   ebx
     4b6:	e8 fc ff ff ff       	call   4b7 <main+0x197>
     4bb:	83 c4 10             	add    esp,0x10
     4be:	85 c0                	test   eax,eax
     4c0:	0f 84 cd 00 00 00    	je     593 <main+0x273>
     4c6:	83 ec 08             	sub    esp,0x8
     4c9:	68 00 00 00 00       	push   0x0
     4ce:	53                   	push   ebx
     4cf:	e8 fc ff ff ff       	call   4d0 <main+0x1b0>
     4d4:	83 c4 10             	add    esp,0x10
     4d7:	85 c0                	test   eax,eax
     4d9:	0f 84 2c 01 00 00    	je     60b <main+0x2eb>
     4df:	83 ec 08             	sub    esp,0x8
     4e2:	68 00 00 00 00       	push   0x0
     4e7:	53                   	push   ebx
     4e8:	e8 fc ff ff ff       	call   4e9 <main+0x1c9>
     4ed:	83 c4 10             	add    esp,0x10
     4f0:	31 ed                	xor    ebp,ebp
     4f2:	85 c0                	test   eax,eax
     4f4:	0f 84 11 01 00 00    	je     60b <main+0x2eb>
     4fa:	83 ec 08             	sub    esp,0x8
     4fd:	68 00 00 00 00       	push   0x0
     502:	53                   	push   ebx
     503:	e8 fc ff ff ff       	call   504 <main+0x1e4>
     508:	83 c4 10             	add    esp,0x10
     50b:	b1 01                	mov    cl,0x1
     50d:	89 0c 24             	mov    DWORD PTR [esp],ecx
     510:	85 c0                	test   eax,eax
     512:	0f 84 ff 00 00 00    	je     617 <main+0x2f7>
     518:	83 ec 08             	sub    esp,0x8
     51b:	68 00 00 00 00       	push   0x0
     520:	53                   	push   ebx
     521:	e8 fc ff ff ff       	call   522 <main+0x202>
     526:	83 c4 10             	add    esp,0x10
     529:	85 c0                	test   eax,eax
     52b:	0f 84 e6 00 00 00    	je     617 <main+0x2f7>
     531:	83 ec 08             	sub    esp,0x8
     534:	68 00 00 00 00       	push   0x0
     539:	53                   	push   ebx
     53a:	e8 fc ff ff ff       	call   53b <main+0x21b>
     53f:	83 c4 10             	add    esp,0x10
     542:	bd 01 00 00 00       	mov    ebp,0x1
     547:	85 c0                	test   eax,eax
     549:	74 48                	je     593 <main+0x273>
     54b:	83 ec 08             	sub    esp,0x8
     54e:	68 00 00 00 00       	push   0x0
     553:	53                   	push   ebx
     554:	e8 fc ff ff ff       	call   555 <main+0x235>
     559:	83 c4 10             	add    esp,0x10
     55c:	85 c0                	test   eax,eax
     55e:	74 33                	je     593 <main+0x273>
     560:	83 ec 08             	sub    esp,0x8
     563:	68 00 00 00 00       	push   0x0
     568:	53                   	push   ebx
     569:	e8 fc ff ff ff       	call   56a <main+0x24a>
     56e:	83 c4 10             	add    esp,0x10
     571:	bd 02 00 00 00       	mov    ebp,0x2
     576:	85 c0                	test   eax,eax
     578:	74 19                	je     593 <main+0x273>
     57a:	83 ec 08             	sub    esp,0x8
     57d:	68 00 00 00 00       	push   0x0
     582:	53                   	push   ebx
     583:	e8 fc ff ff ff       	call   584 <main+0x264>
     588:	83 c4 10             	add    esp,0x10
     58b:	85 c0                	test   eax,eax
     58d:	0f 85 ff 12 00 00    	jne    1892 <main+0x1572>
     593:	c7 04 24 00 00 00 00 	mov    DWORD PTR [esp],0x0
     59a:	eb 7b                	jmp    617 <main+0x2f7>
     59c:	ff 35 00 00 00 00    	push   DWORD PTR ds:0x0
     5a2:	6a 01                	push   0x1
     5a4:	6a 12                	push   0x12
     5a6:	68 00 00 00 00       	push   0x0
     5ab:	e8 fc ff ff ff       	call   5ac <main+0x28c>
     5b0:	e9 ab fe ff ff       	jmp    460 <main+0x140>
     5b5:	89 c6                	mov    esi,eax
     5b7:	8b 4c 24 2c          	mov    ecx,DWORD PTR [esp+0x2c]
     5bb:	e8 20 13 00 00       	call   18e0 <free_global_memory>
     5c0:	ff 35 00 00 00 00    	push   DWORD PTR ds:0x0
     5c6:	6a 01                	push   0x1
     5c8:	6a 1c                	push   0x1c
     5ca:	68 00 00 00 00       	push   0x0
     5cf:	e8 fc ff ff ff       	call   5d0 <main+0x2b0>
     5d4:	83 c4 10             	add    esp,0x10
     5d7:	e9 8c fe ff ff       	jmp    468 <main+0x148>
     5dc:	83 fb 01             	cmp    ebx,0x1
     5df:	74 03                	je     5e4 <main+0x2c4>
     5e1:	83 fb 07             	cmp    ebx,0x7
     5e4:	83 ec 04             	sub    esp,0x4
     5e7:	53                   	push   ebx
     5e8:	68 00 00 00 00       	push   0x0
     5ed:	ff 35 00 00 00 00    	push   DWORD PTR ds:0x0
     5f3:	e8 fc ff ff ff       	call   5f4 <main+0x2d4>
     5f8:	e9 46 fe ff ff       	jmp    443 <main+0x123>
     5fd:	83 ec 04             	sub    esp,0x4
     600:	56                   	push   esi
     601:	68 00 00 00 00       	push   0x0
     606:	e9 4a fe ff ff       	jmp    455 <main+0x135>
     60b:	c7 04 24 00 00 00 00 	mov    DWORD PTR [esp],0x0
     612:	bd 04 00 00 00       	mov    ebp,0x4
     617:	89 74 24 08          	mov    DWORD PTR [esp+0x8],esi
     61b:	89 ae 48 00 00 01    	mov    DWORD PTR [esi+0x1000048],ebp
     621:	8b 77 08             	mov    esi,DWORD PTR [edi+0x8]
     624:	83 ec 08             	sub    esp,0x8
     627:	68 00 00 00 00       	push   0x0
     62c:	56                   	push   esi
     62d:	e8 fc ff ff ff       	call   62e <main+0x30e>
     632:	83 c4 10             	add    esp,0x10
     635:	85 c0                	test   eax,eax
     637:	74 62                	je     69b <main+0x37b>
     639:	83 ec 08             	sub    esp,0x8
     63c:	68 00 00 00 00       	push   0x0
     641:	56                   	push   esi
     642:	e8 fc ff ff ff       	call   643 <main+0x323>
     647:	83 c4 10             	add    esp,0x10
     64a:	85 c0                	test   eax,eax
     64c:	bb 00 00 00 00       	mov    ebx,0x0
     651:	74 4a                	je     69d <main+0x37d>
     653:	83 ec 08             	sub    esp,0x8
     656:	68 00 00 00 00       	push   0x0
     65b:	56                   	push   esi
     65c:	e8 fc ff ff ff       	call   65d <main+0x33d>
     661:	83 c4 10             	add    esp,0x10
     664:	bb de 00 00 00       	mov    ebx,0xde
     669:	85 c0                	test   eax,eax
     66b:	74 30                	je     69d <main+0x37d>
     66d:	83 ec 08             	sub    esp,0x8
     670:	68 00 00 00 00       	push   0x0
     675:	56                   	push   esi
     676:	e8 fc ff ff ff       	call   677 <main+0x357>
     67b:	83 c4 10             	add    esp,0x10
     67e:	85 c0                	test   eax,eax
     680:	74 1b                	je     69d <main+0x37d>
     682:	8b 4c 24 08          	mov    ecx,DWORD PTR [esp+0x8]
     686:	e8 55 12 00 00       	call   18e0 <free_global_memory>
     68b:	83 ec 04             	sub    esp,0x4
     68e:	ff 77 08             	push   DWORD PTR [edi+0x8]
     691:	68 00 00 00 00       	push   0x0
     696:	e9 ba fd ff ff       	jmp    455 <main+0x135>
     69b:	31 db                	xor    ebx,ebx
     69d:	8b 74 24 08          	mov    esi,DWORD PTR [esp+0x8]
     6a1:	89 9e 44 00 00 01    	mov    DWORD PTR [esi+0x1000044],ebx
     6a7:	83 fd 03             	cmp    ebp,0x3
     6aa:	0f 83 b3 00 00 00    	jae    763 <main+0x443>
     6b0:	8b 5f 0c             	mov    ebx,DWORD PTR [edi+0xc]
     6b3:	83 ec 08             	sub    esp,0x8
     6b6:	68 00 00 00 00       	push   0x0
     6bb:	53                   	push   ebx
     6bc:	e8 fc ff ff ff       	call   6bd <main+0x39d>
     6c1:	83 c4 10             	add    esp,0x10
     6c4:	85 c0                	test   eax,eax
     6c6:	0f 84 59 01 00 00    	je     825 <main+0x505>
     6cc:	83 ec 08             	sub    esp,0x8
     6cf:	68 00 00 00 00       	push   0x0
     6d4:	53                   	push   ebx
     6d5:	e8 fc ff ff ff       	call   6d6 <main+0x3b6>
     6da:	83 c4 10             	add    esp,0x10
     6dd:	85 c0                	test   eax,eax
     6df:	0f 84 40 01 00 00    	je     825 <main+0x505>
     6e5:	83 ec 08             	sub    esp,0x8
     6e8:	68 00 00 00 00       	push   0x0
     6ed:	53                   	push   ebx
     6ee:	e8 fc ff ff ff       	call   6ef <main+0x3cf>
     6f3:	83 c4 10             	add    esp,0x10
     6f6:	85 c0                	test   eax,eax
     6f8:	0f 84 45 01 00 00    	je     843 <main+0x523>
     6fe:	83 ec 08             	sub    esp,0x8
     701:	68 00 00 00 00       	push   0x0
     706:	53                   	push   ebx
     707:	e8 fc ff ff ff       	call   708 <main+0x3e8>
     70c:	83 c4 10             	add    esp,0x10
     70f:	85 c0                	test   eax,eax
     711:	0f 84 2c 01 00 00    	je     843 <main+0x523>
     717:	83 ec 08             	sub    esp,0x8
     71a:	68 00 00 00 00       	push   0x0
     71f:	53                   	push   ebx
     720:	e8 fc ff ff ff       	call   721 <main+0x401>
     725:	83 c4 10             	add    esp,0x10
     728:	85 c0                	test   eax,eax
     72a:	74 19                	je     745 <main+0x425>
     72c:	83 ec 08             	sub    esp,0x8
     72f:	68 00 00 00 00       	push   0x0
     734:	53                   	push   ebx
     735:	e8 fc ff ff ff       	call   736 <main+0x416>
     73a:	83 c4 10             	add    esp,0x10
     73d:	85 c0                	test   eax,eax
     73f:	0f 85 c9 00 00 00    	jne    80e <main+0x4ee>
     745:	bb 00 01 00 00       	mov    ebx,0x100
     74a:	80 3c 24 00          	cmp    BYTE PTR [esp],0x0
     74e:	0f 84 04 01 00 00    	je     858 <main+0x538>
     754:	c7 05 00 00 00 00 0e 	mov    DWORD PTR ds:0x0,0xe
     75b:	00 00 00 
     75e:	e9 f5 00 00 00       	jmp    858 <main+0x538>
     763:	0f 84 d3 00 00 00    	je     83c <main+0x51c>
     769:	83 fd 04             	cmp    ebp,0x4
     76c:	0f 85 e9 00 00 00    	jne    85b <main+0x53b>
     772:	8b 6f 0c             	mov    ebp,DWORD PTR [edi+0xc]
     775:	83 ec 08             	sub    esp,0x8
     778:	68 00 00 00 00       	push   0x0
     77d:	55                   	push   ebp
     77e:	e8 fc ff ff ff       	call   77f <main+0x45f>
     783:	83 c4 10             	add    esp,0x10
     786:	bb 00 01 00 00       	mov    ebx,0x100
     78b:	85 c0                	test   eax,eax
     78d:	0f 84 c5 00 00 00    	je     858 <main+0x538>
     793:	83 ec 08             	sub    esp,0x8
     796:	68 00 00 00 00       	push   0x0
     79b:	55                   	push   ebp
     79c:	e8 fc ff ff ff       	call   79d <main+0x47d>
     7a1:	83 c4 10             	add    esp,0x10
     7a4:	85 c0                	test   eax,eax
     7a6:	0f 84 ac 00 00 00    	je     858 <main+0x538>
     7ac:	83 ec 08             	sub    esp,0x8
     7af:	68 00 00 00 00       	push   0x0
     7b4:	55                   	push   ebp
     7b5:	e8 fc ff ff ff       	call   7b6 <main+0x496>
     7ba:	83 c4 10             	add    esp,0x10
     7bd:	bb 00 02 00 00       	mov    ebx,0x200
     7c2:	85 c0                	test   eax,eax
     7c4:	0f 84 8e 00 00 00    	je     858 <main+0x538>
     7ca:	83 ec 08             	sub    esp,0x8
     7cd:	68 00 00 00 00       	push   0x0
     7d2:	55                   	push   ebp
     7d3:	e8 fc ff ff ff       	call   7d4 <main+0x4b4>
     7d8:	83 c4 10             	add    esp,0x10
     7db:	85 c0                	test   eax,eax
     7dd:	74 79                	je     858 <main+0x538>
     7df:	83 ec 08             	sub    esp,0x8
     7e2:	68 00 00 00 00       	push   0x0
     7e7:	55                   	push   ebp
     7e8:	e8 fc ff ff ff       	call   7e9 <main+0x4c9>
     7ed:	83 c4 10             	add    esp,0x10
     7f0:	bb 00 04 00 00       	mov    ebx,0x400
     7f5:	85 c0                	test   eax,eax
     7f7:	74 5f                	je     858 <main+0x538>
     7f9:	83 ec 08             	sub    esp,0x8
     7fc:	68 00 00 00 00       	push   0x0
     801:	55                   	push   ebp
     802:	e8 fc ff ff ff       	call   803 <main+0x4e3>
     807:	83 c4 10             	add    esp,0x10
     80a:	85 c0                	test   eax,eax
     80c:	74 4a                	je     858 <main+0x538>
     80e:	89 f1                	mov    ecx,esi
     810:	e8 cb 10 00 00       	call   18e0 <free_global_memory>
     815:	83 ec 04             	sub    esp,0x4
     818:	ff 77 0c             	push   DWORD PTR [edi+0xc]
     81b:	68 00 00 00 00       	push   0x0
     820:	e9 30 fc ff ff       	jmp    455 <main+0x135>
     825:	bb 80 00 00 00       	mov    ebx,0x80
     82a:	80 3c 24 00          	cmp    BYTE PTR [esp],0x0
     82e:	74 28                	je     858 <main+0x538>
     830:	c7 05 00 00 00 00 0a 	mov    DWORD PTR ds:0x0,0xa
     837:	00 00 00 
     83a:	eb 1c                	jmp    858 <main+0x538>
     83c:	bb c0 01 00 00       	mov    ebx,0x1c0
     841:	eb 15                	jmp    858 <main+0x538>
     843:	bb c0 00 00 00       	mov    ebx,0xc0
     848:	80 3c 24 00          	cmp    BYTE PTR [esp],0x0
     84c:	74 0a                	je     858 <main+0x538>
     84e:	c7 05 00 00 00 00 0c 	mov    DWORD PTR ds:0x0,0xc
     855:	00 00 00 
     858:	89 5e 24             	mov    DWORD PTR [esi+0x24],ebx
     85b:	83 ec 0c             	sub    esp,0xc
     85e:	56                   	push   esi
     85f:	e8 fc ff ff ff       	call   860 <main+0x540>
     864:	83 c4 10             	add    esp,0x10
     867:	85 c0                	test   eax,eax
     869:	74 0c                	je     877 <main+0x557>
     86b:	89 f1                	mov    ecx,esi
     86d:	e8 6e 10 00 00       	call   18e0 <free_global_memory>
     872:	e9 ec fb ff ff       	jmp    463 <main+0x143>
     877:	89 f3                	mov    ebx,esi
     879:	8b 36                	mov    esi,DWORD PTR [esi]
     87b:	8b 7b 04             	mov    edi,DWORD PTR [ebx+0x4]
     87e:	83 ec 08             	sub    esp,0x8
     881:	57                   	push   edi
     882:	56                   	push   esi
     883:	e8 fc ff ff ff       	call   884 <main+0x564>
     888:	83 c4 10             	add    esp,0x10
     88b:	85 c0                	test   eax,eax
     88d:	0f 84 0d 0b 00 00    	je     13a0 <main+0x1080>
     893:	8b 5b 08             	mov    ebx,DWORD PTR [ebx+0x8]
     896:	83 ec 08             	sub    esp,0x8
     899:	53                   	push   ebx
     89a:	57                   	push   edi
     89b:	e8 fc ff ff ff       	call   89c <main+0x57c>
     8a0:	83 c4 10             	add    esp,0x10
     8a3:	85 c0                	test   eax,eax
     8a5:	0f 84 31 0b 00 00    	je     13dc <main+0x10bc>
     8ab:	83 ec 08             	sub    esp,0x8
     8ae:	53                   	push   ebx
     8af:	56                   	push   esi
     8b0:	e8 fc ff ff ff       	call   8b1 <main+0x591>
     8b5:	83 c4 10             	add    esp,0x10
     8b8:	85 c0                	test   eax,eax
     8ba:	0f 84 39 0b 00 00    	je     13f9 <main+0x10d9>
     8c0:	8b 74 24 08          	mov    esi,DWORD PTR [esp+0x8]
     8c4:	8b 46 24             	mov    eax,DWORD PTR [esi+0x24]
     8c7:	c1 e8 03             	shr    eax,0x3
     8ca:	89 46 24             	mov    DWORD PTR [esi+0x24],eax
     8cd:	83 ec 08             	sub    esp,0x8
     8d0:	6a 01                	push   0x1
     8d2:	50                   	push   eax
     8d3:	e8 fc ff ff ff       	call   8d4 <main+0x5b4>
     8d8:	83 c4 10             	add    esp,0x10
     8db:	89 46 20             	mov    DWORD PTR [esi+0x20],eax
     8de:	85 c0                	test   eax,eax
     8e0:	0f 84 e9 03 00 00    	je     ccf <main+0x9af>
     8e6:	83 ec 04             	sub    esp,0x4
     8e9:	ff 76 24             	push   DWORD PTR [esi+0x24]
     8ec:	50                   	push   eax
     8ed:	ff 76 08             	push   DWORD PTR [esi+0x8]
     8f0:	e8 fc ff ff ff       	call   8f1 <main+0x5d1>
     8f5:	83 c4 10             	add    esp,0x10
     8f8:	8b 4e 24             	mov    ecx,DWORD PTR [esi+0x24]
     8fb:	39 c8                	cmp    eax,ecx
     8fd:	75 5d                	jne    95c <main+0x63c>
     8ff:	83 ec 08             	sub    esp,0x8
     902:	ff 76 08             	push   DWORD PTR [esi+0x8]
     905:	68 00 00 00 00       	push   0x0
     90a:	e8 fc ff ff ff       	call   90b <main+0x5eb>
     90f:	83 c4 10             	add    esp,0x10
     912:	8b 46 24             	mov    eax,DWORD PTR [esi+0x24]
     915:	c1 e0 03             	shl    eax,0x3
     918:	83 ec 08             	sub    esp,0x8
     91b:	50                   	push   eax
     91c:	68 00 00 00 00       	push   0x0
     921:	e8 fc ff ff ff       	call   922 <main+0x602>
     926:	83 c4 10             	add    esp,0x10
     929:	8b 86 48 00 00 01    	mov    eax,DWORD PTR [esi+0x1000048]
     92f:	83 f8 04             	cmp    eax,0x4
     932:	0f 87 ed 01 00 00    	ja     b25 <main+0x805>
     938:	ff 24 85 24 00 00 00 	jmp    DWORD PTR [eax*4+0x24]
     93f:	c7 46 1c 10 00 00 00 	mov    DWORD PTR [esi+0x1c],0x10
     946:	8b 1d 00 00 00 00    	mov    ebx,DWORD PTR ds:0x0
     94c:	c1 e3 04             	shl    ebx,0x4
     94f:	83 c3 10             	add    ebx,0x10
     952:	b8 10 00 00 00       	mov    eax,0x10
     957:	e9 ce 01 00 00       	jmp    b2a <main+0x80a>
     95c:	85 c0                	test   eax,eax
     95e:	7e 1b                	jle    97b <main+0x65b>
     960:	39 c8                	cmp    eax,ecx
     962:	7d 17                	jge    97b <main+0x65b>
     964:	83 ec 04             	sub    esp,0x4
     967:	51                   	push   ecx
     968:	50                   	push   eax
     969:	68 00 00 00 00       	push   0x0
     96e:	e8 fc ff ff ff       	call   96f <main+0x64f>
     973:	83 c4 10             	add    esp,0x10
     976:	e9 f0 fe ff ff       	jmp    86b <main+0x54b>
     97b:	40                   	inc    eax
     97c:	83 f8 01             	cmp    eax,0x1
     97f:	77 91                	ja     912 <main+0x5f2>
     981:	83 ec 08             	sub    esp,0x8
     984:	68 00 01 00 00       	push   0x100
     989:	ff 76 08             	push   DWORD PTR [esi+0x8]
     98c:	e8 fc ff ff ff       	call   98d <main+0x66d>
     991:	83 c4 10             	add    esp,0x10
     994:	89 c7                	mov    edi,eax
     996:	83 c0 f8             	add    eax,0xfffffff8
     999:	3d f8 00 00 00       	cmp    eax,0xf8
     99e:	0f 87 a2 0e 00 00    	ja     1846 <main+0x1526>
     9a4:	8b 5e 08             	mov    ebx,DWORD PTR [esi+0x8]
     9a7:	8b 46 20             	mov    eax,DWORD PTR [esi+0x20]
     9aa:	89 44 24 18          	mov    DWORD PTR [esp+0x18],eax
     9ae:	8b 46 24             	mov    eax,DWORD PTR [esi+0x24]
     9b1:	89 f9                	mov    ecx,edi
     9b3:	f7 d1                	not    ecx
     9b5:	89 44 24 24          	mov    DWORD PTR [esp+0x24],eax
     9b9:	29 c1                	sub    ecx,eax
     9bb:	89 4c 24 04          	mov    DWORD PTR [esp+0x4],ecx
     9bf:	b8 01 00 00 00       	mov    eax,0x1
     9c4:	31 f6                	xor    esi,esi
     9c6:	89 04 24             	mov    DWORD PTR [esp],eax
     9c9:	83 ec 08             	sub    esp,0x8
     9cc:	50                   	push   eax
     9cd:	53                   	push   ebx
     9ce:	e8 fc ff ff ff       	call   9cf <main+0x6af>
     9d3:	83 c4 10             	add    esp,0x10
     9d6:	89 c5                	mov    ebp,eax
     9d8:	8b 04 24             	mov    eax,DWORD PTR [esp]
     9db:	45                   	inc    ebp
     9dc:	31 f5                	xor    ebp,esi
     9de:	8b 74 24 04          	mov    esi,DWORD PTR [esp+0x4]
     9e2:	29 c6                	sub    esi,eax
     9e4:	01 ee                	add    esi,ebp
     9e6:	40                   	inc    eax
     9e7:	39 f8                	cmp    eax,edi
     9e9:	76 db                	jbe    9c6 <main+0x6a6>
     9eb:	89 04 24             	mov    DWORD PTR [esp],eax
     9ee:	83 ec 08             	sub    esp,0x8
     9f1:	57                   	push   edi
     9f2:	53                   	push   ebx
     9f3:	e8 fc ff ff ff       	call   9f4 <main+0x6d4>
     9f8:	83 c4 10             	add    esp,0x10
     9fb:	89 44 24 0c          	mov    DWORD PTR [esp+0xc],eax
     9ff:	83 ec 0c             	sub    esp,0xc
     a02:	8b 74 24 14          	mov    esi,DWORD PTR [esp+0x14]
     a06:	ff 76 10             	push   DWORD PTR [esi+0x10]
     a09:	e8 fc ff ff ff       	call   a0a <main+0x6ea>
     a0e:	83 c4 10             	add    esp,0x10
     a11:	83 7c 24 24 00       	cmp    DWORD PTR [esp+0x24],0x0
     a16:	0f 84 80 00 00 00    	je     a9c <main+0x77c>
     a1c:	8b 4c 24 04          	mov    ecx,DWORD PTR [esp+0x4]
     a20:	01 e9                	add    ecx,ebp
     a22:	2b 0c 24             	sub    ecx,DWORD PTR [esp]
     a25:	41                   	inc    ecx
     a26:	8b 44 24 0c          	mov    eax,DWORD PTR [esp+0xc]
     a2a:	21 c8                	and    eax,ecx
     a2c:	c1 e8 12             	shr    eax,0x12
     a2f:	0d 00 40 00 00       	or     eax,0x4000
     a34:	89 44 24 0c          	mov    DWORD PTR [esp+0xc],eax
     a38:	31 d2                	xor    edx,edx
     a3a:	31 c0                	xor    eax,eax
     a3c:	89 44 24 04          	mov    DWORD PTR [esp+0x4],eax
     a40:	89 14 24             	mov    DWORD PTR [esp],edx
     a43:	8b 46 10             	mov    eax,DWORD PTR [esi+0x10]
     a46:	89 f5                	mov    ebp,esi
     a48:	8b 74 24 0c          	mov    esi,DWORD PTR [esp+0xc]
     a4c:	90                   	nop
     a4d:	90                   	nop
     a4e:	90                   	nop
     a4f:	90                   	nop
     a50:	83 ec 04             	sub    esp,0x4
     a53:	57                   	push   edi
     a54:	53                   	push   ebx
     a55:	50                   	push   eax
     a56:	e8 fc ff ff ff       	call   a57 <main+0x737>
     a5b:	83 c4 10             	add    esp,0x10
     a5e:	8b 45 10             	mov    eax,DWORD PTR [ebp+0x10]
     a61:	4e                   	dec    esi
     a62:	75 ec                	jne    a50 <main+0x730>
     a64:	83 ec 0c             	sub    esp,0xc
     a67:	50                   	push   eax
     a68:	e8 fc ff ff ff       	call   a69 <main+0x749>
     a6d:	83 c4 10             	add    esp,0x10
     a70:	8b 14 24             	mov    edx,DWORD PTR [esp]
     a73:	83 fa 1f             	cmp    edx,0x1f
     a76:	b8 00 00 00 00       	mov    eax,0x0
     a7b:	0f 47 d0             	cmova  edx,eax
     a7e:	8b 45 10             	mov    eax,DWORD PTR [ebp+0x10]
     a81:	8a 44 10 6c          	mov    al,BYTE PTR [eax+edx*1+0x6c]
     a85:	8b 4c 24 18          	mov    ecx,DWORD PTR [esp+0x18]
     a89:	8b 74 24 04          	mov    esi,DWORD PTR [esp+0x4]
     a8d:	88 04 31             	mov    BYTE PTR [ecx+esi*1],al
     a90:	89 f0                	mov    eax,esi
     a92:	40                   	inc    eax
     a93:	42                   	inc    edx
     a94:	3b 44 24 24          	cmp    eax,DWORD PTR [esp+0x24]
     a98:	89 ee                	mov    esi,ebp
     a9a:	75 a0                	jne    a3c <main+0x71c>
     a9c:	83 ec 04             	sub    esp,0x4
     a9f:	ff 76 14             	push   DWORD PTR [esi+0x14]
     aa2:	6a 00                	push   0x0
     aa4:	ff 76 10             	push   DWORD PTR [esi+0x10]
     aa7:	e8 fc ff ff ff       	call   aa8 <main+0x788>
     aac:	83 c4 0c             	add    esp,0xc
     aaf:	ff 76 0c             	push   DWORD PTR [esi+0xc]
     ab2:	6a 00                	push   0x0
     ab4:	ff 76 08             	push   DWORD PTR [esi+0x8]
     ab7:	e8 fc ff ff ff       	call   ab8 <main+0x798>
     abc:	83 c4 10             	add    esp,0x10
     abf:	c7 46 08 00 00 00 00 	mov    DWORD PTR [esi+0x8],0x0
     ac6:	c7 46 0c 00 00 00 00 	mov    DWORD PTR [esi+0xc],0x0
     acd:	83 ec 0c             	sub    esp,0xc
     ad0:	68 00 00 00 00       	push   0x0
     ad5:	e8 fc ff ff ff       	call   ad6 <main+0x7b6>
     ada:	e9 30 fe ff ff       	jmp    90f <main+0x5ef>
     adf:	8b 46 24             	mov    eax,DWORD PTR [esi+0x24]
     ae2:	89 46 1c             	mov    DWORD PTR [esi+0x1c],eax
     ae5:	bb a8 00 00 00       	mov    ebx,0xa8
     aea:	eb 3e                	jmp    b2a <main+0x80a>
     aec:	c7 46 1c 10 00 00 00 	mov    DWORD PTR [esi+0x1c],0x10
     af3:	bb a4 10 00 00       	mov    ebx,0x10a4
     af8:	b8 10 00 00 00       	mov    eax,0x10
     afd:	eb 2b                	jmp    b2a <main+0x80a>
     aff:	c7 46 1c 08 00 00 00 	mov    DWORD PTR [esi+0x1c],0x8
     b06:	bb 48 10 00 00       	mov    ebx,0x1048
     b0b:	b8 08 00 00 00       	mov    eax,0x8
     b10:	eb 18                	jmp    b2a <main+0x80a>
     b12:	c7 46 1c 10 00 00 00 	mov    DWORD PTR [esi+0x1c],0x10
     b19:	bb 54 06 00 00       	mov    ebx,0x654
     b1e:	b8 10 00 00 00       	mov    eax,0x10
     b23:	eb 05                	jmp    b2a <main+0x80a>
     b25:	8b 46 1c             	mov    eax,DWORD PTR [esi+0x1c]
     b28:	31 db                	xor    ebx,ebx
     b2a:	83 ec 08             	sub    esp,0x8
     b2d:	6a 01                	push   0x1
     b2f:	50                   	push   eax
     b30:	e8 fc ff ff ff       	call   b31 <main+0x811>
     b35:	83 c4 10             	add    esp,0x10
     b38:	89 46 18             	mov    DWORD PTR [esi+0x18],eax
     b3b:	85 c0                	test   eax,eax
     b3d:	0f 84 8c 01 00 00    	je     ccf <main+0x9af>
     b43:	83 be 44 00 00 01 00 	cmp    DWORD PTR [esi+0x1000044],0x0
     b4a:	0f 85 31 01 00 00    	jne    c81 <main+0x961>
     b50:	89 5c 24 10          	mov    DWORD PTR [esp+0x10],ebx
     b54:	83 ec 0c             	sub    esp,0xc
     b57:	6a 00                	push   0x0
     b59:	e8 fc ff ff ff       	call   b5a <main+0x83a>
     b5e:	e8 fc ff ff ff       	call   b5f <main+0x83f>
     b63:	83 c4 08             	add    esp,0x8
     b66:	6a ff                	push   0xffffffff
     b68:	6a 00                	push   0x0
     b6a:	e8 fc ff ff ff       	call   b6b <main+0x84b>
     b6f:	83 c4 10             	add    esp,0x10
     b72:	8b 5e 18             	mov    ebx,DWORD PTR [esi+0x18]
     b75:	8b 7e 1c             	mov    edi,DWORD PTR [esi+0x1c]
     b78:	85 ff                	test   edi,edi
     b7a:	74 1e                	je     b9a <main+0x87a>
     b7c:	31 f6                	xor    esi,esi
     b7e:	83 ec 08             	sub    esp,0x8
     b81:	68 ff 00 00 00       	push   0xff
     b86:	6a 00                	push   0x0
     b88:	e8 fc ff ff ff       	call   b89 <main+0x869>
     b8d:	83 c4 10             	add    esp,0x10
     b90:	31 f0                	xor    eax,esi
     b92:	88 04 33             	mov    BYTE PTR [ebx+esi*1],al
     b95:	46                   	inc    esi
     b96:	39 f7                	cmp    edi,esi
     b98:	75 e4                	jne    b7e <main+0x85e>
     b9a:	83 ec 0c             	sub    esp,0xc
     b9d:	57                   	push   edi
     b9e:	e8 fc ff ff ff       	call   b9f <main+0x87f>
     ba3:	83 c4 10             	add    esp,0x10
     ba6:	89 c5                	mov    ebp,eax
     ba8:	83 ec 0c             	sub    esp,0xc
     bab:	68 08 01 00 00       	push   0x108
     bb0:	e8 fc ff ff ff       	call   bb1 <main+0x891>
     bb5:	83 c4 10             	add    esp,0x10
     bb8:	89 c6                	mov    esi,eax
     bba:	89 2c 24             	mov    DWORD PTR [esp],ebp
     bbd:	85 ed                	test   ebp,ebp
     bbf:	0f 84 e4 0c 00 00    	je     18a9 <main+0x1589>
     bc5:	85 f6                	test   esi,esi
     bc7:	0f 84 dc 0c 00 00    	je     18a9 <main+0x1589>
     bcd:	89 74 24 04          	mov    DWORD PTR [esp+0x4],esi
     bd1:	85 ff                	test   edi,edi
     bd3:	74 1d                	je     bf2 <main+0x8d2>
     bd5:	8b 34 24             	mov    esi,DWORD PTR [esp]
     bd8:	89 fd                	mov    ebp,edi
     bda:	83 ec 08             	sub    esp,0x8
     bdd:	68 ff 00 00 00       	push   0xff
     be2:	6a 00                	push   0x0
     be4:	e8 fc ff ff ff       	call   be5 <main+0x8c5>
     be9:	83 c4 10             	add    esp,0x10
     bec:	30 06                	xor    BYTE PTR [esi],al
     bee:	46                   	inc    esi
     bef:	4d                   	dec    ebp
     bf0:	75 e8                	jne    bda <main+0x8ba>
     bf2:	83 ec 04             	sub    esp,0x4
     bf5:	57                   	push   edi
     bf6:	53                   	push   ebx
     bf7:	8b 74 24 10          	mov    esi,DWORD PTR [esp+0x10]
     bfb:	56                   	push   esi
     bfc:	e8 fc ff ff ff       	call   bfd <main+0x8dd>
     c01:	83 c4 10             	add    esp,0x10
     c04:	57                   	push   edi
     c05:	53                   	push   ebx
     c06:	8b 6c 24 08          	mov    ebp,DWORD PTR [esp+0x8]
     c0a:	55                   	push   ebp
     c0b:	56                   	push   esi
     c0c:	e8 fc ff ff ff       	call   c0d <main+0x8ed>
     c11:	83 c4 0c             	add    esp,0xc
     c14:	57                   	push   edi
     c15:	6a 00                	push   0x0
     c17:	55                   	push   ebp
     c18:	e8 fc ff ff ff       	call   c19 <main+0x8f9>
     c1d:	83 c4 0c             	add    esp,0xc
     c20:	68 08 01 00 00       	push   0x108
     c25:	6a 00                	push   0x0
     c27:	56                   	push   esi
     c28:	e8 fc ff ff ff       	call   c29 <main+0x909>
     c2d:	83 c4 04             	add    esp,0x4
     c30:	55                   	push   ebp
     c31:	e8 fc ff ff ff       	call   c32 <main+0x912>
     c36:	83 c4 04             	add    esp,0x4
     c39:	56                   	push   esi
     c3a:	e8 fc ff ff ff       	call   c3b <main+0x91b>
     c3f:	83 c4 10             	add    esp,0x10
     c42:	83 c7 fe             	add    edi,0xfffffffe
     c45:	8b 74 24 08          	mov    esi,DWORD PTR [esp+0x8]
     c49:	74 22                	je     c6d <main+0x94d>
     c4b:	8a 0b                	mov    cl,BYTE PTR [ebx]
     c4d:	31 c0                	xor    eax,eax
     c4f:	eb 07                	jmp    c58 <main+0x938>
     c51:	40                   	inc    eax
     c52:	39 c7                	cmp    edi,eax
     c54:	89 d1                	mov    ecx,edx
     c56:	74 11                	je     c69 <main+0x949>
     c58:	0f b6 54 03 01       	movzx  edx,BYTE PTR [ebx+eax*1+0x1]
     c5d:	38 d1                	cmp    cl,dl
     c5f:	75 f0                	jne    c51 <main+0x931>
     c61:	3a 4c 03 02          	cmp    cl,BYTE PTR [ebx+eax*1+0x2]
     c65:	75 ea                	jne    c51 <main+0x931>
     c67:	eb 06                	jmp    c6f <main+0x94f>
     c69:	89 f8                	mov    eax,edi
     c6b:	eb 02                	jmp    c6f <main+0x94f>
     c6d:	31 c0                	xor    eax,eax
     c6f:	8b 4e 1c             	mov    ecx,DWORD PTR [esi+0x1c]
     c72:	83 c1 fe             	add    ecx,0xfffffffe
     c75:	39 c8                	cmp    eax,ecx
     c77:	8b 5c 24 10          	mov    ebx,DWORD PTR [esp+0x10]
     c7b:	0f 82 aa 0b 00 00    	jb     182b <main+0x150b>
     c81:	83 ec 08             	sub    esp,0x8
     c84:	6a 01                	push   0x1
     c86:	53                   	push   ebx
     c87:	e8 fc ff ff ff       	call   c88 <main+0x968>
     c8c:	83 c4 10             	add    esp,0x10
     c8f:	89 44 24 14          	mov    DWORD PTR [esp+0x14],eax
     c93:	85 c0                	test   eax,eax
     c95:	74 38                	je     ccf <main+0x9af>
     c97:	8b 86 48 00 00 01    	mov    eax,DWORD PTR [esi+0x1000048]
     c9d:	83 f8 04             	cmp    eax,0x4
     ca0:	0f 87 b6 00 00 00    	ja     d5c <main+0xa3c>
     ca6:	ff 24 85 38 00 00 00 	jmp    DWORD PTR [eax*4+0x38]
     cad:	8b 4c 24 14          	mov    ecx,DWORD PTR [esp+0x14]
     cb1:	89 0d 00 00 00 00    	mov    DWORD PTR ds:0x0,ecx
     cb7:	8b 46 24             	mov    eax,DWORD PTR [esi+0x24]
     cba:	c1 e0 03             	shl    eax,0x3
     cbd:	83 ec 04             	sub    esp,0x4
     cc0:	50                   	push   eax
     cc1:	ff 76 20             	push   DWORD PTR [esi+0x20]
     cc4:	51                   	push   ecx
     cc5:	e8 fc ff ff ff       	call   cc6 <main+0x9a6>
     cca:	e9 8a 00 00 00       	jmp    d59 <main+0xa39>
     ccf:	89 f1                	mov    ecx,esi
     cd1:	e8 0a 0c 00 00       	call   18e0 <free_global_memory>
     cd6:	ff 35 00 00 00 00    	push   DWORD PTR ds:0x0
     cdc:	6a 01                	push   0x1
     cde:	6a 1c                	push   0x1c
     ce0:	68 00 00 00 00       	push   0x0
     ce5:	e9 c1 f8 ff ff       	jmp    5ab <main+0x28b>
     cea:	8b 54 24 14          	mov    edx,DWORD PTR [esp+0x14]
     cee:	89 15 10 00 00 00    	mov    DWORD PTR ds:0x10,edx
     cf4:	8b 46 20             	mov    eax,DWORD PTR [esi+0x20]
     cf7:	8b 4e 24             	mov    ecx,DWORD PTR [esi+0x24]
     cfa:	c1 e1 03             	shl    ecx,0x3
     cfd:	50                   	push   eax
     cfe:	50                   	push   eax
     cff:	51                   	push   ecx
     d00:	52                   	push   edx
     d01:	e8 fc ff ff ff       	call   d02 <main+0x9e2>
     d06:	eb 51                	jmp    d59 <main+0xa39>
     d08:	8b 44 24 14          	mov    eax,DWORD PTR [esp+0x14]
     d0c:	a3 04 00 00 00       	mov    ds:0x4,eax
     d11:	83 ec 04             	sub    esp,0x4
     d14:	ff 76 24             	push   DWORD PTR [esi+0x24]
     d17:	ff 76 20             	push   DWORD PTR [esi+0x20]
     d1a:	50                   	push   eax
     d1b:	e8 fc ff ff ff       	call   d1c <main+0x9fc>
     d20:	eb 37                	jmp    d59 <main+0xa39>
     d22:	8b 44 24 14          	mov    eax,DWORD PTR [esp+0x14]
     d26:	a3 0c 00 00 00       	mov    ds:0xc,eax
     d2b:	83 ec 04             	sub    esp,0x4
     d2e:	ff 76 24             	push   DWORD PTR [esi+0x24]
     d31:	ff 76 20             	push   DWORD PTR [esi+0x20]
     d34:	50                   	push   eax
     d35:	e8 fc ff ff ff       	call   d36 <main+0xa16>
     d3a:	eb 1d                	jmp    d59 <main+0xa39>
     d3c:	8b 4c 24 14          	mov    ecx,DWORD PTR [esp+0x14]
     d40:	89 0d 08 00 00 00    	mov    DWORD PTR ds:0x8,ecx
     d46:	8b 46 24             	mov    eax,DWORD PTR [esi+0x24]
     d49:	c1 e0 03             	shl    eax,0x3
     d4c:	83 ec 04             	sub    esp,0x4
     d4f:	ff 76 20             	push   DWORD PTR [esi+0x20]
     d52:	50                   	push   eax
     d53:	51                   	push   ecx
     d54:	e8 fc ff ff ff       	call   d55 <main+0xa35>
     d59:	83 c4 10             	add    esp,0x10
     d5c:	8b 86 48 00 00 01    	mov    eax,DWORD PTR [esi+0x1000048]
     d62:	83 ec 08             	sub    esp,0x8
     d65:	ff 34 85 7c 00 00 00 	push   DWORD PTR [eax*4+0x7c]
     d6c:	68 00 00 00 00       	push   0x0
     d71:	e8 fc ff ff ff       	call   d72 <main+0xa52>
     d76:	83 c4 10             	add    esp,0x10
     d79:	31 c0                	xor    eax,eax
     d7b:	83 be 44 00 00 01 00 	cmp    DWORD PTR [esi+0x1000044],0x0
     d82:	0f 95 c0             	setne  al
     d85:	83 ec 04             	sub    esp,0x4
     d88:	ff 36                	push   DWORD PTR [esi]
     d8a:	ff 34 85 74 00 00 00 	push   DWORD PTR [eax*4+0x74]
     d91:	68 00 00 00 00       	push   0x0
     d96:	e8 fc ff ff ff       	call   d97 <main+0xa77>
     d9b:	83 c4 08             	add    esp,0x8
     d9e:	ff 35 00 00 00 00    	push   DWORD PTR ds:0x0
     da4:	ff 36                	push   DWORD PTR [esi]
     da6:	e8 fc ff ff ff       	call   da7 <main+0xa87>
     dab:	83 c4 10             	add    esp,0x10
     dae:	85 c0                	test   eax,eax
     db0:	74 6b                	je     e1d <main+0xafd>
     db2:	89 c5                	mov    ebp,eax
     db4:	83 ec 04             	sub    esp,0x4
     db7:	6a 02                	push   0x2
     db9:	6a 00                	push   0x0
     dbb:	50                   	push   eax
     dbc:	e8 fc ff ff ff       	call   dbd <main+0xa9d>
     dc1:	83 c4 10             	add    esp,0x10
     dc4:	b9 ff ff ff ff       	mov    ecx,0xffffffff
     dc9:	85 c0                	test   eax,eax
     dcb:	75 31                	jne    dfe <main+0xade>
     dcd:	83 ec 0c             	sub    esp,0xc
     dd0:	55                   	push   ebp
     dd1:	e8 fc ff ff ff       	call   dd2 <main+0xab2>
     dd6:	83 c4 10             	add    esp,0x10
     dd9:	89 c7                	mov    edi,eax
     ddb:	83 ec 04             	sub    esp,0x4
     dde:	6a 00                	push   0x0
     de0:	6a 00                	push   0x0
     de2:	55                   	push   ebp
     de3:	e8 fc ff ff ff       	call   de4 <main+0xac4>
     de8:	b9 ff ff ff ff       	mov    ecx,0xffffffff
     ded:	83 c4 10             	add    esp,0x10
     df0:	85 c0                	test   eax,eax
     df2:	75 0a                	jne    dfe <main+0xade>
     df4:	85 ff                	test   edi,edi
     df6:	89 f9                	mov    ecx,edi
     df8:	0f 84 bd 05 00 00    	je     13bb <main+0x109b>
     dfe:	83 be 44 00 00 01 00 	cmp    DWORD PTR [esi+0x1000044],0x0
     e05:	74 20                	je     e27 <main+0xb07>
     e07:	8b 46 1c             	mov    eax,DWORD PTR [esi+0x1c]
     e0a:	83 c0 21             	add    eax,0x21
     e0d:	89 f7                	mov    edi,esi
     e0f:	be 08 00 00 00       	mov    esi,0x8
     e14:	39 c8                	cmp    eax,ecx
     e16:	7e 20                	jle    e38 <main+0xb18>
     e18:	e9 a3 05 00 00       	jmp    13c0 <main+0x10a0>
     e1d:	b8 01 00 00 00       	mov    eax,0x1
     e22:	e9 93 09 00 00       	jmp    17ba <main+0x149a>
     e27:	8b 46 1c             	mov    eax,DWORD PTR [esi+0x1c]
     e2a:	8d 44 01 20          	lea    eax,[ecx+eax*1+0x20]
     e2e:	85 c0                	test   eax,eax
     e30:	89 f7                	mov    edi,esi
     e32:	0f 8e 83 05 00 00    	jle    13bb <main+0x109b>
     e38:	89 4c 24 18          	mov    DWORD PTR [esp+0x18],ecx
     e3c:	83 ec 08             	sub    esp,0x8
     e3f:	ff 35 00 00 00 00    	push   DWORD PTR ds:0x0
     e45:	ff 77 04             	push   DWORD PTR [edi+0x4]
     e48:	e8 fc ff ff ff       	call   e49 <main+0xb29>
     e4d:	83 c4 10             	add    esp,0x10
     e50:	89 44 24 1c          	mov    DWORD PTR [esp+0x1c],eax
     e54:	85 c0                	test   eax,eax
     e56:	0f 84 24 05 00 00    	je     1380 <main+0x1060>
     e5c:	89 fe                	mov    esi,edi
     e5e:	8b 54 24 18          	mov    edx,DWORD PTR [esp+0x18]
     e62:	89 54 24 54          	mov    DWORD PTR [esp+0x54],edx
     e66:	db 44 24 54          	fild   DWORD PTR [esp+0x54]
     e6a:	dd 54 24 44          	fst    QWORD PTR [esp+0x44]
     e6e:	d8 35 00 00 00 00    	fdiv   DWORD PTR ds:0x0
     e74:	dd 5c 24 74          	fstp   QWORD PTR [esp+0x74]
     e78:	8d 8a 00 fc ff ff    	lea    ecx,[edx-0x400]
     e7e:	b8 01 00 00 00       	mov    eax,0x1
     e83:	81 f9 00 fc 0f 00    	cmp    ecx,0xffc00
     e89:	72 28                	jb     eb3 <main+0xb93>
     e8b:	8d 8a 00 00 f0 ff    	lea    ecx,[edx-0x100000]
     e91:	b8 02 00 00 00       	mov    eax,0x2
     e96:	81 f9 00 00 f0 3f    	cmp    ecx,0x3ff00000
     e9c:	72 15                	jb     eb3 <main+0xb93>
     e9e:	c7 44 24 34 00 00 00 	mov    DWORD PTR [esp+0x34],0x0
     ea5:	00 
     ea6:	b8 03 00 00 00       	mov    eax,0x3
     eab:	81 fa 00 00 00 40    	cmp    edx,0x40000000
     eb1:	72 25                	jb     ed8 <main+0xbb8>
     eb3:	8b 0c 85 9c 00 00 00 	mov    ecx,DWORD PTR [eax*4+0x9c]
     eba:	89 4c 24 60          	mov    DWORD PTR [esp+0x60],ecx
     ebe:	c7 44 24 64 00 00 00 	mov    DWORD PTR [esp+0x64],0x0
     ec5:	00 
     ec6:	df 6c 24 60          	fild   QWORD PTR [esp+0x60]
     eca:	dd 44 24 44          	fld    QWORD PTR [esp+0x44]
     ece:	de f1                	fdivrp st(1),st
     ed0:	dd 5c 24 44          	fstp   QWORD PTR [esp+0x44]
     ed4:	89 44 24 34          	mov    DWORD PTR [esp+0x34],eax
     ed8:	8b 7c 24 1c          	mov    edi,DWORD PTR [esp+0x1c]
     edc:	89 5c 24 10          	mov    DWORD PTR [esp+0x10],ebx
     ee0:	8d 86 28 00 00 01    	lea    eax,[esi+0x1000028]
     ee6:	83 ec 04             	sub    esp,0x4
     ee9:	6a 19                	push   0x19
     eeb:	6a 2e                	push   0x2e
     eed:	89 44 24 44          	mov    DWORD PTR [esp+0x44],eax
     ef1:	50                   	push   eax
     ef2:	e8 fc ff ff ff       	call   ef3 <main+0xbd3>
     ef7:	83 c4 04             	add    esp,0x4
     efa:	ff 76 10             	push   DWORD PTR [esi+0x10]
     efd:	e8 fc ff ff ff       	call   efe <main+0xbde>
     f02:	83 c4 10             	add    esp,0x10
     f05:	83 7c 24 18 00       	cmp    DWORD PTR [esp+0x18],0x0
     f0a:	89 6c 24 20          	mov    DWORD PTR [esp+0x20],ebp
     f0e:	0f 8e 02 05 00 00    	jle    1416 <main+0x10f6>
     f14:	8d 9e 28 00 80 00    	lea    ebx,[esi+0x800028]
     f1a:	8d 86 2c 00 80 00    	lea    eax,[esi+0x80002c]
     f20:	89 44 24 40          	mov    DWORD PTR [esp+0x40],eax
     f24:	8d 4e 28             	lea    ecx,[esi+0x28]
     f27:	31 c0                	xor    eax,eax
     f29:	c7 44 24 3c 00 00 00 	mov    DWORD PTR [esp+0x3c],0x0
     f30:	00 
     f31:	89 0c 24             	mov    DWORD PTR [esp],ecx
     f34:	e9 a5 00 00 00       	jmp    fde <main+0xcbe>
     f39:	8b 0c 85 9c 00 00 00 	mov    ecx,DWORD PTR [eax*4+0x9c]
     f40:	89 4c 24 58          	mov    DWORD PTR [esp+0x58],ecx
     f44:	c7 44 24 5c 00 00 00 	mov    DWORD PTR [esp+0x5c],0x0
     f4b:	00 
     f4c:	df 6c 24 58          	fild   QWORD PTR [esp+0x58]
     f50:	dd 44 24 6c          	fld    QWORD PTR [esp+0x6c]
     f54:	de f1                	fdivrp st(1),st
     f56:	89 c1                	mov    ecx,eax
     f58:	31 c0                	xor    eax,eax
     f5a:	83 be 44 00 00 01 00 	cmp    DWORD PTR [esi+0x1000044],0x0
     f61:	0f 95 c0             	setne  al
     f64:	8b 04 85 74 00 00 00 	mov    eax,DWORD PTR [eax*4+0x74]
     f6b:	8b 0c 8d 90 00 00 00 	mov    ecx,DWORD PTR [ecx*4+0x90]
     f72:	8b 54 24 34          	mov    edx,DWORD PTR [esp+0x34]
     f76:	8b 14 95 90 00 00 00 	mov    edx,DWORD PTR [edx*4+0x90]
     f7d:	83 ec 30             	sub    esp,0x30
     f80:	8b 6c 24 54          	mov    ebp,DWORD PTR [esp+0x54]
     f84:	89 6c 24 24          	mov    DWORD PTR [esp+0x24],ebp
     f88:	89 54 24 20          	mov    DWORD PTR [esp+0x20],edx
     f8c:	dd 44 24 74          	fld    QWORD PTR [esp+0x74]
     f90:	dd 5c 24 18          	fstp   QWORD PTR [esp+0x18]
     f94:	89 4c 24 14          	mov    DWORD PTR [esp+0x14],ecx
     f98:	dd 5c 24 0c          	fstp   QWORD PTR [esp+0xc]
     f9c:	8b 4c 24 68          	mov    ecx,DWORD PTR [esp+0x68]
     fa0:	89 4c 24 08          	mov    DWORD PTR [esp+0x8],ecx
     fa4:	89 44 24 04          	mov    DWORD PTR [esp+0x4],eax
     fa8:	c7 04 24 00 00 00 00 	mov    DWORD PTR [esp],0x0
     faf:	e8 fc ff ff ff       	call   fb0 <main+0xc90>
     fb4:	83 c4 24             	add    esp,0x24
     fb7:	ff 35 00 00 00 00    	push   DWORD PTR ds:0x0
     fbd:	e8 fc ff ff ff       	call   fbe <main+0xc9e>
     fc2:	83 c4 10             	add    esp,0x10
     fc5:	89 6c 24 3c          	mov    DWORD PTR [esp+0x3c],ebp
     fc9:	8b 6c 24 20          	mov    ebp,DWORD PTR [esp+0x20]
     fcd:	8b 44 24 0c          	mov    eax,DWORD PTR [esp+0xc]
     fd1:	3b 44 24 18          	cmp    eax,DWORD PTR [esp+0x18]
     fd5:	8b 0c 24             	mov    ecx,DWORD PTR [esp]
     fd8:	0f 8d 40 04 00 00    	jge    141e <main+0x10fe>
     fde:	85 c0                	test   eax,eax
     fe0:	0f 84 8f 02 00 00    	je     1275 <main+0xf55>
     fe6:	89 44 24 0c          	mov    DWORD PTR [esp+0xc],eax
     fea:	55                   	push   ebp
     feb:	68 00 00 80 00       	push   0x800000
     ff0:	6a 01                	push   0x1
     ff2:	51                   	push   ecx
     ff3:	e8 fc ff ff ff       	call   ff4 <main+0xcd4>
     ff8:	83 c4 10             	add    esp,0x10
     ffb:	85 c0                	test   eax,eax
     ffd:	0f 84 08 01 00 00    	je     110b <main+0xdeb>
    1003:	31 ff                	xor    edi,edi
    1005:	eb 65                	jmp    106c <main+0xd4c>
    1007:	8d 84 3e 28 00 80 00 	lea    eax,[esi+edi*1+0x800028]
    100e:	83 ec 04             	sub    esp,0x4
    1011:	50                   	push   eax
    1012:	ff 76 18             	push   DWORD PTR [esi+0x18]
    1015:	ff 35 10 00 00 00    	push   DWORD PTR ds:0x10
    101b:	e8 fc ff ff ff       	call   101c <main+0xcfc>
    1020:	83 c4 10             	add    esp,0x10
    1023:	8d 84 3e 28 00 80 00 	lea    eax,[esi+edi*1+0x800028]
    102a:	8d 4c 3e 28          	lea    ecx,[esi+edi*1+0x28]
    102e:	83 ec 04             	sub    esp,0x4
    1031:	ff 76 1c             	push   DWORD PTR [esi+0x1c]
    1034:	51                   	push   ecx
    1035:	50                   	push   eax
    1036:	e8 fc ff ff ff       	call   1037 <main+0xd17>
    103b:	83 c4 10             	add    esp,0x10
    103e:	83 be 44 00 00 01 00 	cmp    DWORD PTR [esi+0x1000044],0x0
    1045:	8b 04 24             	mov    eax,DWORD PTR [esp]
    1048:	0f 44 c3             	cmove  eax,ebx
    104b:	01 f8                	add    eax,edi
    104d:	83 ec 04             	sub    esp,0x4
    1050:	ff 76 1c             	push   DWORD PTR [esi+0x1c]
    1053:	50                   	push   eax
    1054:	ff 76 18             	push   DWORD PTR [esi+0x18]
    1057:	e8 fc ff ff ff       	call   1058 <main+0xd38>
    105c:	83 c4 10             	add    esp,0x10
    105f:	03 7e 1c             	add    edi,DWORD PTR [esi+0x1c]
    1062:	89 e8                	mov    eax,ebp
    1064:	39 ef                	cmp    edi,ebp
    1066:	0f 83 9f 00 00 00    	jae    110b <main+0xdeb>
    106c:	89 c5                	mov    ebp,eax
    106e:	8b 86 48 00 00 01    	mov    eax,DWORD PTR [esi+0x1000048]
    1074:	83 f8 04             	cmp    eax,0x4
    1077:	77 aa                	ja     1023 <main+0xd03>
    1079:	ff 24 85 60 00 00 00 	jmp    DWORD PTR [eax*4+0x60]
    1080:	8d 84 3e 28 00 80 00 	lea    eax,[esi+edi*1+0x800028]
    1087:	83 ec 04             	sub    esp,0x4
    108a:	50                   	push   eax
    108b:	ff 76 18             	push   DWORD PTR [esi+0x18]
    108e:	ff 35 00 00 00 00    	push   DWORD PTR ds:0x0
    1094:	e8 fc ff ff ff       	call   1095 <main+0xd75>
    1099:	eb 85                	jmp    1020 <main+0xd00>
    109b:	8d 84 3e 28 00 80 00 	lea    eax,[esi+edi*1+0x800028]
    10a2:	83 ec 04             	sub    esp,0x4
    10a5:	50                   	push   eax
    10a6:	ff 76 18             	push   DWORD PTR [esi+0x18]
    10a9:	ff 35 04 00 00 00    	push   DWORD PTR ds:0x4
    10af:	e8 fc ff ff ff       	call   10b0 <main+0xd90>
    10b4:	e9 67 ff ff ff       	jmp    1020 <main+0xd00>
    10b9:	8b 46 18             	mov    eax,DWORD PTR [esi+0x18]
    10bc:	8d 48 04             	lea    ecx,[eax+0x4]
    10bf:	83 ec 04             	sub    esp,0x4
    10c2:	51                   	push   ecx
    10c3:	50                   	push   eax
    10c4:	ff 35 0c 00 00 00    	push   DWORD PTR ds:0xc
    10ca:	e8 fc ff ff ff       	call   10cb <main+0xdab>
    10cf:	83 c4 10             	add    esp,0x10
    10d2:	8d 84 3e 28 00 80 00 	lea    eax,[esi+edi*1+0x800028]
    10d9:	83 ec 04             	sub    esp,0x4
    10dc:	ff 76 1c             	push   DWORD PTR [esi+0x1c]
    10df:	ff 76 18             	push   DWORD PTR [esi+0x18]
    10e2:	50                   	push   eax
    10e3:	e8 fc ff ff ff       	call   10e4 <main+0xdc4>
    10e8:	e9 33 ff ff ff       	jmp    1020 <main+0xd00>
    10ed:	8d 84 3e 28 00 80 00 	lea    eax,[esi+edi*1+0x800028]
    10f4:	83 ec 04             	sub    esp,0x4
    10f7:	50                   	push   eax
    10f8:	ff 76 18             	push   DWORD PTR [esi+0x18]
    10fb:	ff 35 08 00 00 00    	push   DWORD PTR ds:0x8
    1101:	e8 fc ff ff ff       	call   1102 <main+0xde2>
    1106:	e9 15 ff ff ff       	jmp    1020 <main+0xd00>
    110b:	89 da                	mov    edx,ebx
    110d:	8b 7c 24 0c          	mov    edi,DWORD PTR [esp+0xc]
    1111:	01 c7                	add    edi,eax
    1113:	89 7c 24 4c          	mov    DWORD PTR [esp+0x4c],edi
    1117:	db 44 24 4c          	fild   DWORD PTR [esp+0x4c]
    111b:	dd 44 24 74          	fld    QWORD PTR [esp+0x74]
    111f:	d9 c9                	fxch   st(1)
    1121:	dd 54 24 6c          	fst    QWORD PTR [esp+0x6c]
    1125:	de f1                	fdivrp st(1),st
    1127:	dc 05 00 00 00 00    	fadd   QWORD PTR ds:0x0
    112d:	d9 7c 24 2a          	fnstcw WORD PTR [esp+0x2a]
    1131:	0f b7 4c 24 2a       	movzx  ecx,WORD PTR [esp+0x2a]
    1136:	81 c9 00 0c 00 00    	or     ecx,0xc00
    113c:	66 89 4c 24 32       	mov    WORD PTR [esp+0x32],cx
    1141:	d9 6c 24 32          	fldcw  WORD PTR [esp+0x32]
    1145:	db 5c 24 50          	fistp  DWORD PTR [esp+0x50]
    1149:	d9 6c 24 2a          	fldcw  WORD PTR [esp+0x2a]
    114d:	8b 5c 24 50          	mov    ebx,DWORD PTR [esp+0x50]
    1151:	83 fb 65             	cmp    ebx,0x65
    1154:	b9 64 00 00 00       	mov    ecx,0x64
    1159:	0f 4d d9             	cmovge ebx,ecx
    115c:	89 5c 24 24          	mov    DWORD PTR [esp+0x24],ebx
    1160:	89 7c 24 0c          	mov    DWORD PTR [esp+0xc],edi
    1164:	3b 7c 24 18          	cmp    edi,DWORD PTR [esp+0x18]
    1168:	75 10                	jne    117a <main+0xe5a>
    116a:	8d 48 e0             	lea    ecx,[eax-0x20]
    116d:	81 be 44 00 00 01 de 	cmp    DWORD PTR [esi+0x1000044],0xde
    1174:	00 00 00 
    1177:	0f 44 c1             	cmove  eax,ecx
    117a:	85 c0                	test   eax,eax
    117c:	89 c1                	mov    ecx,eax
    117e:	89 44 24 04          	mov    DWORD PTR [esp+0x4],eax
    1182:	89 d3                	mov    ebx,edx
    1184:	74 47                	je     11cd <main+0xead>
    1186:	89 f5                	mov    ebp,esi
    1188:	31 f6                	xor    esi,esi
    118a:	89 c2                	mov    edx,eax
    118c:	89 c7                	mov    edi,eax
    118e:	90                   	nop
    118f:	90                   	nop
    1190:	83 bd 44 00 00 01 00 	cmp    DWORD PTR [ebp+0x1000044],0x0
    1197:	89 d9                	mov    ecx,ebx
    1199:	0f 44 0c 24          	cmove  ecx,DWORD PTR [esp]
    119d:	01 f1                	add    ecx,esi
    119f:	81 ef 00 04 00 00    	sub    edi,0x400
    11a5:	b8 00 04 00 00       	mov    eax,0x400
    11aa:	0f 43 d0             	cmovae edx,eax
    11ad:	83 ec 04             	sub    esp,0x4
    11b0:	52                   	push   edx
    11b1:	51                   	push   ecx
    11b2:	ff 75 10             	push   DWORD PTR [ebp+0x10]
    11b5:	e8 fc ff ff ff       	call   11b6 <main+0xe96>
    11ba:	8b 44 24 14          	mov    eax,DWORD PTR [esp+0x14]
    11be:	83 c4 10             	add    esp,0x10
    11c1:	81 c6 00 04 00 00    	add    esi,0x400
    11c7:	39 c6                	cmp    esi,eax
    11c9:	89 fa                	mov    edx,edi
    11cb:	72 c3                	jb     1190 <main+0xe70>
    11cd:	8b 7c 24 1c          	mov    edi,DWORD PTR [esp+0x1c]
    11d1:	57                   	push   edi
    11d2:	50                   	push   eax
    11d3:	6a 01                	push   0x1
    11d5:	53                   	push   ebx
    11d6:	e8 fc ff ff ff       	call   11d7 <main+0xeb7>
    11db:	83 c4 10             	add    esp,0x10
    11de:	3b 44 24 04          	cmp    eax,DWORD PTR [esp+0x4]
    11e2:	0f 85 25 05 00 00    	jne    170d <main+0x13ed>
    11e8:	83 ec 0c             	sub    esp,0xc
    11eb:	57                   	push   edi
    11ec:	e8 fc ff ff ff       	call   11ed <main+0xecd>
    11f1:	83 c4 10             	add    esp,0x10
    11f4:	8b 4c 24 24          	mov    ecx,DWORD PTR [esp+0x24]
    11f8:	3b 4c 24 3c          	cmp    ecx,DWORD PTR [esp+0x3c]
    11fc:	8b 74 24 08          	mov    esi,DWORD PTR [esp+0x8]
    1200:	8b 6c 24 20          	mov    ebp,DWORD PTR [esp+0x20]
    1204:	0f 8e c3 fd ff ff    	jle    fcd <main+0xcad>
    120a:	8d 41 03             	lea    eax,[ecx+0x3]
    120d:	85 c9                	test   ecx,ecx
    120f:	0f 49 c1             	cmovns eax,ecx
    1212:	c1 f8 02             	sar    eax,0x2
    1215:	83 ec 04             	sub    esp,0x4
    1218:	50                   	push   eax
    1219:	6a 23                	push   0x23
    121b:	ff 74 24 44          	push   DWORD PTR [esp+0x44]
    121f:	e8 fc ff ff ff       	call   1220 <main+0xf00>
    1224:	83 c4 10             	add    esp,0x10
    1227:	8b 54 24 0c          	mov    edx,DWORD PTR [esp+0xc]
    122b:	8d 8a 00 fc ff ff    	lea    ecx,[edx-0x400]
    1231:	b8 01 00 00 00       	mov    eax,0x1
    1236:	81 f9 00 fc 0f 00    	cmp    ecx,0xffc00
    123c:	0f 82 f7 fc ff ff    	jb     f39 <main+0xc19>
    1242:	8d 8a 00 00 f0 ff    	lea    ecx,[edx-0x100000]
    1248:	b8 02 00 00 00       	mov    eax,0x2
    124d:	81 f9 00 00 f0 3f    	cmp    ecx,0x3ff00000
    1253:	0f 82 e0 fc ff ff    	jb     f39 <main+0xc19>
    1259:	31 c9                	xor    ecx,ecx
    125b:	b8 03 00 00 00       	mov    eax,0x3
    1260:	81 fa 00 00 00 40    	cmp    edx,0x40000000
    1266:	0f 83 cd fc ff ff    	jae    f39 <main+0xc19>
    126c:	dd 44 24 6c          	fld    QWORD PTR [esp+0x6c]
    1270:	e9 e3 fc ff ff       	jmp    f58 <main+0xc38>
    1275:	8b 96 44 00 00 01    	mov    edx,DWORD PTR [esi+0x1000044]
    127b:	81 fa de 00 00 00    	cmp    edx,0xde
    1281:	74 37                	je     12ba <main+0xf9a>
    1283:	31 c0                	xor    eax,eax
    1285:	85 d2                	test   edx,edx
    1287:	0f 85 59 fd ff ff    	jne    fe6 <main+0xcc6>
    128d:	8b 86 48 00 00 01    	mov    eax,DWORD PTR [esi+0x1000048]
    1293:	83 f8 04             	cmp    eax,0x4
    1296:	0f 87 a2 00 00 00    	ja     133e <main+0x101e>
    129c:	ff 24 85 4c 00 00 00 	jmp    DWORD PTR [eax*4+0x4c]
    12a3:	83 ec 04             	sub    esp,0x4
    12a6:	53                   	push   ebx
    12a7:	ff 76 18             	push   DWORD PTR [esi+0x18]
    12aa:	ff 35 00 00 00 00    	push   DWORD PTR ds:0x0
    12b0:	e8 fc ff ff ff       	call   12b1 <main+0xf91>
    12b5:	e9 81 00 00 00       	jmp    133b <main+0x101b>
    12ba:	55                   	push   ebp
    12bb:	ff 76 1c             	push   DWORD PTR [esi+0x1c]
    12be:	6a 01                	push   0x1
    12c0:	ff 76 18             	push   DWORD PTR [esi+0x18]
    12c3:	e8 fc ff ff ff       	call   12c4 <main+0xfa4>
    12c8:	8b 4c 24 10          	mov    ecx,DWORD PTR [esp+0x10]
    12cc:	83 c4 10             	add    esp,0x10
    12cf:	3b 46 1c             	cmp    eax,DWORD PTR [esi+0x1c]
    12d2:	0f 84 0e fd ff ff    	je     fe6 <main+0xcc6>
    12d8:	e9 7e 05 00 00       	jmp    185b <main+0x153b>
    12dd:	83 ec 04             	sub    esp,0x4
    12e0:	53                   	push   ebx
    12e1:	ff 76 18             	push   DWORD PTR [esi+0x18]
    12e4:	ff 35 10 00 00 00    	push   DWORD PTR ds:0x10
    12ea:	e8 fc ff ff ff       	call   12eb <main+0xfcb>
    12ef:	eb 4a                	jmp    133b <main+0x101b>
    12f1:	83 ec 04             	sub    esp,0x4
    12f4:	53                   	push   ebx
    12f5:	ff 76 18             	push   DWORD PTR [esi+0x18]
    12f8:	ff 35 04 00 00 00    	push   DWORD PTR ds:0x4
    12fe:	e8 fc ff ff ff       	call   12ff <main+0xfdf>
    1303:	eb 36                	jmp    133b <main+0x101b>
    1305:	83 ec 04             	sub    esp,0x4
    1308:	ff 76 1c             	push   DWORD PTR [esi+0x1c]
    130b:	ff 76 18             	push   DWORD PTR [esi+0x18]
    130e:	53                   	push   ebx
    130f:	e8 fc ff ff ff       	call   1310 <main+0xff0>
    1314:	83 c4 0c             	add    esp,0xc
    1317:	ff 74 24 44          	push   DWORD PTR [esp+0x44]
    131b:	53                   	push   ebx
    131c:	ff 35 0c 00 00 00    	push   DWORD PTR ds:0xc
    1322:	e8 fc ff ff ff       	call   1323 <main+0x1003>
    1327:	eb 12                	jmp    133b <main+0x101b>
    1329:	83 ec 04             	sub    esp,0x4
    132c:	53                   	push   ebx
    132d:	ff 76 18             	push   DWORD PTR [esi+0x18]
    1330:	ff 35 08 00 00 00    	push   DWORD PTR ds:0x8
    1336:	e8 fc ff ff ff       	call   1337 <main+0x1017>
    133b:	83 c4 10             	add    esp,0x10
    133e:	83 ec 04             	sub    esp,0x4
    1341:	ff 76 1c             	push   DWORD PTR [esi+0x1c]
    1344:	53                   	push   ebx
    1345:	ff 76 18             	push   DWORD PTR [esi+0x18]
    1348:	e8 fc ff ff ff       	call   1349 <main+0x1029>
    134d:	83 c4 10             	add    esp,0x10
    1350:	57                   	push   edi
    1351:	ff 76 1c             	push   DWORD PTR [esi+0x1c]
    1354:	6a 01                	push   0x1
    1356:	ff 76 18             	push   DWORD PTR [esi+0x18]
    1359:	e8 fc ff ff ff       	call   135a <main+0x103a>
    135e:	83 c4 10             	add    esp,0x10
    1361:	3b 46 1c             	cmp    eax,DWORD PTR [esi+0x1c]
    1364:	0f 85 1f 05 00 00    	jne    1889 <main+0x1569>
    136a:	83 ec 0c             	sub    esp,0xc
    136d:	57                   	push   edi
    136e:	e8 fc ff ff ff       	call   136f <main+0x104f>
    1373:	83 c4 10             	add    esp,0x10
    1376:	8b 0c 24             	mov    ecx,DWORD PTR [esp]
    1379:	31 c0                	xor    eax,eax
    137b:	e9 66 fc ff ff       	jmp    fe6 <main+0xcc6>
    1380:	83 ec 0c             	sub    esp,0xc
    1383:	55                   	push   ebp
    1384:	e8 fc ff ff ff       	call   1385 <main+0x1065>
    1389:	83 c4 10             	add    esp,0x10
    138c:	31 c9                	xor    ecx,ecx
    138e:	83 f8 ff             	cmp    eax,0xffffffff
    1391:	0f 94 c1             	sete   cl
    1394:	8d 04 8d 02 00 00 00 	lea    eax,[ecx*4+0x2]
    139b:	e9 1a 04 00 00       	jmp    17ba <main+0x149a>
    13a0:	89 d9                	mov    ecx,ebx
    13a2:	e8 39 05 00 00       	call   18e0 <free_global_memory>
    13a7:	ff 35 00 00 00 00    	push   DWORD PTR ds:0x0
    13ad:	6a 01                	push   0x1
    13af:	6a 28                	push   0x28
    13b1:	68 00 00 00 00       	push   0x0
    13b6:	e9 f0 f1 ff ff       	jmp    5ab <main+0x28b>
    13bb:	be 03 00 00 00       	mov    esi,0x3
    13c0:	83 ec 0c             	sub    esp,0xc
    13c3:	55                   	push   ebp
    13c4:	e8 fc ff ff ff       	call   13c5 <main+0x10a5>
    13c9:	83 c4 10             	add    esp,0x10
    13cc:	83 f8 ff             	cmp    eax,0xffffffff
    13cf:	b8 06 00 00 00       	mov    eax,0x6
    13d4:	0f 45 c6             	cmovne eax,esi
    13d7:	e9 de 03 00 00       	jmp    17ba <main+0x149a>
    13dc:	8b 4c 24 08          	mov    ecx,DWORD PTR [esp+0x8]
    13e0:	e8 fb 04 00 00       	call   18e0 <free_global_memory>
    13e5:	ff 35 00 00 00 00    	push   DWORD PTR ds:0x0
    13eb:	6a 01                	push   0x1
    13ed:	6a 2a                	push   0x2a
    13ef:	68 00 00 00 00       	push   0x0
    13f4:	e9 b2 f1 ff ff       	jmp    5ab <main+0x28b>
    13f9:	8b 4c 24 08          	mov    ecx,DWORD PTR [esp+0x8]
    13fd:	e8 de 04 00 00       	call   18e0 <free_global_memory>
    1402:	ff 35 00 00 00 00    	push   DWORD PTR ds:0x0
    1408:	6a 01                	push   0x1
    140a:	6a 29                	push   0x29
    140c:	68 00 00 00 00       	push   0x0
    1411:	e9 95 f1 ff ff       	jmp    5ab <main+0x28b>
    1416:	c7 44 24 04 00 00 00 	mov    DWORD PTR [esp+0x4],0x0
    141d:	00 
    141e:	83 ec 08             	sub    esp,0x8
    1421:	ff 35 00 00 00 00    	push   DWORD PTR ds:0x0
    1427:	6a 0a                	push   0xa
    1429:	e8 fc ff ff ff       	call   142a <main+0x110a>
    142e:	83 c4 04             	add    esp,0x4
    1431:	ff 76 10             	push   DWORD PTR [esi+0x10]
    1434:	e8 fc ff ff ff       	call   1435 <main+0x1115>
    1439:	83 c4 04             	add    esp,0x4
    143c:	6a 60                	push   0x60
    143e:	e8 fc ff ff ff       	call   143f <main+0x111f>
    1443:	83 c4 10             	add    esp,0x10
    1446:	85 c0                	test   eax,eax
    1448:	0f 84 73 04 00 00    	je     18c1 <main+0x15a1>
    144e:	89 c5                	mov    ebp,eax
    1450:	8b 46 10             	mov    eax,DWORD PTR [esi+0x10]
    1453:	8b 7e 24             	mov    edi,DWORD PTR [esi+0x24]
    1456:	83 ff 20             	cmp    edi,0x20
    1459:	89 f2                	mov    edx,esi
    145b:	be 20 00 00 00       	mov    esi,0x20
    1460:	0f 42 f7             	cmovb  esi,edi
    1463:	8b 88 88 00 00 00    	mov    ecx,DWORD PTR [eax+0x88]
    1469:	89 4d 1c             	mov    DWORD PTR [ebp+0x1c],ecx
    146c:	8b 88 84 00 00 00    	mov    ecx,DWORD PTR [eax+0x84]
    1472:	89 4d 18             	mov    DWORD PTR [ebp+0x18],ecx
    1475:	8b 88 80 00 00 00    	mov    ecx,DWORD PTR [eax+0x80]
    147b:	89 4d 14             	mov    DWORD PTR [ebp+0x14],ecx
    147e:	8b 48 7c             	mov    ecx,DWORD PTR [eax+0x7c]
    1481:	89 4d 10             	mov    DWORD PTR [ebp+0x10],ecx
    1484:	8b 48 78             	mov    ecx,DWORD PTR [eax+0x78]
    1487:	89 4d 0c             	mov    DWORD PTR [ebp+0xc],ecx
    148a:	8b 48 74             	mov    ecx,DWORD PTR [eax+0x74]
    148d:	89 4d 08             	mov    DWORD PTR [ebp+0x8],ecx
    1490:	8b 48 6c             	mov    ecx,DWORD PTR [eax+0x6c]
    1493:	8b 40 70             	mov    eax,DWORD PTR [eax+0x70]
    1496:	89 45 04             	mov    DWORD PTR [ebp+0x4],eax
    1499:	89 4d 00             	mov    DWORD PTR [ebp+0x0],ecx
    149c:	8d 45 20             	lea    eax,[ebp+0x20]
    149f:	8b 5a 20             	mov    ebx,DWORD PTR [edx+0x20]
    14a2:	83 ec 04             	sub    esp,0x4
    14a5:	56                   	push   esi
    14a6:	53                   	push   ebx
    14a7:	89 44 24 0c          	mov    DWORD PTR [esp+0xc],eax
    14ab:	50                   	push   eax
    14ac:	e8 fc ff ff ff       	call   14ad <main+0x118d>
    14b1:	83 c4 10             	add    esp,0x10
    14b4:	8d 45 40             	lea    eax,[ebp+0x40]
    14b7:	83 ec 04             	sub    esp,0x4
    14ba:	56                   	push   esi
    14bb:	53                   	push   ebx
    14bc:	89 c3                	mov    ebx,eax
    14be:	50                   	push   eax
    14bf:	e8 fc ff ff ff       	call   14c0 <main+0x11a0>
    14c4:	83 c4 10             	add    esp,0x10
    14c7:	83 ff 1f             	cmp    edi,0x1f
    14ca:	77 1d                	ja     14e9 <main+0x11c9>
    14cc:	83 fe 1f             	cmp    esi,0x1f
    14cf:	b8 1f 00 00 00       	mov    eax,0x1f
    14d4:	0f 47 c6             	cmova  eax,esi
    14d7:	29 f8                	sub    eax,edi
    14d9:	40                   	inc    eax
    14da:	8d 4c 2f 40          	lea    ecx,[edi+ebp*1+0x40]
    14de:	c6 41 e0 00          	mov    BYTE PTR [ecx-0x20],0x0
    14e2:	c6 01 00             	mov    BYTE PTR [ecx],0x0
    14e5:	41                   	inc    ecx
    14e6:	48                   	dec    eax
    14e7:	75 f5                	jne    14de <main+0x11be>
    14e9:	80 75 20 55          	xor    BYTE PTR [ebp+0x20],0x55
    14ed:	80 75 40 66          	xor    BYTE PTR [ebp+0x40],0x66
    14f1:	80 75 21 55          	xor    BYTE PTR [ebp+0x21],0x55
    14f5:	80 75 41 66          	xor    BYTE PTR [ebp+0x41],0x66
    14f9:	80 75 22 55          	xor    BYTE PTR [ebp+0x22],0x55
    14fd:	80 75 42 66          	xor    BYTE PTR [ebp+0x42],0x66
    1501:	80 75 23 55          	xor    BYTE PTR [ebp+0x23],0x55
    1505:	80 75 43 66          	xor    BYTE PTR [ebp+0x43],0x66
    1509:	80 75 24 55          	xor    BYTE PTR [ebp+0x24],0x55
    150d:	80 75 44 66          	xor    BYTE PTR [ebp+0x44],0x66
    1511:	80 75 25 55          	xor    BYTE PTR [ebp+0x25],0x55
    1515:	80 75 45 66          	xor    BYTE PTR [ebp+0x45],0x66
    1519:	80 75 26 55          	xor    BYTE PTR [ebp+0x26],0x55
    151d:	80 75 46 66          	xor    BYTE PTR [ebp+0x46],0x66
    1521:	80 75 27 55          	xor    BYTE PTR [ebp+0x27],0x55
    1525:	80 75 47 66          	xor    BYTE PTR [ebp+0x47],0x66
    1529:	80 75 28 55          	xor    BYTE PTR [ebp+0x28],0x55
    152d:	80 75 48 66          	xor    BYTE PTR [ebp+0x48],0x66
    1531:	80 75 29 55          	xor    BYTE PTR [ebp+0x29],0x55
    1535:	80 75 49 66          	xor    BYTE PTR [ebp+0x49],0x66
    1539:	80 75 2a 55          	xor    BYTE PTR [ebp+0x2a],0x55
    153d:	80 75 4a 66          	xor    BYTE PTR [ebp+0x4a],0x66
    1541:	80 75 2b 55          	xor    BYTE PTR [ebp+0x2b],0x55
    1545:	80 75 4b 66          	xor    BYTE PTR [ebp+0x4b],0x66
    1549:	80 75 2c 55          	xor    BYTE PTR [ebp+0x2c],0x55
    154d:	80 75 4c 66          	xor    BYTE PTR [ebp+0x4c],0x66
    1551:	80 75 2d 55          	xor    BYTE PTR [ebp+0x2d],0x55
    1555:	80 75 4d 66          	xor    BYTE PTR [ebp+0x4d],0x66
    1559:	80 75 2e 55          	xor    BYTE PTR [ebp+0x2e],0x55
    155d:	80 75 4e 66          	xor    BYTE PTR [ebp+0x4e],0x66
    1561:	80 75 2f 55          	xor    BYTE PTR [ebp+0x2f],0x55
    1565:	80 75 4f 66          	xor    BYTE PTR [ebp+0x4f],0x66
    1569:	80 75 30 55          	xor    BYTE PTR [ebp+0x30],0x55
    156d:	80 75 50 66          	xor    BYTE PTR [ebp+0x50],0x66
    1571:	80 75 31 55          	xor    BYTE PTR [ebp+0x31],0x55
    1575:	80 75 51 66          	xor    BYTE PTR [ebp+0x51],0x66
    1579:	80 75 32 55          	xor    BYTE PTR [ebp+0x32],0x55
    157d:	80 75 52 66          	xor    BYTE PTR [ebp+0x52],0x66
    1581:	80 75 33 55          	xor    BYTE PTR [ebp+0x33],0x55
    1585:	80 75 53 66          	xor    BYTE PTR [ebp+0x53],0x66
    1589:	80 75 34 55          	xor    BYTE PTR [ebp+0x34],0x55
    158d:	80 75 54 66          	xor    BYTE PTR [ebp+0x54],0x66
    1591:	80 75 35 55          	xor    BYTE PTR [ebp+0x35],0x55
    1595:	80 75 55 66          	xor    BYTE PTR [ebp+0x55],0x66
    1599:	80 75 36 55          	xor    BYTE PTR [ebp+0x36],0x55
    159d:	80 75 56 66          	xor    BYTE PTR [ebp+0x56],0x66
    15a1:	80 75 37 55          	xor    BYTE PTR [ebp+0x37],0x55
    15a5:	80 75 57 66          	xor    BYTE PTR [ebp+0x57],0x66
    15a9:	80 75 38 55          	xor    BYTE PTR [ebp+0x38],0x55
    15ad:	80 75 58 66          	xor    BYTE PTR [ebp+0x58],0x66
    15b1:	80 75 39 55          	xor    BYTE PTR [ebp+0x39],0x55
    15b5:	80 75 59 66          	xor    BYTE PTR [ebp+0x59],0x66
    15b9:	80 75 3a 55          	xor    BYTE PTR [ebp+0x3a],0x55
    15bd:	80 75 5a 66          	xor    BYTE PTR [ebp+0x5a],0x66
    15c1:	80 75 3b 55          	xor    BYTE PTR [ebp+0x3b],0x55
    15c5:	80 75 5b 66          	xor    BYTE PTR [ebp+0x5b],0x66
    15c9:	80 75 3c 55          	xor    BYTE PTR [ebp+0x3c],0x55
    15cd:	80 75 5c 66          	xor    BYTE PTR [ebp+0x5c],0x66
    15d1:	80 75 3d 55          	xor    BYTE PTR [ebp+0x3d],0x55
    15d5:	80 75 5d 66          	xor    BYTE PTR [ebp+0x5d],0x66
    15d9:	80 75 3e 55          	xor    BYTE PTR [ebp+0x3e],0x55
    15dd:	80 75 5e 66          	xor    BYTE PTR [ebp+0x5e],0x66
    15e1:	80 75 3f 55          	xor    BYTE PTR [ebp+0x3f],0x55
    15e5:	80 75 5f 66          	xor    BYTE PTR [ebp+0x5f],0x66
    15e9:	83 ec 04             	sub    esp,0x4
    15ec:	8b 74 24 0c          	mov    esi,DWORD PTR [esp+0xc]
    15f0:	ff 76 14             	push   DWORD PTR [esi+0x14]
    15f3:	6a 00                	push   0x0
    15f5:	ff 76 10             	push   DWORD PTR [esi+0x10]
    15f8:	e8 fc ff ff ff       	call   15f9 <main+0x12d9>
    15fd:	83 c4 04             	add    esp,0x4
    1600:	ff 76 10             	push   DWORD PTR [esi+0x10]
    1603:	e8 fc ff ff ff       	call   1604 <main+0x12e4>
    1608:	83 c4 0c             	add    esp,0xc
    160b:	6a 20                	push   0x20
    160d:	ff 74 24 08          	push   DWORD PTR [esp+0x8]
    1611:	ff 76 10             	push   DWORD PTR [esi+0x10]
    1614:	e8 fc ff ff ff       	call   1615 <main+0x12f5>
    1619:	83 c4 0c             	add    esp,0xc
    161c:	6a 20                	push   0x20
    161e:	55                   	push   ebp
    161f:	ff 76 10             	push   DWORD PTR [esi+0x10]
    1622:	e8 fc ff ff ff       	call   1623 <main+0x1303>
    1627:	83 c4 04             	add    esp,0x4
    162a:	ff 76 10             	push   DWORD PTR [esi+0x10]
    162d:	e8 fc ff ff ff       	call   162e <main+0x130e>
    1632:	83 c4 10             	add    esp,0x10
    1635:	8b 46 10             	mov    eax,DWORD PTR [esi+0x10]
    1638:	8b 88 88 00 00 00    	mov    ecx,DWORD PTR [eax+0x88]
    163e:	89 4d 1c             	mov    DWORD PTR [ebp+0x1c],ecx
    1641:	8b 88 84 00 00 00    	mov    ecx,DWORD PTR [eax+0x84]
    1647:	89 4d 18             	mov    DWORD PTR [ebp+0x18],ecx
    164a:	8b 88 80 00 00 00    	mov    ecx,DWORD PTR [eax+0x80]
    1650:	89 4d 14             	mov    DWORD PTR [ebp+0x14],ecx
    1653:	8b 48 7c             	mov    ecx,DWORD PTR [eax+0x7c]
    1656:	89 4d 10             	mov    DWORD PTR [ebp+0x10],ecx
    1659:	8b 48 78             	mov    ecx,DWORD PTR [eax+0x78]
    165c:	89 4d 0c             	mov    DWORD PTR [ebp+0xc],ecx
    165f:	8b 48 74             	mov    ecx,DWORD PTR [eax+0x74]
    1662:	89 4d 08             	mov    DWORD PTR [ebp+0x8],ecx
    1665:	8b 48 6c             	mov    ecx,DWORD PTR [eax+0x6c]
    1668:	8b 50 70             	mov    edx,DWORD PTR [eax+0x70]
    166b:	89 55 04             	mov    DWORD PTR [ebp+0x4],edx
    166e:	89 4d 00             	mov    DWORD PTR [ebp+0x0],ecx
    1671:	83 ec 04             	sub    esp,0x4
    1674:	ff 76 14             	push   DWORD PTR [esi+0x14]
    1677:	6a 00                	push   0x0
    1679:	50                   	push   eax
    167a:	e8 fc ff ff ff       	call   167b <main+0x135b>
    167f:	83 c4 04             	add    esp,0x4
    1682:	ff 76 10             	push   DWORD PTR [esi+0x10]
    1685:	e8 fc ff ff ff       	call   1686 <main+0x1366>
    168a:	83 c4 0c             	add    esp,0xc
    168d:	6a 20                	push   0x20
    168f:	53                   	push   ebx
    1690:	ff 76 10             	push   DWORD PTR [esi+0x10]
    1693:	e8 fc ff ff ff       	call   1694 <main+0x1374>
    1698:	83 c4 0c             	add    esp,0xc
    169b:	6a 20                	push   0x20
    169d:	55                   	push   ebp
    169e:	ff 76 10             	push   DWORD PTR [esi+0x10]
    16a1:	e8 fc ff ff ff       	call   16a2 <main+0x1382>
    16a6:	83 c4 04             	add    esp,0x4
    16a9:	ff 76 10             	push   DWORD PTR [esi+0x10]
    16ac:	e8 fc ff ff ff       	call   16ad <main+0x138d>
    16b1:	83 c4 0c             	add    esp,0xc
    16b4:	6a 60                	push   0x60
    16b6:	6a 00                	push   0x0
    16b8:	55                   	push   ebp
    16b9:	e8 fc ff ff ff       	call   16ba <main+0x139a>
    16be:	83 c4 04             	add    esp,0x4
    16c1:	55                   	push   ebp
    16c2:	e8 fc ff ff ff       	call   16c3 <main+0x13a3>
    16c7:	83 c4 10             	add    esp,0x10
    16ca:	83 be 44 00 00 01 00 	cmp    DWORD PTR [esi+0x1000044],0x0
    16d1:	8b 5c 24 10          	mov    ebx,DWORD PTR [esp+0x10]
    16d5:	74 70                	je     1747 <main+0x1427>
    16d7:	8b 44 24 04          	mov    eax,DWORD PTR [esp+0x4]
    16db:	8d 44 06 28          	lea    eax,[esi+eax*1+0x28]
    16df:	8b 4e 10             	mov    ecx,DWORD PTR [esi+0x10]
    16e2:	83 c1 6c             	add    ecx,0x6c
    16e5:	83 ec 04             	sub    esp,0x4
    16e8:	6a 20                	push   0x20
    16ea:	51                   	push   ecx
    16eb:	50                   	push   eax
    16ec:	e8 fc ff ff ff       	call   16ed <main+0x13cd>
    16f1:	83 c4 10             	add    esp,0x10
    16f4:	85 c0                	test   eax,eax
    16f6:	8b 06                	mov    eax,DWORD PTR [esi]
    16f8:	8b 74 24 20          	mov    esi,DWORD PTR [esp+0x20]
    16fc:	8b 7c 24 1c          	mov    edi,DWORD PTR [esp+0x1c]
    1700:	74 75                	je     1777 <main+0x1457>
    1702:	83 ec 08             	sub    esp,0x8
    1705:	50                   	push   eax
    1706:	68 00 00 00 00       	push   0x0
    170b:	eb 73                	jmp    1780 <main+0x1460>
    170d:	83 ec 0c             	sub    esp,0xc
    1710:	ff 74 24 2c          	push   DWORD PTR [esp+0x2c]
    1714:	e8 fc ff ff ff       	call   1715 <main+0x13f5>
    1719:	83 c4 10             	add    esp,0x10
    171c:	89 c6                	mov    esi,eax
    171e:	83 ec 0c             	sub    esp,0xc
    1721:	57                   	push   edi
    1722:	e8 fc ff ff ff       	call   1723 <main+0x1403>
    1727:	83 c4 10             	add    esp,0x10
    172a:	31 c9                	xor    ecx,ecx
    172c:	83 f8 ff             	cmp    eax,0xffffffff
    172f:	0f 94 c1             	sete   cl
    1732:	83 fe ff             	cmp    esi,0xffffffff
    1735:	8d 4c 49 04          	lea    ecx,[ecx+ecx*2+0x4]
    1739:	b8 06 00 00 00       	mov    eax,0x6
    173e:	0f 45 c1             	cmovne eax,ecx
    1741:	8b 5c 24 10          	mov    ebx,DWORD PTR [esp+0x10]
    1745:	eb 73                	jmp    17ba <main+0x149a>
    1747:	8b 46 10             	mov    eax,DWORD PTR [esi+0x10]
    174a:	83 c0 6c             	add    eax,0x6c
    174d:	8b 7c 24 1c          	mov    edi,DWORD PTR [esp+0x1c]
    1751:	57                   	push   edi
    1752:	6a 20                	push   0x20
    1754:	6a 01                	push   0x1
    1756:	50                   	push   eax
    1757:	e8 fc ff ff ff       	call   1758 <main+0x1438>
    175c:	83 c4 10             	add    esp,0x10
    175f:	83 f8 20             	cmp    eax,0x20
    1762:	8b 74 24 20          	mov    esi,DWORD PTR [esp+0x20]
    1766:	0f 85 8c 00 00 00    	jne    17f8 <main+0x14d8>
    176c:	83 ec 0c             	sub    esp,0xc
    176f:	57                   	push   edi
    1770:	e8 fc ff ff ff       	call   1771 <main+0x1451>
    1775:	eb 0e                	jmp    1785 <main+0x1465>
    1777:	83 ec 08             	sub    esp,0x8
    177a:	50                   	push   eax
    177b:	68 00 00 00 00       	push   0x0
    1780:	e8 fc ff ff ff       	call   1781 <main+0x1461>
    1785:	83 c4 10             	add    esp,0x10
    1788:	83 ec 0c             	sub    esp,0xc
    178b:	56                   	push   esi
    178c:	e8 fc ff ff ff       	call   178d <main+0x146d>
    1791:	83 c4 10             	add    esp,0x10
    1794:	89 c6                	mov    esi,eax
    1796:	83 ec 0c             	sub    esp,0xc
    1799:	57                   	push   edi
    179a:	e8 fc ff ff ff       	call   179b <main+0x147b>
    179f:	83 c4 10             	add    esp,0x10
    17a2:	31 c9                	xor    ecx,ecx
    17a4:	83 f8 ff             	cmp    eax,0xffffffff
    17a7:	ba 07 00 00 00       	mov    edx,0x7
    17ac:	0f 45 d1             	cmovne edx,ecx
    17af:	83 fe ff             	cmp    esi,0xffffffff
    17b2:	b8 06 00 00 00       	mov    eax,0x6
    17b7:	0f 45 c2             	cmovne eax,edx
    17ba:	8b 74 24 2c          	mov    esi,DWORD PTR [esp+0x2c]
    17be:	83 ec 08             	sub    esp,0x8
    17c1:	50                   	push   eax
    17c2:	56                   	push   esi
    17c3:	e8 fc ff ff ff       	call   17c4 <main+0x14a4>
    17c8:	83 c4 0c             	add    esp,0xc
    17cb:	53                   	push   ebx
    17cc:	6a 00                	push   0x0
    17ce:	8b 7c 24 20          	mov    edi,DWORD PTR [esp+0x20]
    17d2:	57                   	push   edi
    17d3:	e8 fc ff ff ff       	call   17d4 <main+0x14b4>
    17d8:	83 c4 04             	add    esp,0x4
    17db:	57                   	push   edi
    17dc:	e8 fc ff ff ff       	call   17dd <main+0x14bd>
    17e1:	83 c4 10             	add    esp,0x10
    17e4:	89 f1                	mov    ecx,esi
    17e6:	e8 f5 00 00 00       	call   18e0 <free_global_memory>
    17eb:	c7 44 24 2c 00 00 00 	mov    DWORD PTR [esp+0x2c],0x0
    17f2:	00 
    17f3:	e9 4e ec ff ff       	jmp    446 <main+0x126>
    17f8:	83 ec 0c             	sub    esp,0xc
    17fb:	56                   	push   esi
    17fc:	e8 fc ff ff ff       	call   17fd <main+0x14dd>
    1801:	83 c4 10             	add    esp,0x10
    1804:	89 c6                	mov    esi,eax
    1806:	83 ec 0c             	sub    esp,0xc
    1809:	57                   	push   edi
    180a:	e8 fc ff ff ff       	call   180b <main+0x14eb>
    180f:	83 c4 10             	add    esp,0x10
    1812:	31 c9                	xor    ecx,ecx
    1814:	83 f8 ff             	cmp    eax,0xffffffff
    1817:	0f 94 c1             	sete   cl
    181a:	83 fe ff             	cmp    esi,0xffffffff
    181d:	8d 4c 49 04          	lea    ecx,[ecx+ecx*2+0x4]
    1821:	b8 06 00 00 00       	mov    eax,0x6
    1826:	0f 45 c1             	cmovne eax,ecx
    1829:	eb 8f                	jmp    17ba <main+0x149a>
    182b:	89 f1                	mov    ecx,esi
    182d:	e8 ae 00 00 00       	call   18e0 <free_global_memory>
    1832:	ff 35 00 00 00 00    	push   DWORD PTR ds:0x0
    1838:	6a 01                	push   0x1
    183a:	6a 29                	push   0x29
    183c:	68 00 00 00 00       	push   0x0
    1841:	e9 65 ed ff ff       	jmp    5ab <main+0x28b>
    1846:	89 f1                	mov    ecx,esi
    1848:	e8 93 00 00 00       	call   18e0 <free_global_memory>
    184d:	83 ec 04             	sub    esp,0x4
    1850:	57                   	push   edi
    1851:	68 00 00 00 00       	push   0x0
    1856:	e9 fa eb ff ff       	jmp    455 <main+0x135>
    185b:	83 ec 0c             	sub    esp,0xc
    185e:	55                   	push   ebp
    185f:	e8 fc ff ff ff       	call   1860 <main+0x1540>
    1864:	83 c4 10             	add    esp,0x10
    1867:	89 c6                	mov    esi,eax
    1869:	83 ec 0c             	sub    esp,0xc
    186c:	57                   	push   edi
    186d:	e8 fc ff ff ff       	call   186e <main+0x154e>
    1872:	83 c4 10             	add    esp,0x10
    1875:	31 c9                	xor    ecx,ecx
    1877:	83 f8 ff             	cmp    eax,0xffffffff
    187a:	0f 94 c1             	sete   cl
    187d:	83 fe ff             	cmp    esi,0xffffffff
    1880:	8d 4c 09 05          	lea    ecx,[ecx+ecx*1+0x5]
    1884:	e9 b0 fe ff ff       	jmp    1739 <main+0x1419>
    1889:	83 ec 0c             	sub    esp,0xc
    188c:	55                   	push   ebp
    188d:	e9 82 fe ff ff       	jmp    1714 <main+0x13f4>
    1892:	89 f1                	mov    ecx,esi
    1894:	e8 47 00 00 00       	call   18e0 <free_global_memory>
    1899:	83 ec 04             	sub    esp,0x4
    189c:	ff 77 04             	push   DWORD PTR [edi+0x4]
    189f:	68 00 00 00 00       	push   0x0
    18a4:	e9 ac eb ff ff       	jmp    455 <main+0x135>
    18a9:	83 ec 0c             	sub    esp,0xc
    18ac:	ff 74 24 0c          	push   DWORD PTR [esp+0xc]
    18b0:	e8 fc ff ff ff       	call   18b1 <main+0x1591>
    18b5:	83 c4 04             	add    esp,0x4
    18b8:	56                   	push   esi
    18b9:	e8 fc ff ff ff       	call   18ba <main+0x159a>
    18be:	83 c4 10             	add    esp,0x10
    18c1:	ff 35 00 00 00 00    	push   DWORD PTR ds:0x0
    18c7:	6a 01                	push   0x1
    18c9:	6a 1c                	push   0x1c
    18cb:	68 00 00 00 00       	push   0x0
    18d0:	e8 fc ff ff ff       	call   18d1 <main+0x15b1>
    18d5:	83 c4 04             	add    esp,0x4
    18d8:	6a 01                	push   0x1
    18da:	e8 fc ff ff ff       	call   18db <main+0x15bb>
    18df:	90                   	nop

000018e0 <free_global_memory>:
    18e0:	56                   	push   esi
    18e1:	83 ec 08             	sub    esp,0x8
    18e4:	89 ce                	mov    esi,ecx
    18e6:	8b 41 08             	mov    eax,DWORD PTR [ecx+0x8]
    18e9:	85 c0                	test   eax,eax
    18eb:	74 16                	je     1903 <free_global_memory+0x23>
    18ed:	8b 4e 0c             	mov    ecx,DWORD PTR [esi+0xc]
    18f0:	85 c9                	test   ecx,ecx
    18f2:	74 0f                	je     1903 <free_global_memory+0x23>
    18f4:	83 ec 04             	sub    esp,0x4
    18f7:	51                   	push   ecx
    18f8:	6a 00                	push   0x0
    18fa:	50                   	push   eax
    18fb:	e8 fc ff ff ff       	call   18fc <free_global_memory+0x1c>
    1900:	83 c4 10             	add    esp,0x10
    1903:	8b 46 10             	mov    eax,DWORD PTR [esi+0x10]
    1906:	85 c0                	test   eax,eax
    1908:	74 16                	je     1920 <free_global_memory+0x40>
    190a:	8b 4e 14             	mov    ecx,DWORD PTR [esi+0x14]
    190d:	85 c9                	test   ecx,ecx
    190f:	74 0f                	je     1920 <free_global_memory+0x40>
    1911:	83 ec 04             	sub    esp,0x4
    1914:	51                   	push   ecx
    1915:	6a 00                	push   0x0
    1917:	50                   	push   eax
    1918:	e8 fc ff ff ff       	call   1919 <free_global_memory+0x39>
    191d:	83 c4 10             	add    esp,0x10
    1920:	8b 46 18             	mov    eax,DWORD PTR [esi+0x18]
    1923:	85 c0                	test   eax,eax
    1925:	74 16                	je     193d <free_global_memory+0x5d>
    1927:	8b 4e 1c             	mov    ecx,DWORD PTR [esi+0x1c]
    192a:	85 c9                	test   ecx,ecx
    192c:	74 0f                	je     193d <free_global_memory+0x5d>
    192e:	83 ec 04             	sub    esp,0x4
    1931:	51                   	push   ecx
    1932:	6a 00                	push   0x0
    1934:	50                   	push   eax
    1935:	e8 fc ff ff ff       	call   1936 <free_global_memory+0x56>
    193a:	83 c4 10             	add    esp,0x10
    193d:	8b 46 20             	mov    eax,DWORD PTR [esi+0x20]
    1940:	85 c0                	test   eax,eax
    1942:	74 16                	je     195a <free_global_memory+0x7a>
    1944:	8b 4e 24             	mov    ecx,DWORD PTR [esi+0x24]
    1947:	85 c9                	test   ecx,ecx
    1949:	74 0f                	je     195a <free_global_memory+0x7a>
    194b:	83 ec 04             	sub    esp,0x4
    194e:	51                   	push   ecx
    194f:	6a 00                	push   0x0
    1951:	50                   	push   eax
    1952:	e8 fc ff ff ff       	call   1953 <free_global_memory+0x73>
    1957:	83 c4 10             	add    esp,0x10
    195a:	83 ec 0c             	sub    esp,0xc
    195d:	ff 76 08             	push   DWORD PTR [esi+0x8]
    1960:	e8 fc ff ff ff       	call   1961 <free_global_memory+0x81>
    1965:	83 c4 04             	add    esp,0x4
    1968:	ff 76 20             	push   DWORD PTR [esi+0x20]
    196b:	e8 fc ff ff ff       	call   196c <free_global_memory+0x8c>
    1970:	83 c4 04             	add    esp,0x4
    1973:	ff 76 10             	push   DWORD PTR [esi+0x10]
    1976:	e8 fc ff ff ff       	call   1977 <free_global_memory+0x97>
    197b:	83 c4 04             	add    esp,0x4
    197e:	ff 76 18             	push   DWORD PTR [esi+0x18]
    1981:	e8 fc ff ff ff       	call   1982 <free_global_memory+0xa2>
    1986:	83 c4 0c             	add    esp,0xc
    1989:	68 4c 00 00 01       	push   0x100004c
    198e:	6a 00                	push   0x0
    1990:	56                   	push   esi
    1991:	e8 fc ff ff ff       	call   1992 <free_global_memory+0xb2>
    1996:	83 c4 04             	add    esp,0x4
    1999:	56                   	push   esi
    199a:	e8 fc ff ff ff       	call   199b <free_global_memory+0xbb>
    199f:	83 c4 18             	add    esp,0x18
    19a2:	5e                   	pop    esi
    19a3:	c3                   	ret    

Дизассемблирование раздела .rodata:

00000000 <OPERATION_NAME-0x74>:
   0:	17                   	pop    ss
   1:	00 00                	add    BYTE PTR [eax],al
   3:	00 41 00             	add    BYTE PTR [ecx+0x0],al
   6:	00 00                	add    BYTE PTR [eax],al
   8:	5d                   	pop    ebp
   9:	00 00                	add    BYTE PTR [eax],al
   b:	00 6a 00             	add    BYTE PTR [edx+0x0],ch
   e:	00 00                	add    BYTE PTR [eax],al
  10:	76 00                	jbe    12 <OPERATION_NAME-0x62>
  12:	00 00                	add    BYTE PTR [eax],al
  14:	83 00 00             	add    DWORD PTR [eax],0x0
  17:	00 8f 00 00 00 a0    	add    BYTE PTR [edi-0x60000000],cl
  1d:	00 00                	add    BYTE PTR [eax],al
  1f:	00 b8 00 00 00 3f    	add    BYTE PTR [eax+0x3f000000],bh
  25:	09 00                	or     DWORD PTR [eax],eax
  27:	00 12                	add    BYTE PTR [edx],dl
  29:	0b 00                	or     eax,DWORD PTR [eax]
  2b:	00 ec                	add    ah,ch
  2d:	0a 00                	or     al,BYTE PTR [eax]
  2f:	00 ff                	add    bh,bh
  31:	0a 00                	or     al,BYTE PTR [eax]
  33:	00 df                	add    bh,bl
  35:	0a 00                	or     al,BYTE PTR [eax]
  37:	00 ad 0c 00 00 3c    	add    BYTE PTR [ebp+0x3c00000c],ch
  3d:	0d 00 00 08 0d       	or     eax,0xd080000
  42:	00 00                	add    BYTE PTR [eax],al
  44:	22 0d 00 00 ea 0c    	and    cl,BYTE PTR ds:0xcea0000
  4a:	00 00                	add    BYTE PTR [eax],al
  4c:	a3 12 00 00 29       	mov    ds:0x29000012,eax
  51:	13 00                	adc    eax,DWORD PTR [eax]
  53:	00 f1                	add    cl,dh
  55:	12 00                	adc    al,BYTE PTR [eax]
  57:	00 05 13 00 00 dd    	add    BYTE PTR ds:0xdd000013,al
  5d:	12 00                	adc    al,BYTE PTR [eax]
  5f:	00 80 10 00 00 ed    	add    BYTE PTR [eax-0x12fffff0],al
  65:	10 00                	adc    BYTE PTR [eax],al
  67:	00 9b 10 00 00 b9    	add    BYTE PTR [ebx-0x46fffff0],bl
  6d:	10 00                	adc    BYTE PTR [eax],al
  6f:	00 07                	add    BYTE PTR [edi],al
  71:	10 00                	adc    BYTE PTR [eax],al
	...

00000074 <OPERATION_NAME>:
	...

0000007c <ALGORITM_NAME>:
	...

00000090 <CHAR_SIZE_DATA>:
	...

000000a0 <INT_SIZE_DATA>:
  a0:	00 04 00             	add    BYTE PTR [eax+eax*1],al
  a3:	00 00                	add    BYTE PTR [eax],al
  a5:	00 10                	add    BYTE PTR [eax],dl
  a7:	00 00                	add    BYTE PTR [eax],al
  a9:	00 00                	add    BYTE PTR [eax],al
  ab:	40                   	inc    eax

Дизассемблирование раздела .rodata.cst4:

00000000 <.LCPI3_0>:
   0:	00 00                	add    BYTE PTR [eax],al
   2:	c8                   	.byte 0xc8
   3:	42                   	inc    edx

Дизассемблирование раздела .rodata.cst8:

00000000 <.LCPI3_1>:
   0:	9a 99 99 99 99 99 b9 	call   0xb999:0x99999999
   7:	3f                   	aas    

Дизассемблирование раздела .rodata.str1.1:

00000000 <.L.str>:
   0:	72 62                	jb     64 <.L.str.4+0x16>
	...

00000003 <.L.str.1>:
   3:	77 62                	ja     67 <.L.str.4+0x19>
	...

00000006 <.L.str.2>:
   6:	50                   	push   eax
   7:	6c                   	ins    BYTE PTR es:[edi],dx
   8:	65 78 75             	gs js  80 <.L.str.5+0x10>
   b:	73 54                	jae    61 <.L.str.4+0x13>
   d:	43                   	inc    ebx
   e:	4c                   	dec    esp
   f:	20 43 6f             	and    BYTE PTR [ebx+0x6f],al
  12:	6e                   	outs   dx,BYTE PTR ds:[esi]
  13:	73 6f                	jae    84 <.L.str.5+0x14>
  15:	6c                   	ins    BYTE PTR es:[edi],dx
  16:	65 20 43 72          	and    BYTE PTR gs:[ebx+0x72],al
  1a:	79 70                	jns    8c <.L.str.5+0x1c>
  1c:	74 65                	je     83 <.L.str.5+0x13>
  1e:	72 20                	jb     40 <.L.str.3+0xe>
  20:	35 2e 31 30 20       	xor    eax,0x2030312e
  25:	32 33                	xor    dh,BYTE PTR [ebx]
  27:	4a                   	dec    edx
  28:	55                   	push   ebp
  29:	4c                   	dec    esp
  2a:	32 34 20             	xor    dh,BYTE PTR [eax+eiz*1]
  2d:	5b                   	pop    ebx
  2e:	45                   	inc    ebp
  2f:	4e                   	dec    esi
  30:	5d                   	pop    ebp
	...

00000032 <.L.str.3>:
  32:	5b                   	pop    ebx
  33:	23 5d 20             	and    ebx,DWORD PTR [ebp+0x20]
  36:	25 73 20 66 69       	and    eax,0x69662073
  3b:	6c                   	ins    BYTE PTR es:[edi],dx
  3c:	65 20 22             	and    BYTE PTR gs:[edx],ah
  3f:	25 73 22 20 63       	and    eax,0x63202273
  44:	6f                   	outs   dx,DWORD PTR ds:[esi]
  45:	6d                   	ins    DWORD PTR es:[edi],dx
  46:	70 6c                	jo     b4 <.L.str.6+0x22>
  48:	65 74 65             	gs je  b0 <.L.str.6+0x1e>
  4b:	21 0a                	and    DWORD PTR [edx],ecx
	...

0000004e <.L.str.4>:
  4e:	5b                   	pop    ebx
  4f:	21 5d 20             	and    DWORD PTR [ebp+0x20],ebx
  52:	46                   	inc    esi
  53:	69 6c 65 20 66 6f 72 	imul   ebp,DWORD PTR [ebp+eiz*2+0x20],0x20726f66
  5a:	20 
  5b:	25 73 20 22 25       	and    eax,0x25222073
  60:	73 22                	jae    84 <.L.str.5+0x14>
  62:	20 6e 6f             	and    BYTE PTR [esi+0x6f],ch
  65:	74 20                	je     87 <.L.str.5+0x17>
  67:	6f                   	outs   dx,DWORD PTR ds:[esi]
  68:	70 65                	jo     cf <.L.str.7+0xf>
  6a:	6e                   	outs   dx,BYTE PTR ds:[esi]
  6b:	65 64 21 0a          	gs and DWORD PTR fs:[edx],ecx
	...

00000070 <.L.str.5>:
  70:	5b                   	pop    ebx
  71:	21 5d 20             	and    DWORD PTR [ebp+0x20],ebx
  74:	4f                   	dec    edi
  75:	75 74                	jne    eb <.L.str.8+0xb>
  77:	70 75                	jo     ee <.L.str.8+0xe>
  79:	74 20                	je     9b <.L.str.6+0x9>
  7b:	66 69 6c 65 20 22 25 	imul   bp,WORD PTR [ebp+eiz*2+0x20],0x2522
  82:	73 22                	jae    a6 <.L.str.6+0x14>
  84:	20 6e 6f             	and    BYTE PTR [esi+0x6f],ch
  87:	74 20                	je     a9 <.L.str.6+0x17>
  89:	6f                   	outs   dx,DWORD PTR ds:[esi]
  8a:	70 65                	jo     f1 <.L.str.8+0x11>
  8c:	6e                   	outs   dx,BYTE PTR ds:[esi]
  8d:	65 64 21 0a          	gs and DWORD PTR fs:[edx],ecx
	...

00000092 <.L.str.6>:
  92:	5b                   	pop    ebx
  93:	21 5d 20             	and    DWORD PTR [ebp+0x20],ebx
  96:	53                   	push   ebx
  97:	69 7a 65 20 6f 66 20 	imul   edi,DWORD PTR [edx+0x65],0x20666f20
  9e:	69 6e 70 75 74 20 66 	imul   ebp,DWORD PTR [esi+0x70],0x66207475
  a5:	69 6c 65 20 22 25 73 	imul   ebp,DWORD PTR [ebp+eiz*2+0x20],0x22732522
  ac:	22 
  ad:	20 30                	and    BYTE PTR [eax],dh
  af:	20 6f 72             	and    BYTE PTR [edi+0x72],ch
  b2:	20 6d 6f             	and    BYTE PTR [ebp+0x6f],ch
  b5:	72 65                	jb     11c <.L.str.9+0x1b>
  b7:	20 32                	and    BYTE PTR [edx],dh
  b9:	20 47 69             	and    BYTE PTR [edi+0x69],al
  bc:	42                   	inc    edx
  bd:	21 0a                	and    DWORD PTR [edx],ecx
	...

000000c0 <.L.str.7>:
  c0:	5b                   	pop    ebx
  c1:	21 5d 20             	and    DWORD PTR [ebp+0x20],ebx
  c4:	45                   	inc    ebp
  c5:	72 72                	jb     139 <.L.str.10+0x19>
  c7:	6f                   	outs   dx,DWORD PTR ds:[esi]
  c8:	72 20                	jb     ea <.L.str.8+0xa>
  ca:	77 72                	ja     13e <.L.str.10+0x1e>
  cc:	69 74 65 20 69 6e 20 	imul   esi,DWORD PTR [ebp+eiz*2+0x20],0x66206e69
  d3:	66 
  d4:	69 6c 65 20 22 25 73 	imul   ebp,DWORD PTR [ebp+eiz*2+0x20],0x22732522
  db:	22 
  dc:	20 21                	and    BYTE PTR [ecx],ah
  de:	0a 00                	or     al,BYTE PTR [eax]

000000e0 <.L.str.8>:
  e0:	5b                   	pop    ebx
  e1:	21 5d 20             	and    DWORD PTR [ebp+0x20],ebx
  e4:	45                   	inc    ebp
  e5:	72 72                	jb     159 <.L.str.11+0x19>
  e7:	6f                   	outs   dx,DWORD PTR ds:[esi]
  e8:	72 20                	jb     10a <.L.str.9+0x9>
  ea:	72 65                	jb     151 <.L.str.11+0x11>
  ec:	61                   	popa   
  ed:	64 20 66 6f          	and    BYTE PTR fs:[esi+0x6f],ah
  f1:	72 6d                	jb     160 <.L.str.11+0x20>
  f3:	20 66 69             	and    BYTE PTR [esi+0x69],ah
  f6:	6c                   	ins    BYTE PTR es:[edi],dx
  f7:	65 20 22             	and    BYTE PTR gs:[edx],ah
  fa:	25 73 22 20 21       	and    eax,0x21202273
  ff:	0a 00                	or     al,BYTE PTR [eax]

00000101 <.L.str.9>:
 101:	5b                   	pop    ebx
 102:	21 5d 20             	and    DWORD PTR [ebp+0x20],ebx
 105:	45                   	inc    ebp
 106:	72 72                	jb     17a <.L.str.12+0xc>
 108:	6f                   	outs   dx,DWORD PTR ds:[esi]
 109:	72 20                	jb     12b <.L.str.10+0xb>
 10b:	63 6c 6f 73          	arpl   WORD PTR [edi+ebp*2+0x73],bp
 10f:	65 20 69 6e          	and    BYTE PTR gs:[ecx+0x6e],ch
 113:	70 75                	jo     18a <.L.str.12+0x1c>
 115:	74 20                	je     137 <.L.str.10+0x17>
 117:	73 74                	jae    18d <.L.str.12+0x1f>
 119:	72 65                	jb     180 <.L.str.12+0x12>
 11b:	61                   	popa   
 11c:	6d                   	ins    DWORD PTR es:[edi],dx
 11d:	21 0a                	and    DWORD PTR [edx],ecx
	...

00000120 <.L.str.10>:
 120:	5b                   	pop    ebx
 121:	21 5d 20             	and    DWORD PTR [ebp+0x20],ebx
 124:	45                   	inc    ebp
 125:	72 72                	jb     199 <.L.str.13+0x3>
 127:	6f                   	outs   dx,DWORD PTR ds:[esi]
 128:	72 20                	jb     14a <.L.str.11+0xa>
 12a:	63 6c 6f 73          	arpl   WORD PTR [edi+ebp*2+0x73],bp
 12e:	65 20 6f 75          	and    BYTE PTR gs:[edi+0x75],ch
 132:	74 70                	je     1a4 <.L.str.13+0xe>
 134:	75 74                	jne    1aa <.L.str.13+0x14>
 136:	20 73 74             	and    BYTE PTR [ebx+0x74],dh
 139:	72 65                	jb     1a0 <.L.str.13+0xa>
 13b:	61                   	popa   
 13c:	6d                   	ins    DWORD PTR es:[edi],dx
 13d:	21 0a                	and    DWORD PTR [edx],ecx
	...

00000140 <.L.str.11>:
 140:	5b                   	pop    ebx
 141:	21 5d 20             	and    DWORD PTR [ebp+0x20],ebx
 144:	53                   	push   ebx
 145:	69 7a 65 20 6f 66 20 	imul   edi,DWORD PTR [edx+0x65],0x20666f20
 14c:	66 69 6c 65 20 66 6f 	imul   bp,WORD PTR [ebp+eiz*2+0x20],0x6f66
 153:	72 20                	jb     175 <.L.str.12+0x7>
 155:	64 65 63 72 79       	fs arpl WORD PTR gs:[edx+0x79],si
 15a:	70 74                	jo     1d0 <.L.str.14+0x16>
 15c:	20 22                	and    BYTE PTR [edx],ah
 15e:	25 73 22 20 69       	and    eax,0x69202273
 163:	6e                   	outs   dx,BYTE PTR ds:[esi]
 164:	63 6f 72             	arpl   WORD PTR [edi+0x72],bp
 167:	72 65                	jb     1ce <.L.str.14+0x14>
 169:	63 74 21 0a          	arpl   WORD PTR [ecx+eiz*1+0xa],si
	...

0000016e <.L.str.12>:
 16e:	5b                   	pop    ebx
 16f:	58                   	pop    eax
 170:	5d                   	pop    ebp
 171:	20 4e 6f             	and    BYTE PTR [esi+0x6f],cl
 174:	74 20                	je     196 <.L.str.13>
 176:	61                   	popa   
 177:	72 65                	jb     1de <.L.str.14+0x24>
 179:	20 73 65             	and    BYTE PTR [ebx+0x65],dh
 17c:	74 20                	je     19e <.L.str.13+0x8>
 17e:	45                   	inc    ebp
 17f:	43                   	inc    ebx
 180:	48                   	dec    eax
 181:	4f                   	dec    edi
 182:	20 66 6c             	and    BYTE PTR [esi+0x6c],ah
 185:	61                   	popa   
 186:	67 20 66 6f          	and    BYTE PTR [bp+0x6f],ah
 18a:	72 20                	jb     1ac <.L.str.13+0x16>
 18c:	54                   	push   esp
 18d:	65 72 6d             	gs jb  1fd <.L.str.16+0x6>
 190:	69 6f 73 21 0a 00  	imul   ebp,DWORD PTR [edi+0x73],0x5b000a21

00000196 <.L.str.13>:
 196:	5b                   	pop    ebx
 197:	24 5d                	and    al,0x5d
 199:	20 45 6e             	and    BYTE PTR [ebp+0x6e],al
 19c:	74 65                	je     203 <.L.str.16+0xc>
 19e:	72 20                	jb     1c0 <.L.str.14+0x6>
 1a0:	70 61                	jo     203 <.L.str.16+0xc>
 1a2:	73 73                	jae    217 <.L.str.17+0x3>
 1a4:	77 6f                	ja     215 <.L.str.17+0x1>
 1a6:	72 64                	jb     20c <.L.str.16+0x15>
 1a8:	20 6f 72             	and    BYTE PTR [edi+0x72],ch
 1ab:	20 6e 61             	and    BYTE PTR [esi+0x61],ch
 1ae:	6d                   	ins    DWORD PTR es:[edi],dx
 1af:	65 20 6b 65          	and    BYTE PTR gs:[ebx+0x65],ch
 1b3:	79 66                	jns    21b <.L.str.17+0x7>
 1b5:	69 6c 65 3a 00   	imul   ebp,DWORD PTR [ebp+eiz*2+0x3a],0x5d585b00
 1bc:	 

000001ba <.L.str.14>:
 1ba:	5b                   	pop    ebx
 1bb:	58                   	pop    eax
 1bc:	5d                   	pop    ebp
 1bd:	20 50 61             	and    BYTE PTR [eax+0x61],dl
 1c0:	73 73                	jae    235 <.L.str.17+0x21>
 1c2:	77 6f                	ja     233 <.L.str.17+0x1f>
 1c4:	72 64                	jb     22a <.L.str.17+0x16>
 1c6:	20 6e 6f             	and    BYTE PTR [esi+0x6f],ch
 1c9:	74 20                	je     1eb <.L.str.15+0x7>
 1cb:	72 65                	jb     232 <.L.str.17+0x1e>
 1cd:	61                   	popa   
 1ce:	64 20 66 72          	and    BYTE PTR fs:[esi+0x72],ah
 1d2:	6f                   	outs   dx,DWORD PTR ds:[esi]
 1d3:	6d                   	ins    DWORD PTR es:[edi],dx
 1d4:	20 63 6f             	and    BYTE PTR [ebx+0x6f],ah
 1d7:	6d                   	ins    DWORD PTR es:[edi],dx
 1d8:	6d                   	ins    DWORD PTR es:[edi],dx
 1d9:	61                   	popa   
 1da:	6e                   	outs   dx,BYTE PTR ds:[esi]
 1db:	64 20 6c 69 6e       	and    BYTE PTR fs:[ecx+ebp*2+0x6e],ch
 1e0:	65 21 0a             	and    DWORD PTR gs:[edx],ecx
	...

000001e4 <.L.str.15>:
 1e4:	5b                   	pop    ebx
 1e5:	58                   	pop    eax
 1e6:	5d                   	pop    ebp
 1e7:	20 4e 6f             	and    BYTE PTR [esi+0x6f],cl
 1ea:	74 20                	je     20c <.L.str.16+0x15>
 1ec:	74 65                	je     253 <.L.str.18+0x11>
 1ee:	72 6d                	jb     25d <.L.str.18+0x1b>
 1f0:	69 6e 61 6c 21 0a 00 	imul   ebp,DWORD PTR [esi+0x61],0xa216c

000001f7 <.L.str.16>:
 1f7:	5b                   	pop    ebx
 1f8:	21 5d 20             	and    DWORD PTR [ebp+0x20],ebx
 1fb:	43                   	inc    ebx
 1fc:	61                   	popa   
 1fd:	6e                   	outs   dx,BYTE PTR ds:[esi]
 1fe:	6e                   	outs   dx,BYTE PTR ds:[esi]
 1ff:	6f                   	outs   dx,DWORD PTR ds:[esi]
 200:	74 20                	je     222 <.L.str.17+0xe>
 202:	61                   	popa   
 203:	6c                   	ins    BYTE PTR es:[edi],dx
 204:	6c                   	ins    BYTE PTR es:[edi],dx
 205:	6f                   	outs   dx,DWORD PTR ds:[esi]
 206:	63 61 74             	arpl   WORD PTR [ecx+0x74],sp
 209:	65 20 6d 65          	and    BYTE PTR gs:[ebp+0x65],ch
 20d:	6d                   	ins    DWORD PTR es:[edi],dx
 20e:	6f                   	outs   dx,DWORD PTR ds:[esi]
 20f:	72 79                	jb     28a <.L.str.26+0x1>
 211:	21 0a                	and    DWORD PTR [edx],ecx
	...

00000214 <.L.str.17>:
 214:	5b                   	pop    ebx
 215:	21 5d 20             	and    DWORD PTR [ebp+0x20],ebx
 218:	57                   	push   edi
 219:	61                   	popa   
 21a:	72 6e                	jb     28a <.L.str.26+0x1>
 21c:	69 6e 67 3a 20 61 72 	imul   ebp,DWORD PTR [esi+0x67],0x7261203a
 223:	67 75 6d             	addr16 jne 293 <.L.str.26+0xa>
 226:	65 6e                	outs   dx,BYTE PTR gs:[esi]
 228:	74 20                	je     24a <.L.str.18+0x8>
 22a:	22 25 64 22 20 6c    	and    ah,BYTE PTR ds:0x6c202264
 230:	65 6e                	outs   dx,BYTE PTR gs:[esi]
 232:	67 74 68             	addr16 je 29d <.L.str.26+0x14>
 235:	20 6d 6f             	and    BYTE PTR [ebp+0x6f],ch
 238:	72 65                	jb     29f <.L.str.26+0x16>
 23a:	20 22                	and    BYTE PTR [edx],ah
 23c:	25 64 22 21 0a       	and    eax,0xa212264
	...

00000242 <.L.str.18>:
 242:	5b                   	pop    ebx
 243:	21 5d 20             	and    DWORD PTR [ebp+0x20],ebx
 246:	45                   	inc    ebp
 247:	72 72                	jb     2bb <.L.str.26+0x32>
 249:	6f                   	outs   dx,DWORD PTR ds:[esi]
 24a:	72 3a                	jb     286 <.L.str.20+0x4>
 24c:	20 63 6f             	and    BYTE PTR [ebx+0x6f],ah
 24f:	75 6e                	jne    2bf <.L.str.26+0x36>
 251:	74 20                	je     273 <.L.str.18+0x31>
 253:	61                   	popa   
 254:	72 67                	jb     2bd <.L.str.26+0x34>
 256:	75 6d                	jne    2c5 <.L.str.26+0x3c>
 258:	65 6e                	outs   dx,BYTE PTR gs:[esi]
 25a:	74 73                	je     2cf <.L.str.26+0x46>
 25c:	20 25 64 3b 20 6e    	and    BYTE PTR ds:0x6e203b64,ah
 262:	65 63 65 73          	arpl   WORD PTR gs:[ebp+0x73],sp
 266:	73 61                	jae    2c9 <.L.str.26+0x40>
 268:	72 79                	jb     2e3 <.L.str.27+0x8>
 26a:	20 74 6f 20          	and    BYTE PTR [edi+ebp*2+0x20],dh
 26e:	32 20                	xor    ah,BYTE PTR [eax]
 270:	64 6f                	outs   dx,DWORD PTR fs:[esi]
 272:	20 37                	and    BYTE PTR [edi],dh
 274:	20 73 74             	and    BYTE PTR [ebx+0x74],dh
 277:	72 69                	jb     2e2 <.L.str.27+0x7>
 279:	6e                   	outs   dx,BYTE PTR ds:[esi]
 27a:	67 73 21             	addr16 jae 29e <.L.str.26+0x15>
 27d:	0a 00                	or     al,BYTE PTR [eax]

0000027f <.L.str.19>:
 27f:	2d 68 00         	sub    eax,0x2d2d0068

00000282 <.L.str.20>:
 282:	2d 2d 68 65 6c       	sub    eax,0x6c65682d
 287:	70 00                	jo     289 <.L.str.26>

00000289 <.L.str.26>:
 289:	45                   	inc    ebp
 28a:	6e                   	outs   dx,BYTE PTR ds:[esi]
 28b:	74 65                	je     2f2 <.L.str.27+0x17>
 28d:	72 3a                	jb     2c9 <.L.str.26+0x40>
 28f:	20 25 73 20 5b 61    	and    BYTE PTR ds:0x615b2073,ah
 295:	6c                   	ins    BYTE PTR es:[edi],dx
 296:	67 6f                	outs   dx,DWORD PTR ds:[si]
 298:	72 69                	jb     303 <.L.str.27+0x28>
 29a:	74 6d                	je     309 <.L.str.27+0x2e>
 29c:	5d                   	pop    ebp
 29d:	20 5b 6f             	and    BYTE PTR [ebx+0x6f],bl
 2a0:	70 65                	jo     307 <.L.str.27+0x2c>
 2a2:	72 61                	jb     305 <.L.str.27+0x2a>
 2a4:	74 69                	je     30f <.L.str.27+0x34>
 2a6:	6f                   	outs   dx,DWORD PTR ds:[esi]
 2a7:	6e                   	outs   dx,BYTE PTR ds:[esi]
 2a8:	5d                   	pop    ebp
 2a9:	20 5b 6b             	and    BYTE PTR [ebx+0x6b],bl
 2ac:	65 79 20             	gs jns 2cf <.L.str.26+0x46>
 2af:	6c                   	ins    BYTE PTR es:[edi],dx
 2b0:	65 6e                	outs   dx,BYTE PTR gs:[esi]
 2b2:	67 74 68             	addr16 je 31d <.L.str.29+0x9>
 2b5:	5d                   	pop    ebp
 2b6:	20 5b 69             	and    BYTE PTR [ebx+0x69],bl
 2b9:	6e                   	outs   dx,BYTE PTR ds:[esi]
 2ba:	70 75                	jo     331 <.L.str.33>
 2bc:	74 20                	je     2de <.L.str.27+0x3>
 2be:	66 69 6c 65 6e 61 6d 	imul   bp,WORD PTR [ebp+eiz*2+0x6e],0x6d61
 2c5:	65 5d                	gs pop ebp
 2c7:	20 5b 6f             	and    BYTE PTR [ebx+0x6f],bl
 2ca:	75 74                	jne    340 <.L.str.35+0x6>
 2cc:	70 75                	jo     343 <.L.str.35+0x9>
 2ce:	74 20                	je     2f0 <.L.str.27+0x15>
 2d0:	66 69 6c 65 6e 61 6d 	imul   bp,WORD PTR [ebp+eiz*2+0x6e],0x6d61
 2d7:	65 5d                	gs pop ebp
 2d9:	0a 00                	or     al,BYTE PTR [eax]

000002db <.L.str.27>:
 2db:	5b                   	pop    ebx
 2dc:	21 5d 20             	and    DWORD PTR [ebp+0x20],ebx
 2df:	49                   	dec    ecx
 2e0:	6e                   	outs   dx,BYTE PTR ds:[esi]
 2e1:	63 6f 72             	arpl   WORD PTR [edi+0x72],bp
 2e4:	72 65                	jb     34b <.L.str.37+0x4>
 2e6:	63 74 20 70          	arpl   WORD PTR [eax+eiz*1+0x70],si
 2ea:	61                   	popa   
 2eb:	72 61                	jb     34e <.L.str.37+0x7>
 2ed:	6d                   	ins    DWORD PTR es:[edi],dx
 2ee:	65 74 65             	gs je  356 <.L.str.38+0x5>
 2f1:	72 20                	jb     313 <.L.str.28+0x2>
 2f3:	22 25 73 22 21 20    	and    ah,BYTE PTR ds:0x20212273
 2f9:	4f                   	dec    edi
 2fa:	6e                   	outs   dx,BYTE PTR ds:[esi]
 2fb:	6c                   	ins    BYTE PTR es:[edi],dx
 2fc:	79 20                	jns    31e <.L.str.29+0xa>
 2fe:	22 2d 68 22 20 6f    	and    ch,BYTE PTR ds:0x6f202268
 304:	72 20                	jb     326 <.L.str.31+0x4>
 306:	22 2d 2d 68 65 6c    	and    ch,BYTE PTR ds:0x6c65682d
 30c:	70 22                	jo     330 <.L.str.32+0x2>
 30e:	2e 0a 00             	or     al,BYTE PTR cs:[eax]

00000311 <.L.str.28>:
 311:	2d 62 00         	sub    eax,0x2d2d0062

00000314 <.L.str.29>:
 314:	2d 2d 62 6c 6f       	sub    eax,0x6f6c622d
 319:	77 66                	ja     381 <.L.str.41+0x2>
 31b:	69 73 68 00    	imul   esi,DWORD PTR [ebx+0x68],0x742d00

0000031f <.L.str.30>:
 31f:	2d 74 00         	sub    eax,0x2d2d0074

00000322 <.L.str.31>:
 322:	2d 2d 74 68 72       	sub    eax,0x7268742d
 327:	65 65 66 69 73 68 00 	gs imul si,WORD PTR gs:[ebx+0x68],0x2d00
 32e:	 

0000032e <.L.str.32>:
 32e:	2d 72 00         	sub    eax,0x2d2d0072

00000331 <.L.str.33>:
 331:	2d 2d 61 65 73       	sub    eax,0x7365612d
	...

00000337 <.L.str.34>:
 337:	2d 73 00         	sub    eax,0x2d2d0073

0000033a <.L.str.35>:
 33a:	2d 2d 73 65 72       	sub    eax,0x7265732d
 33f:	70 65                	jo     3a6 <.L.str.43+0x1a>
 341:	6e                   	outs   dx,BYTE PTR ds:[esi]
 342:	74 00                	je     344 <.L.str.36>

00000344 <.L.str.36>:
 344:	2d 77 00         	sub    eax,0x2d2d0077

00000347 <.L.str.37>:
 347:	2d 2d 74 77 6f       	sub    eax,0x6f77742d
 34c:	66 69 73 68 00     	imul   si,WORD PTR [ebx+0x68],0x5b00

00000351 <.L.str.38>:
 351:	5b                   	pop    ebx
 352:	21 5d 20             	and    DWORD PTR [ebp+0x20],ebx
 355:	4e                   	dec    esi
 356:	61                   	popa   
 357:	6d                   	ins    DWORD PTR es:[edi],dx
 358:	65 20 63 69          	and    BYTE PTR gs:[ebx+0x69],ah
 35c:	70 68                	jo     3c6 <.L.str.49+0x3>
 35e:	65 72 20             	gs jb  381 <.L.str.41+0x2>
 361:	22 25 73 22 20 69    	and    ah,BYTE PTR ds:0x69202273
 367:	6e                   	outs   dx,BYTE PTR ds:[esi]
 368:	63 6f 72             	arpl   WORD PTR [edi+0x72],bp
 36b:	72 65                	jb     3d2 <.L.str.49+0xf>
 36d:	63 74 21 0a          	arpl   WORD PTR [ecx+eiz*1+0xa],si
	...

00000372 <.L.str.39>:
 372:	2d 65 00         	sub    eax,0x2d2d0065

00000375 <.L.str.40>:
 375:	2d 2d 65 6e 63       	sub    eax,0x636e652d
 37a:	72 79                	jb     3f5 <.L.str.52+0x5>
 37c:	70 74                	jo     3f2 <.L.str.52+0x2>
	...

0000037f <.L.str.41>:
 37f:	2d 64 00         	sub    eax,0x2d2d0064

00000382 <.L.str.42>:
 382:	2d 2d 64 65 63       	sub    eax,0x6365642d
 387:	72 79                	jb     402 <.L.str.52+0x12>
 389:	70 74                	jo     3ff <.L.str.52+0xf>
	...

0000038c <.L.str.43>:
 38c:	5b                   	pop    ebx
 38d:	21 5d 20             	and    DWORD PTR [ebp+0x20],ebx
 390:	4f                   	dec    edi
 391:	70 65                	jo     3f8 <.L.str.52+0x8>
 393:	72 61                	jb     3f6 <.L.str.52+0x6>
 395:	74 69                	je     400 <.L.str.52+0x10>
 397:	6f                   	outs   dx,DWORD PTR ds:[esi]
 398:	6e                   	outs   dx,BYTE PTR ds:[esi]
 399:	20 22                	and    BYTE PTR [edx],ah
 39b:	25 73 22 20 69       	and    eax,0x69202273
 3a0:	6e                   	outs   dx,BYTE PTR ds:[esi]
 3a1:	63 6f 72             	arpl   WORD PTR [edi+0x72],bp
 3a4:	72 65                	jb     40b <.L.str.52+0x1b>
 3a6:	63 74 21 0a          	arpl   WORD PTR [ecx+eiz*1+0xa],si
	...

000003ab <.L.str.44>:
 3ab:	2d 61 00         	sub    eax,0x2d2d0061

000003ae <.L.str.45>:
 3ae:	2d 2d 31 32 38       	sub    eax,0x3832312d
	...

000003b4 <.L.str.46>:
 3b4:	2d 2d 31 39 32       	sub    eax,0x3239312d
	...

000003ba <.L.str.47>:
 3ba:	2d 63 00         	sub    eax,0x2d2d0063

000003bd <.L.str.48>:
 3bd:	2d 2d 32 35 36       	sub    eax,0x3635322d
	...

000003c3 <.L.str.49>:
 3c3:	5b                   	pop    ebx
 3c4:	21 5d 20             	and    DWORD PTR [ebp+0x20],ebx
 3c7:	4b                   	dec    ebx
 3c8:	65 79 20             	gs jns 3eb <.L.str.51+0x2>
 3cb:	6c                   	ins    BYTE PTR es:[edi],dx
 3cc:	65 6e                	outs   dx,BYTE PTR gs:[esi]
 3ce:	67 74 68             	addr16 je 439 <.L.str.53+0x20>
 3d1:	20 22                	and    BYTE PTR [edx],ah
 3d3:	25 73 22 20 69       	and    eax,0x69202273
 3d8:	6e                   	outs   dx,BYTE PTR ds:[esi]
 3d9:	63 6f 72             	arpl   WORD PTR [edi+0x72],bp
 3dc:	72 65                	jb     443 <.L.str.53+0x2a>
 3de:	63 74 21 0a          	arpl   WORD PTR [ecx+eiz*1+0xa],si
	...

000003e3 <.L.str.50>:
 3e3:	2d 2d 35 31 32       	sub    eax,0x3231352d
	...

000003e9 <.L.str.51>:
 3e9:	2d 2d 31 30 32       	sub    eax,0x3230312d
 3ee:	34 00                	xor    al,0x0

000003f0 <.L.str.52>:
 3f0:	5b                   	pop    ebx
 3f1:	21 5d 20             	and    DWORD PTR [ebp+0x20],ebx
 3f4:	4e                   	dec    esi
 3f5:	61                   	popa   
 3f6:	6d                   	ins    DWORD PTR es:[edi],dx
 3f7:	65 73 20             	gs jae 41a <.L.str.53+0x1>
 3fa:	69 6e 70 75 74 20 61 	imul   ebp,DWORD PTR [esi+0x70],0x61207475
 401:	6e                   	outs   dx,BYTE PTR ds:[esi]
 402:	64 20 6f 75          	and    BYTE PTR fs:[edi+0x75],ch
 406:	74 70                	je     478 <.L.str.55+0xa>
 408:	75 74                	jne    47e <.L.str.55+0x10>
 40a:	20 66 69             	and    BYTE PTR [esi+0x69],ah
 40d:	6c                   	ins    BYTE PTR es:[edi],dx
 40e:	65 73 20             	gs jae 431 <.L.str.53+0x18>
 411:	65 71 75             	gs jno 489 <.L.str.55+0x1b>
 414:	61                   	popa   
 415:	6c                   	ins    BYTE PTR es:[edi],dx
 416:	21 0a                	and    DWORD PTR [edx],ecx
	...

00000419 <.L.str.53>:
 419:	5b                   	pop    ebx
 41a:	21 5d 20             	and    DWORD PTR [ebp+0x20],ebx
 41d:	4e                   	dec    esi
 41e:	61                   	popa   
 41f:	6d                   	ins    DWORD PTR es:[edi],dx
 420:	65 73 20             	gs jae 443 <.L.str.53+0x2a>
 423:	6b 65 79 66          	imul   esp,DWORD PTR [ebp+0x79],0x66
 427:	69 6c 65 20 61 6e 64 	imul   ebp,DWORD PTR [ebp+eiz*2+0x20],0x20646e61
 42e:	20 
 42f:	6f                   	outs   dx,DWORD PTR ds:[esi]
 430:	75 74                	jne    4a6 <.L.str.56+0x14>
 432:	70 75                	jo     4a9 <.L.str.56+0x17>
 434:	74 20                	je     456 <.L.str.54+0x12>
 436:	66 69 6c 65 73 20 65 	imul   bp,WORD PTR [ebp+eiz*2+0x73],0x6520
 43d:	71 75                	jno    4b4 <.L.str.56+0x22>
 43f:	61                   	popa   
 440:	6c                   	ins    BYTE PTR es:[edi],dx
 441:	21 0a                	and    DWORD PTR [edx],ecx
	...

00000444 <.L.str.54>:
 444:	5b                   	pop    ebx
 445:	21 5d 20             	and    DWORD PTR [ebp+0x20],ebx
 448:	4e                   	dec    esi
 449:	61                   	popa   
 44a:	6d                   	ins    DWORD PTR es:[edi],dx
 44b:	65 73 20             	gs jae 46e <.L.str.55>
 44e:	6b 65 79 66          	imul   esp,DWORD PTR [ebp+0x79],0x66
 452:	69 6c 65 20 61 6e 64 	imul   ebp,DWORD PTR [ebp+eiz*2+0x20],0x20646e61
 459:	20 
 45a:	69 6e 70 75 74 20 66 	imul   ebp,DWORD PTR [esi+0x70],0x66207475
 461:	69 6c 65 73 20 65 71 	imul   ebp,DWORD PTR [ebp+eiz*2+0x73],0x75716520
 468:	75 
 469:	61                   	popa   
 46a:	6c                   	ins    BYTE PTR es:[edi],dx
 46b:	21 0a                	and    DWORD PTR [edx],ecx
	...

0000046e <.L.str.55>:
 46e:	5b                   	pop    ebx
 46f:	23 5d 20             	and    ebx,DWORD PTR [ebp+0x20]
 472:	43                   	inc    ebx
 473:	72 79                	jb     4ee <.L.str.58+0x2a>
 475:	70 74                	jo     4eb <.L.str.58+0x27>
 477:	20 6b 65             	and    BYTE PTR [ebx+0x65],ch
 47a:	79 20                	jns    49c <.L.str.56+0xa>
 47c:	72 65                	jb     4e3 <.L.str.58+0x1f>
 47e:	61                   	popa   
 47f:	64 20 66 72          	and    BYTE PTR fs:[esi+0x72],ah
 483:	6f                   	outs   dx,DWORD PTR ds:[esi]
 484:	6d                   	ins    DWORD PTR es:[edi],dx
 485:	20 66 69             	and    BYTE PTR [esi+0x69],ah
 488:	6c                   	ins    BYTE PTR es:[edi],dx
 489:	65 20 22             	and    BYTE PTR gs:[edx],ah
 48c:	25 73 22 21 0a       	and    eax,0xa212273
	...

00000492 <.L.str.56>:
 492:	5b                   	pop    ebx
 493:	21 5d 20             	and    DWORD PTR [ebp+0x20],ebx
 496:	44                   	inc    esp
 497:	61                   	popa   
 498:	74 61                	je     4fb <.L.str.58+0x37>
 49a:	20 69 6e             	and    BYTE PTR [ecx+0x6e],ch
 49d:	20 6b 65             	and    BYTE PTR [ebx+0x65],ch
 4a0:	79 20                	jns    4c2 <.L.str.56+0x30>
 4a2:	66 69 6c 65 20 25 64 	imul   bp,WORD PTR [ebp+eiz*2+0x20],0x6425
 4a9:	20 62 79             	and    BYTE PTR [edx+0x79],ah
 4ac:	74 65                	je     513 <.L.str.59+0x17>
 4ae:	3b 20                	cmp    esp,DWORD PTR [eax]
 4b0:	6e                   	outs   dx,BYTE PTR ds:[esi]
 4b1:	65 63 65 73          	arpl   WORD PTR gs:[ebp+0x73],sp
 4b5:	73 61                	jae    518 <.L.str.59+0x1c>
 4b7:	72 79                	jb     532 <.L.str.60+0x11>
 4b9:	20 25 64 20 62 79    	and    BYTE PTR ds:0x79622064,ah
 4bf:	74 65                	je     526 <.L.str.60+0x5>
 4c1:	21 0a                	and    DWORD PTR [edx],ecx
	...

000004c4 <.L.str.58>:
 4c4:	5b                   	pop    ebx
 4c5:	21 5d 20             	and    DWORD PTR [ebp+0x20],ebx
 4c8:	44                   	inc    esp
 4c9:	61                   	popa   
 4ca:	74 61                	je     52d <.L.str.60+0xc>
 4cc:	20 69 6e             	and    BYTE PTR [ecx+0x6e],ch
 4cf:	20 73 74             	and    BYTE PTR [ebx+0x74],dh
 4d2:	72 69                	jb     53d <.L.str.60+0x1c>
 4d4:	6e                   	outs   dx,BYTE PTR ds:[esi]
 4d5:	67 20 6b 65          	and    BYTE PTR [bp+di+0x65],ch
 4d9:	79 20                	jns    4fb <.L.str.58+0x37>
 4db:	25 64 20 62 79       	and    eax,0x79622064
 4e0:	74 65                	je     547 <.L.str.60+0x26>
 4e2:	3b 20                	cmp    esp,DWORD PTR [eax]
 4e4:	6e                   	outs   dx,BYTE PTR ds:[esi]
 4e5:	65 63 65 73          	arpl   WORD PTR gs:[ebp+0x73],sp
 4e9:	73 61                	jae    54c <.L.str.61+0x1>
 4eb:	72 79                	jb     566 <.L.str.61+0x1b>
 4ed:	20 38                	and    BYTE PTR [eax],bh
 4ef:	2e 2e 32 35 36 20 62 	cs xor dh,BYTE PTR cs:0x79622036
 4f6:	79 
 4f7:	74 65                	je     55e <.L.str.61+0x13>
 4f9:	21 0a                	and    DWORD PTR [edx],ecx
	...

000004fc <.L.str.59>:
 4fc:	5b                   	pop    ebx
 4fd:	23 5d 20             	and    ebx,DWORD PTR [ebp+0x20]
 500:	4b                   	dec    ebx
 501:	65 79 20             	gs jns 524 <.L.str.60+0x3>
 504:	6c                   	ins    BYTE PTR es:[edi],dx
 505:	65 6e                	outs   dx,BYTE PTR gs:[esi]
 507:	67 74 68             	addr16 je 572 <.L.str.62+0x9>
 50a:	20 25 64 2d 62 69    	and    BYTE PTR ds:0x69622d64,ah
 510:	74 73                	je     585 <.L.str.62+0x1c>
 512:	20 69 6e             	and    BYTE PTR [ecx+0x6e],ch
 515:	69 74 69 61 6c 69 7a 	imul   esi,DWORD PTR [ecx+ebp*2+0x61],0x657a696c
 51c:	65 
 51d:	64 21 0a             	and    DWORD PTR fs:[edx],ecx
	...

00000521 <.L.str.60>:
 521:	5b                   	pop    ebx
 522:	58                   	pop    eax
 523:	5d                   	pop    ebp
 524:	20 43 72             	and    BYTE PTR [ebx+0x72],al
 527:	69 74 69 63 61 6c 20 	imul   esi,DWORD PTR [ecx+ebp*2+0x63],0x65206c61
 52e:	65 
 52f:	72 72                	jb     5a3 <.L.str.66+0x1>
 531:	6f                   	outs   dx,DWORD PTR ds:[esi]
 532:	72 21                	jb     555 <.L.str.61+0xa>
 534:	20 53 79             	and    BYTE PTR [ebx+0x79],dl
 537:	73 74                	jae    5ad <.L.str.67+0x3>
 539:	65 6d                	gs ins DWORD PTR es:[edi],dx
 53b:	20 74 69 6d          	and    BYTE PTR [ecx+ebp*2+0x6d],dh
 53f:	65 20 73 74          	and    BYTE PTR gs:[ebx+0x74],dh
 543:	6f                   	outs   dx,DWORD PTR ds:[esi]
 544:	70 70                	jo     5b6 <.L.str.68+0x4>
 546:	65 64 3f             	gs fs aas 
 549:	0a 00                	or     al,BYTE PTR [eax]

0000054b <.L.str.61>:
 54b:	5b                   	pop    ebx
 54c:	23 5d 20             	and    ebx,DWORD PTR [ebp+0x20]
 54f:	41                   	inc    ecx
 550:	6c                   	ins    BYTE PTR es:[edi],dx
 551:	67 6f                	outs   dx,DWORD PTR ds:[si]
 553:	72 69                	jb     5be <.L.str.69+0x3>
 555:	74 6d                	je     5c4 <.L.str.69+0x9>
 557:	20 25 73 20 69 6e    	and    BYTE PTR ds:0x6e692073,ah
 55d:	69 74 69 61 6c 69 7a 	imul   esi,DWORD PTR [ecx+ebp*2+0x61],0x657a696c
 564:	65 
 565:	64 21 0a             	and    DWORD PTR fs:[edx],ecx
	...

00000569 <.L.str.62>:
 569:	5b                   	pop    ebx
 56a:	23 5d 20             	and    ebx,DWORD PTR [ebp+0x20]
 56d:	4f                   	dec    edi
 56e:	70 65                	jo     5d5 <.L.str.70+0x10>
 570:	72 61                	jb     5d3 <.L.str.70+0xe>
 572:	74 69                	je     5dd <.L.str.70+0x18>
 574:	6f                   	outs   dx,DWORD PTR ds:[esi]
 575:	6e                   	outs   dx,BYTE PTR ds:[esi]
 576:	20 25 73 20 66 69    	and    BYTE PTR ds:0x69662073,ah
 57c:	6c                   	ins    BYTE PTR es:[edi],dx
 57d:	65 20 22             	and    BYTE PTR gs:[edx],ah
 580:	25 73 22 20 73       	and    eax,0x73202273
 585:	74 61                	je     5e8 <.L.str.70+0x23>
 587:	72 74                	jb     5fd <.L.str.71+0xe>
 589:	65 64 21 0a          	gs and DWORD PTR fs:[edx],ecx
	...

0000058e <.L.str.63>:
 58e:	45                   	inc    ebp
 58f:	6e                   	outs   dx,BYTE PTR ds:[esi]
 590:	63 72 79             	arpl   WORD PTR [edx+0x79],si
 593:	70 74                	jo     609 <.L.str.71+0x1a>
	...

00000596 <.L.str.64>:
 596:	44                   	inc    esp
 597:	65 63 72 79          	arpl   WORD PTR gs:[edx+0x79],si
 59b:	70 74                	jo     611 <.L.str.71+0x22>
	...

0000059e <.L.str.65>:
 59e:	41                   	inc    ecx
 59f:	45                   	inc    ebp
 5a0:	53                   	push   ebx
	...

000005a2 <.L.str.66>:
 5a2:	53                   	push   ebx
 5a3:	45                   	inc    ebp
 5a4:	52                   	push   edx
 5a5:	50                   	push   eax
 5a6:	45                   	inc    ebp
 5a7:	4e                   	dec    esi
 5a8:	54                   	push   esp
	...

000005aa <.L.str.67>:
 5aa:	54                   	push   esp
 5ab:	57                   	push   edi
 5ac:	4f                   	dec    edi
 5ad:	46                   	inc    esi
 5ae:	49                   	dec    ecx
 5af:	53                   	push   ebx
 5b0:	48                   	dec    eax
	...

000005b2 <.L.str.68>:
 5b2:	42                   	inc    edx
 5b3:	4c                   	dec    esp
 5b4:	4f                   	dec    edi
 5b5:	57                   	push   edi
 5b6:	46                   	inc    esi
 5b7:	49                   	dec    ecx
 5b8:	53                   	push   ebx
 5b9:	48                   	dec    eax
	...

000005bb <.L.str.69>:
 5bb:	54                   	push   esp
 5bc:	48                   	dec    eax
 5bd:	52                   	push   edx
 5be:	45                   	inc    ebp
 5bf:	45                   	inc    ebp
 5c0:	46                   	inc    esi
 5c1:	49                   	dec    ecx
 5c2:	53                   	push   ebx
 5c3:	48                   	dec    eax
	...

000005c5 <.L.str.70>:
 5c5:	0d 20 3e 20 20       	or     eax,0x20203e20
 5ca:	25 73 20 5b 25       	and    eax,0x255b2073
 5cf:	73 5d                	jae    62e <.L.str.72+0xe>
 5d1:	20 28                	and    BYTE PTR [eax],ch
 5d3:	25 34 2e 32 66       	and    eax,0x66322e34
 5d8:	20 25 73 2f 25 34    	and    BYTE PTR ds:0x34252f73,ah
 5de:	2e 32 66 20          	xor    ah,BYTE PTR cs:[esi+0x20]
 5e2:	25 73 29 20 25       	and    eax,0x25202973
 5e7:	33 64 20 25          	xor    esp,DWORD PTR [eax+eiz*1+0x25]
 5eb:	25 20 20 00        	and    eax,0x5b002020

000005ef <.L.str.71>:
 5ef:	5b                   	pop    ebx
 5f0:	21 5d 20             	and    DWORD PTR [ebp+0x20],ebx
 5f3:	57                   	push   edi
 5f4:	41                   	inc    ecx
 5f5:	52                   	push   edx
 5f6:	4e                   	dec    esi
 5f7:	49                   	dec    ecx
 5f8:	4e                   	dec    esi
 5f9:	47                   	inc    edi
 5fa:	3a 20                	cmp    ah,BYTE PTR [eax]
 5fc:	43                   	inc    ebx
 5fd:	6f                   	outs   dx,DWORD PTR ds:[esi]
 5fe:	6e                   	outs   dx,BYTE PTR ds:[esi]
 5ff:	74 72                	je     673 <.Lstr+0x1f>
 601:	6f                   	outs   dx,DWORD PTR ds:[esi]
 602:	6c                   	ins    BYTE PTR es:[edi],dx
 603:	20 73 75             	and    BYTE PTR [ebx+0x75],dh
 606:	6d                   	ins    DWORD PTR es:[edi],dx
 607:	20 66 69             	and    BYTE PTR [esi+0x69],ah
 60a:	6c                   	ins    BYTE PTR es:[edi],dx
 60b:	65 20 22             	and    BYTE PTR gs:[edx],ah
 60e:	25 73 22 20 6e       	and    eax,0x6e202273
 613:	6f                   	outs   dx,DWORD PTR ds:[esi]
 614:	74 20                	je     636 <.L.str.72+0x16>
 616:	63 6f 72             	arpl   WORD PTR [edi+0x72],bp
 619:	72 65                	jb     680 <.Lstr.77+0x6>
 61b:	63 74 21 0a          	arpl   WORD PTR [ecx+eiz*1+0xa],si
	...

00000620 <.L.str.72>:
 620:	5b                   	pop    ebx
 621:	23 5d 20             	and    ebx,DWORD PTR [ebp+0x20]
 624:	43                   	inc    ebx
 625:	6f                   	outs   dx,DWORD PTR ds:[esi]
 626:	6e                   	outs   dx,BYTE PTR ds:[esi]
 627:	74 72                	je     69b <.Lstr.77+0x21>
 629:	6f                   	outs   dx,DWORD PTR ds:[esi]
 62a:	6c                   	ins    BYTE PTR es:[edi],dx
 62b:	20 73 75             	and    BYTE PTR [ebx+0x75],dh
 62e:	6d                   	ins    DWORD PTR es:[edi],dx
 62f:	20 66 69             	and    BYTE PTR [esi+0x69],ah
 632:	6c                   	ins    BYTE PTR es:[edi],dx
 633:	65 20 22             	and    BYTE PTR gs:[edx],ah
 636:	25 73 22 20 63       	and    eax,0x63202273
 63b:	68 65 63 6b 21       	push   0x216b6365
 640:	20 3a                	and    BYTE PTR [edx],bh
 642:	29 0a                	sub    DWORD PTR [edx],ecx
	...

00000645 <.L.str.73>:
 645:	42                   	inc    edx
 646:	74 00                	je     648 <.L.str.74>

00000648 <.L.str.74>:
 648:	4b                   	dec    ebx
 649:	69 42 00     	imul   eax,DWORD PTR [edx+0x0],0x42694d

0000064c <.L.str.75>:
 64c:	4d                   	dec    ebp
 64d:	69 42 00     	imul   eax,DWORD PTR [edx+0x0],0x426947

00000650 <.L.str.76>:
 650:	47                   	inc    edi
 651:	69 42 00     	imul   eax,DWORD PTR [edx+0x0],0x205d235b

00000654 <.Lstr>:
 654:	5b                   	pop    ebx
 655:	23 5d 20             	and    ebx,DWORD PTR [ebp+0x20]
 658:	43                   	inc    ebx
 659:	72 79                	jb     6d4 <.Lstr.78+0x2d>
 65b:	70 74                	jo     6d1 <.Lstr.78+0x2a>
 65d:	20 6b 65             	and    BYTE PTR [ebx+0x65],ch
 660:	79 20                	jns    682 <.Lstr.77+0x8>
 662:	72 65                	jb     6c9 <.Lstr.78+0x22>
 664:	61                   	popa   
 665:	64 20 66 72          	and    BYTE PTR fs:[esi+0x72],ah
 669:	6f                   	outs   dx,DWORD PTR ds:[esi]
 66a:	6d                   	ins    DWORD PTR es:[edi],dx
 66b:	20 63 6f             	and    BYTE PTR [ebx+0x6f],ah
 66e:	6d                   	ins    DWORD PTR es:[edi],dx
 66f:	6d                   	ins    DWORD PTR es:[edi],dx
 670:	61                   	popa   
 671:	6e                   	outs   dx,BYTE PTR ds:[esi]
 672:	64 20 6c 69 6e       	and    BYTE PTR fs:[ecx+ebp*2+0x6e],ch
 677:	65 21 00             	and    DWORD PTR gs:[eax],eax

0000067a <.Lstr.77>:
 67a:	54                   	push   esp
 67b:	68 69 73 20 69       	push   0x69207369
 680:	73 20                	jae    6a2 <.Lstr.77+0x28>
 682:	73 6f                	jae    6f3 <.Lstr.78+0x4c>
 684:	66 74 77             	data16 je 6fe <.Lstr.79+0x7>
 687:	61                   	popa   
 688:	72 65                	jb     6ef <.Lstr.78+0x48>
 68a:	20 66 6f             	and    BYTE PTR [esi+0x6f],ah
 68d:	72 20                	jb     6af <.Lstr.78+0x8>
 68f:	65 6e                	outs   dx,BYTE PTR gs:[esi]
 691:	63 72 79             	arpl   WORD PTR [edx+0x79],si
 694:	70 74                	jo     70a <.Lstr.79+0x13>
 696:	2f                   	das    
 697:	64 65 63 72 79       	fs arpl WORD PTR gs:[edx+0x79],si
 69c:	70 74                	jo     712 <.Lstr.79+0x1b>
 69e:	20 66 69             	and    BYTE PTR [esi+0x69],ah
 6a1:	6c                   	ins    BYTE PTR es:[edi],dx
 6a2:	65 73 2e             	gs jae 6d3 <.Lstr.78+0x2c>
 6a5:	0a 00                	or     al,BYTE PTR [eax]

000006a7 <.Lstr.78>:
 6a7:	41                   	inc    ecx
 6a8:	6c                   	ins    BYTE PTR es:[edi],dx
 6a9:	67 6f                	outs   dx,DWORD PTR ds:[si]
 6ab:	72 69                	jb     716 <.Lstr.79+0x1f>
 6ad:	74 6d                	je     71c <.Lstr.79+0x25>
 6af:	73 3a                	jae    6eb <.Lstr.78+0x44>
 6b1:	0a 09                	or     cl,BYTE PTR [ecx]
 6b3:	2d 72 2f 2d 2d       	sub    eax,0x2d2d2f72
 6b8:	61                   	popa   
 6b9:	65 73 0a             	gs jae 6c6 <.Lstr.78+0x1f>
 6bc:	09 2d 73 2f 2d 2d    	or     DWORD PTR ds:0x2d2d2f73,ebp
 6c2:	73 65                	jae    729 <.Lstr.80+0xa>
 6c4:	72 70                	jb     736 <.Lstr.80+0x17>
 6c6:	65 6e                	outs   dx,BYTE PTR gs:[esi]
 6c8:	74 0a                	je     6d4 <.Lstr.78+0x2d>
 6ca:	09 2d 77 2f 2d 2d    	or     DWORD PTR ds:0x2d2d2f77,ebp
 6d0:	74 77                	je     749 <.Lstr.80+0x2a>
 6d2:	6f                   	outs   dx,DWORD PTR ds:[esi]
 6d3:	66 69 73 68 0a 09    	imul   si,WORD PTR [ebx+0x68],0x90a
 6d9:	2d 62 2f 2d 2d       	sub    eax,0x2d2d2f62
 6de:	62 6c 6f 77          	bound  ebp,QWORD PTR [edi+ebp*2+0x77]
 6e2:	66 69 73 68 0a 09    	imul   si,WORD PTR [ebx+0x68],0x90a
 6e8:	2d 74 2f 2d 2d       	sub    eax,0x2d2d2f74
 6ed:	74 68                	je     757 <.Lstr.80+0x38>
 6ef:	72 65                	jb     756 <.Lstr.80+0x37>
 6f1:	65 66 69 73 68 00  	imul   si,WORD PTR gs:[ebx+0x68],0x4f00

000006f7 <.Lstr.79>:
 6f7:	4f                   	dec    edi
 6f8:	70 65                	jo     75f <.Lstr.80+0x40>
 6fa:	72 61                	jb     75d <.Lstr.80+0x3e>
 6fc:	74 69                	je     767 <.Lstr.80+0x48>
 6fe:	6f                   	outs   dx,DWORD PTR ds:[esi]
 6ff:	6e                   	outs   dx,BYTE PTR ds:[esi]
 700:	73 3a                	jae    73c <.Lstr.80+0x1d>
 702:	0a 09                	or     cl,BYTE PTR [ecx]
 704:	2d 65 2f 2d 2d       	sub    eax,0x2d2d2f65
 709:	65 6e                	outs   dx,BYTE PTR gs:[esi]
 70b:	63 72 79             	arpl   WORD PTR [edx+0x79],si
 70e:	70 74                	jo     784 <.Lstr.80+0x65>
 710:	0a 09                	or     cl,BYTE PTR [ecx]
 712:	2d 64 2f 2d 2d       	sub    eax,0x2d2d2f64
 717:	64 65 63 72 79       	fs arpl WORD PTR gs:[edx+0x79],si
 71c:	70 74                	jo     792 <.Lstr.80+0x73>
	...

0000071f <.Lstr.80>:
 71f:	4c                   	dec    esp
 720:	65 6e                	outs   dx,BYTE PTR gs:[esi]
 722:	67 74 68             	addr16 je 78d <.Lstr.80+0x6e>
 725:	73 20                	jae    747 <.Lstr.80+0x28>
 727:	6b 65 79 3a          	imul   esp,DWORD PTR [ebp+0x79],0x3a
 72b:	0a 09                	or     cl,BYTE PTR [ecx]
 72d:	2d 61 2f 2d 2d       	sub    eax,0x2d2d2f61
 732:	31 32                	xor    DWORD PTR [edx],esi
 734:	38 2f                	cmp    BYTE PTR [edi],ch
 736:	2d 2d 32 35 36       	sub    eax,0x3635322d
 73b:	0a 09                	or     cl,BYTE PTR [ecx]
 73d:	2d 62 2f 2d 2d       	sub    eax,0x2d2d2f62
 742:	31 39                	xor    DWORD PTR [ecx],edi
 744:	32 2f                	xor    ch,BYTE PTR [edi]
 746:	2d 2d 35 31 32       	sub    eax,0x3231352d
 74b:	0a 09                	or     cl,BYTE PTR [ecx]
 74d:	2d 63 2f 2d 2d       	sub    eax,0x2d2d2f63
 752:	32 35 36 2f 2d 2d    	xor    dh,BYTE PTR ds:0x2d2d2f36
 758:	31 30                	xor    DWORD PTR [eax],esi
 75a:	32 34 0a             	xor    dh,BYTE PTR [edx+ecx*1]
	...

Дизассемблирование раздела .data:

00000000 <PARAM_READ_BYTE>:
   0:	00 00                	add    BYTE PTR [eax],al
	...

00000004 <PARAM_WRITE_BYTE>:
   4:	00 00                	add    BYTE PTR [eax],al
	...

00000008 <PROGRAMM_NAME>:
   8:	00 00                	add    BYTE PTR [eax],al
	...

Дизассемблирование раздела .bss:

00000000 <rijndael_ctx>:
   0:	00 00                	add    BYTE PTR [eax],al
	...

00000004 <twofish_ctx>:
   4:	00 00                	add    BYTE PTR [eax],al
	...

00000008 <serpent_ctx>:
   8:	00 00                	add    BYTE PTR [eax],al
	...

0000000c <blowfish_ctx>:
   c:	00 00                	add    BYTE PTR [eax],al
	...

00000010 <threefish_ctx>:
  10:	00 00                	add    BYTE PTR [eax],al
	...

Дизассемблирование раздела .comment:

00000000 <.comment>:
   0:	00 44 65 62          	add    BYTE PTR [ebp+eiz*2+0x62],al
   4:	69 61 6e 20 63 6c 61 	imul   esp,DWORD PTR [ecx+0x6e],0x616c6320
   b:	6e                   	outs   dx,BYTE PTR ds:[esi]
   c:	67 20 76 65          	and    BYTE PTR [bp+0x65],dh
  10:	72 73                	jb     85 <ALGORITM_NAME+0x9>
  12:	69 6f 6e 20 31 31 2e 	imul   ebp,DWORD PTR [edi+0x6e],0x2e313120
  19:	30 2e                	xor    BYTE PTR [esi],ch
  1b:	31                   	.byte 0x31
  1c:	2d                   	.byte 0x2d
  1d:	32 00                	xor    al,BYTE PTR [eax]
