
crcn.o:     формат файла elf32-i386


Дизассемблирование раздела .text:

00000000 <vector_init>:
       0:	55                   	push   ebp
       1:	53                   	push   ebx
       2:	57                   	push   edi
       3:	56                   	push   esi
       4:	83 ec 0c             	sub    esp,0xc
       7:	8b 6c 24 24          	mov    ebp,DWORD PTR [esp+0x24]
       b:	8b 7c 24 20          	mov    edi,DWORD PTR [esp+0x20]
       f:	83 ec 08             	sub    esp,0x8
      12:	68 00 00 00 00       	push   0x0
      17:	68 00 00 00 00       	push   0x0
      1c:	e8 fc ff ff ff       	call   1d <vector_init+0x1d>
      21:	83 c4 10             	add    esp,0x10
      24:	85 c0                	test   eax,eax
      26:	0f 84 f1 00 00 00    	je     11d <vector_init+0x11d>
      2c:	89 c6                	mov    esi,eax
      2e:	50                   	push   eax
      2f:	55                   	push   ebp
      30:	6a 01                	push   0x1
      32:	57                   	push   edi
      33:	e8 fc ff ff ff       	call   34 <vector_init+0x34>
      38:	83 c4 04             	add    esp,0x4
      3b:	56                   	push   esi
      3c:	e8 fc ff ff ff       	call   3d <vector_init+0x3d>
      41:	83 c4 10             	add    esp,0x10
      44:	85 ed                	test   ebp,ebp
      46:	74 24                	je     6c <vector_init+0x6c>
      48:	31 f6                	xor    esi,esi
      4a:	90                   	nop
      4b:	90                   	nop
      4c:	90                   	nop
      4d:	90                   	nop
      4e:	90                   	nop
      4f:	90                   	nop
      50:	83 ec 08             	sub    esp,0x8
      53:	68 ff 00 00 00       	push   0xff
      58:	6a 00                	push   0x0
      5a:	e8 fc ff ff ff       	call   5b <vector_init+0x5b>
      5f:	83 c4 10             	add    esp,0x10
      62:	31 f0                	xor    eax,esi
      64:	30 04 37             	xor    BYTE PTR [edi+esi*1],al
      67:	46                   	inc    esi
      68:	39 f5                	cmp    ebp,esi
      6a:	75 e4                	jne    50 <vector_init+0x50>
      6c:	83 ec 0c             	sub    esp,0xc
      6f:	55                   	push   ebp
      70:	e8 fc ff ff ff       	call   71 <vector_init+0x71>
      75:	83 c4 10             	add    esp,0x10
      78:	89 c7                	mov    edi,eax
      7a:	83 ec 0c             	sub    esp,0xc
      7d:	68 08 01 00 00       	push   0x108
      82:	e8 fc ff ff ff       	call   83 <vector_init+0x83>
      87:	83 c4 10             	add    esp,0x10
      8a:	89 c6                	mov    esi,eax
      8c:	89 7c 24 08          	mov    DWORD PTR [esp+0x8],edi
      90:	85 ff                	test   edi,edi
      92:	0f 84 a9 00 00 00    	je     141 <vector_init+0x141>
      98:	85 f6                	test   esi,esi
      9a:	0f 84 a1 00 00 00    	je     141 <vector_init+0x141>
      a0:	85 ed                	test   ebp,ebp
      a2:	0f 84 20 00 00 00    	je     c8 <vector_init+0xc8>
      a8:	8b 7c 24 08          	mov    edi,DWORD PTR [esp+0x8]
      ac:	89 eb                	mov    ebx,ebp
      ae:	90                   	nop
      af:	90                   	nop
      b0:	83 ec 08             	sub    esp,0x8
      b3:	68 ff 00 00 00       	push   0xff
      b8:	6a 00                	push   0x0
      ba:	e8 fc ff ff ff       	call   bb <vector_init+0xbb>
      bf:	83 c4 10             	add    esp,0x10
      c2:	30 07                	xor    BYTE PTR [edi],al
      c4:	47                   	inc    edi
      c5:	4b                   	dec    ebx
      c6:	75 e8                	jne    b0 <vector_init+0xb0>
      c8:	83 ec 04             	sub    esp,0x4
      cb:	55                   	push   ebp
      cc:	8b 7c 24 28          	mov    edi,DWORD PTR [esp+0x28]
      d0:	57                   	push   edi
      d1:	56                   	push   esi
      d2:	e8 fc ff ff ff       	call   d3 <vector_init+0xd3>
      d7:	83 c4 10             	add    esp,0x10
      da:	55                   	push   ebp
      db:	57                   	push   edi
      dc:	8b 7c 24 10          	mov    edi,DWORD PTR [esp+0x10]
      e0:	57                   	push   edi
      e1:	56                   	push   esi
      e2:	e8 fc ff ff ff       	call   e3 <vector_init+0xe3>
      e7:	83 c4 0c             	add    esp,0xc
      ea:	55                   	push   ebp
      eb:	6a 00                	push   0x0
      ed:	57                   	push   edi
      ee:	e8 fc ff ff ff       	call   ef <vector_init+0xef>
      f3:	83 c4 0c             	add    esp,0xc
      f6:	68 08 01 00 00       	push   0x108
      fb:	6a 00                	push   0x0
      fd:	56                   	push   esi
      fe:	e8 fc ff ff ff       	call   ff <vector_init+0xff>
     103:	83 c4 04             	add    esp,0x4
     106:	57                   	push   edi
     107:	e8 fc ff ff ff       	call   108 <vector_init+0x108>
     10c:	83 c4 04             	add    esp,0x4
     10f:	56                   	push   esi
     110:	e8 fc ff ff ff       	call   111 <vector_init+0x111>
     115:	83 c4 1c             	add    esp,0x1c
     118:	5e                   	pop    esi
     119:	5f                   	pop    edi
     11a:	5b                   	pop    ebx
     11b:	5d                   	pop    ebp
     11c:	c3                   	ret    
     11d:	ff 35 00 00 00 00    	push   DWORD PTR ds:0x0
     123:	6a 01                	push   0x1
     125:	6a 27                	push   0x27
     127:	68 00 00 00 00       	push   0x0
     12c:	e8 fc ff ff ff       	call   12d <vector_init+0x12d>
     131:	83 c4 10             	add    esp,0x10
     134:	85 ed                	test   ebp,ebp
     136:	0f 85 0c ff ff ff    	jne    48 <vector_init+0x48>
     13c:	e9 2b ff ff ff       	jmp    6c <vector_init+0x6c>
     141:	83 ec 0c             	sub    esp,0xc
     144:	ff 74 24 14          	push   DWORD PTR [esp+0x14]
     148:	e8 fc ff ff ff       	call   149 <vector_init+0x149>
     14d:	83 c4 04             	add    esp,0x4
     150:	56                   	push   esi
     151:	e8 fc ff ff ff       	call   152 <vector_init+0x152>
     156:	83 c4 10             	add    esp,0x10
     159:	ff 35 00 00 00 00    	push   DWORD PTR ds:0x0
     15f:	6a 01                	push   0x1
     161:	6a 1c                	push   0x1c
     163:	68 00 00 00 00       	push   0x0
     168:	e8 fc ff ff ff       	call   169 <vector_init+0x169>
     16d:	83 c4 04             	add    esp,0x4
     170:	6a 01                	push   0x1
     172:	e8 fc ff ff ff       	call   173 <vector_init+0x173>
     177:	90                   	nop
     178:	90                   	nop
     179:	90                   	nop
     17a:	90                   	nop
     17b:	90                   	nop
     17c:	90                   	nop
     17d:	90                   	nop
     17e:	90                   	nop
     17f:	90                   	nop

00000180 <PRINT_OPERATION_STATUS>:
     180:	83 ec 0c             	sub    esp,0xc
     183:	8b 4c 24 14          	mov    ecx,DWORD PTR [esp+0x14]
     187:	83 f9 09             	cmp    ecx,0x9
     18a:	77 31                	ja     1bd <PRINT_OPERATION_STATUS+0x3d>
     18c:	8b 44 24 10          	mov    eax,DWORD PTR [esp+0x10]
     190:	ff 24 8d 00 00 00 00 	jmp    DWORD PTR [ecx*4+0x0]
     197:	31 c9                	xor    ecx,ecx
     199:	83 b8 4c 00 00 01 00 	cmp    DWORD PTR [eax+0x100004c],0x0
     1a0:	0f 95 c1             	setne  cl
     1a3:	83 ec 04             	sub    esp,0x4
     1a6:	ff 30                	push   DWORD PTR [eax]
     1a8:	ff 34 8d 8c 00 00 00 	push   DWORD PTR [ecx*4+0x8c]
     1af:	68 00 00 00 00       	push   0x0
     1b4:	e8 fc ff ff ff       	call   1b5 <PRINT_OPERATION_STATUS+0x35>
     1b9:	83 c4 1c             	add    esp,0x1c
     1bc:	c3                   	ret    
     1bd:	83 c4 0c             	add    esp,0xc
     1c0:	c3                   	ret    
     1c1:	31 c9                	xor    ecx,ecx
     1c3:	83 b8 4c 00 00 01 00 	cmp    DWORD PTR [eax+0x100004c],0x0
     1ca:	0f 95 c1             	setne  cl
     1cd:	ff 30                	push   DWORD PTR [eax]
     1cf:	ff 34 8d 8c 00 00 00 	push   DWORD PTR [ecx*4+0x8c]
     1d6:	68 00 00 00 00       	push   0x0
     1db:	eb 5e                	jmp    23b <PRINT_OPERATION_STATUS+0xbb>
     1dd:	83 ec 04             	sub    esp,0x4
     1e0:	ff 70 04             	push   DWORD PTR [eax+0x4]
     1e3:	68 00 00 00 00       	push   0x0
     1e8:	eb 51                	jmp    23b <PRINT_OPERATION_STATUS+0xbb>
     1ea:	83 ec 04             	sub    esp,0x4
     1ed:	ff 30                	push   DWORD PTR [eax]
     1ef:	68 00 00 00 00       	push   0x0
     1f4:	eb 45                	jmp    23b <PRINT_OPERATION_STATUS+0xbb>
     1f6:	83 ec 04             	sub    esp,0x4
     1f9:	ff 70 04             	push   DWORD PTR [eax+0x4]
     1fc:	68 00 00 00 00       	push   0x0
     201:	eb 38                	jmp    23b <PRINT_OPERATION_STATUS+0xbb>
     203:	83 ec 04             	sub    esp,0x4
     206:	ff 30                	push   DWORD PTR [eax]
     208:	68 00 00 00 00       	push   0x0
     20d:	eb 2c                	jmp    23b <PRINT_OPERATION_STATUS+0xbb>
     20f:	ff 35 00 00 00 00    	push   DWORD PTR ds:0x0
     215:	6a 01                	push   0x1
     217:	6a 1e                	push   0x1e
     219:	68 00 00 00 00       	push   0x0
     21e:	eb 39                	jmp    259 <PRINT_OPERATION_STATUS+0xd9>
     220:	ff 35 00 00 00 00    	push   DWORD PTR ds:0x0
     226:	6a 01                	push   0x1
     228:	6a 1f                	push   0x1f
     22a:	68 00 00 00 00       	push   0x0
     22f:	eb 28                	jmp    259 <PRINT_OPERATION_STATUS+0xd9>
     231:	83 ec 04             	sub    esp,0x4
     234:	ff 30                	push   DWORD PTR [eax]
     236:	68 00 00 00 00       	push   0x0
     23b:	ff 35 00 00 00 00    	push   DWORD PTR ds:0x0
     241:	e8 fc ff ff ff       	call   242 <PRINT_OPERATION_STATUS+0xc2>
     246:	83 c4 1c             	add    esp,0x1c
     249:	c3                   	ret    
     24a:	ff 35 00 00 00 00    	push   DWORD PTR ds:0x0
     250:	6a 01                	push   0x1
     252:	6a 2a                	push   0x2a
     254:	68 00 00 00 00       	push   0x0
     259:	e8 fc ff ff ff       	call   25a <PRINT_OPERATION_STATUS+0xda>
     25e:	83 c4 1c             	add    esp,0x1c
     261:	c3                   	ret    
     262:	90                   	nop
     263:	90                   	nop
     264:	90                   	nop
     265:	90                   	nop
     266:	90                   	nop
     267:	90                   	nop
     268:	90                   	nop
     269:	90                   	nop
     26a:	90                   	nop
     26b:	90                   	nop
     26c:	90                   	nop
     26d:	90                   	nop
     26e:	90                   	nop
     26f:	90                   	nop

00000270 <password_read>:
     270:	55                   	push   ebp
     271:	53                   	push   ebx
     272:	57                   	push   edi
     273:	56                   	push   esi
     274:	83 ec 7c             	sub    esp,0x7c
     277:	8b 9c 24 90 00 00 00 	mov    ebx,DWORD PTR [esp+0x90]
     27e:	83 ec 08             	sub    esp,0x8
     281:	8d 6c 24 48          	lea    ebp,[esp+0x48]
     285:	55                   	push   ebp
     286:	6a 00                	push   0x0
     288:	e8 fc ff ff ff       	call   289 <password_read+0x19>
     28d:	83 c4 10             	add    esp,0x10
     290:	89 e7                	mov    edi,esp
     292:	b9 0f 00 00 00       	mov    ecx,0xf
     297:	89 ee                	mov    esi,ebp
     299:	f3 a5                	rep movs DWORD PTR es:[edi],DWORD PTR ds:[esi]
     29b:	80 64 24 4c f7       	and    BYTE PTR [esp+0x4c],0xf7
     2a0:	83 ec 04             	sub    esp,0x4
     2a3:	55                   	push   ebp
     2a4:	6a 00                	push   0x0
     2a6:	6a 00                	push   0x0
     2a8:	e8 fc ff ff ff       	call   2a9 <password_read+0x39>
     2ad:	83 c4 04             	add    esp,0x4
     2b0:	ff 35 00 00 00 00    	push   DWORD PTR ds:0x0
     2b6:	e8 fc ff ff ff       	call   2b7 <password_read+0x47>
     2bb:	83 c4 04             	add    esp,0x4
     2be:	ff 35 00 00 00 00    	push   DWORD PTR ds:0x0
     2c4:	e8 fc ff ff ff       	call   2c5 <password_read+0x55>
     2c9:	83 c4 04             	add    esp,0x4
     2cc:	68 00 00 00 00       	push   0x0
     2d1:	e8 fc ff ff ff       	call   2d2 <password_read+0x62>
     2d6:	83 c4 0c             	add    esp,0xc
     2d9:	ff 35 00 00 00 00    	push   DWORD PTR ds:0x0
     2df:	ff 73 1c             	push   DWORD PTR [ebx+0x1c]
     2e2:	ff 73 18             	push   DWORD PTR [ebx+0x18]
     2e5:	e8 fc ff ff ff       	call   2e6 <password_read+0x76>
     2ea:	83 c4 10             	add    esp,0x10
     2ed:	85 c0                	test   eax,eax
     2ef:	74 4e                	je     33f <password_read+0xcf>
     2f1:	8b 43 1c             	mov    eax,DWORD PTR [ebx+0x1c]
     2f4:	85 c0                	test   eax,eax
     2f6:	74 19                	je     311 <password_read+0xa1>
     2f8:	8b 4b 18             	mov    ecx,DWORD PTR [ebx+0x18]
     2fb:	31 d2                	xor    edx,edx
     2fd:	90                   	nop
     2fe:	90                   	nop
     2ff:	90                   	nop
     300:	80 3c 11 0a          	cmp    BYTE PTR [ecx+edx*1],0xa
     304:	74 07                	je     30d <password_read+0x9d>
     306:	42                   	inc    edx
     307:	39 c2                	cmp    edx,eax
     309:	72 f5                	jb     300 <password_read+0x90>
     30b:	eb 04                	jmp    311 <password_read+0xa1>
     30d:	c6 04 11 00          	mov    BYTE PTR [ecx+edx*1],0x0
     311:	83 ec 04             	sub    esp,0x4
     314:	8d 44 24 04          	lea    eax,[esp+0x4]
     318:	50                   	push   eax
     319:	6a 00                	push   0x0
     31b:	6a 00                	push   0x0
     31d:	e8 fc ff ff ff       	call   31e <password_read+0xae>
     322:	83 c4 08             	add    esp,0x8
     325:	ff 35 00 00 00 00    	push   DWORD PTR ds:0x0
     32b:	6a 0a                	push   0xa
     32d:	e8 fc ff ff ff       	call   32e <password_read+0xbe>
     332:	83 c4 10             	add    esp,0x10
     335:	31 c0                	xor    eax,eax
     337:	83 c4 7c             	add    esp,0x7c
     33a:	5e                   	pop    esi
     33b:	5f                   	pop    edi
     33c:	5b                   	pop    ebx
     33d:	5d                   	pop    ebp
     33e:	c3                   	ret    
     33f:	ff 35 00 00 00 00    	push   DWORD PTR ds:0x0
     345:	6a 01                	push   0x1
     347:	6a 29                	push   0x29
     349:	68 00 00 00 00       	push   0x0
     34e:	e8 fc ff ff ff       	call   34f <password_read+0xdf>
     353:	83 c4 10             	add    esp,0x10
     356:	b8 03 00 00 00       	mov    eax,0x3
     35b:	eb da                	jmp    337 <password_read+0xc7>
     35d:	90                   	nop
     35e:	90                   	nop
     35f:	90                   	nop

00000360 <INITIALIZED_GLOBAL_MEMORY>:
     360:	57                   	push   edi
     361:	56                   	push   esi
     362:	50                   	push   eax
     363:	8b 7c 24 14          	mov    edi,DWORD PTR [esp+0x14]
     367:	8b 74 24 10          	mov    esi,DWORD PTR [esp+0x10]
     36b:	83 ec 0c             	sub    esp,0xc
     36e:	57                   	push   edi
     36f:	e8 fc ff ff ff       	call   370 <INITIALIZED_GLOBAL_MEMORY+0x10>
     374:	83 c4 10             	add    esp,0x10
     377:	89 06                	mov    DWORD PTR [esi],eax
     379:	85 c0                	test   eax,eax
     37b:	0f 84 cf 00 00 00    	je     450 <INITIALIZED_GLOBAL_MEMORY+0xf0>
     381:	83 ec 04             	sub    esp,0x4
     384:	57                   	push   edi
     385:	6a 00                	push   0x0
     387:	50                   	push   eax
     388:	e8 fc ff ff ff       	call   389 <INITIALIZED_GLOBAL_MEMORY+0x29>
     38d:	83 c4 10             	add    esp,0x10
     390:	8b 06                	mov    eax,DWORD PTR [esi]
     392:	c7 00 00 00 00 00    	mov    DWORD PTR [eax],0x0
     398:	8b 06                	mov    eax,DWORD PTR [esi]
     39a:	c7 40 04 00 00 00 00 	mov    DWORD PTR [eax+0x4],0x0
     3a1:	8b 06                	mov    eax,DWORD PTR [esi]
     3a3:	c7 40 28 00 00 00 00 	mov    DWORD PTR [eax+0x28],0x0
     3aa:	8b 06                	mov    eax,DWORD PTR [esi]
     3ac:	c7 40 08 00 00 00 00 	mov    DWORD PTR [eax+0x8],0x0
     3b3:	8b 3e                	mov    edi,DWORD PTR [esi]
     3b5:	c7 87 4c 00 00 01 00 	mov    DWORD PTR [edi+0x100004c],0x0
     3bc:	00 00 00 
     3bf:	c7 87 50 00 00 01 00 	mov    DWORD PTR [edi+0x1000050],0x0
     3c6:	00 00 00 
     3c9:	c7 47 14 00 00 00 00 	mov    DWORD PTR [edi+0x14],0x0
     3d0:	c7 47 2c 00 00 00 00 	mov    DWORD PTR [edi+0x2c],0x0
     3d7:	c7 47 0c 00 00 00 00 	mov    DWORD PTR [edi+0xc],0x0
     3de:	c7 47 1c 00 08 00 00 	mov    DWORD PTR [edi+0x1c],0x800
     3e5:	c7 47 24 8c 00 00 00 	mov    DWORD PTR [edi+0x24],0x8c
     3ec:	83 ec 0c             	sub    esp,0xc
     3ef:	68 00 08 00 00       	push   0x800
     3f4:	e8 fc ff ff ff       	call   3f5 <INITIALIZED_GLOBAL_MEMORY+0x95>
     3f9:	83 c4 10             	add    esp,0x10
     3fc:	89 47 18             	mov    DWORD PTR [edi+0x18],eax
     3ff:	8b 3e                	mov    edi,DWORD PTR [esi]
     401:	83 7f 18 00          	cmp    DWORD PTR [edi+0x18],0x0
     405:	74 54                	je     45b <INITIALIZED_GLOBAL_MEMORY+0xfb>
     407:	83 ec 0c             	sub    esp,0xc
     40a:	ff 77 24             	push   DWORD PTR [edi+0x24]
     40d:	e8 fc ff ff ff       	call   40e <INITIALIZED_GLOBAL_MEMORY+0xae>
     412:	83 c4 10             	add    esp,0x10
     415:	89 47 20             	mov    DWORD PTR [edi+0x20],eax
     418:	8b 06                	mov    eax,DWORD PTR [esi]
     41a:	83 78 20 00          	cmp    DWORD PTR [eax+0x20],0x0
     41e:	74 46                	je     466 <INITIALIZED_GLOBAL_MEMORY+0x106>
     420:	83 ec 04             	sub    esp,0x4
     423:	ff 70 1c             	push   DWORD PTR [eax+0x1c]
     426:	6a 00                	push   0x0
     428:	ff 70 18             	push   DWORD PTR [eax+0x18]
     42b:	e8 fc ff ff ff       	call   42c <INITIALIZED_GLOBAL_MEMORY+0xcc>
     430:	83 c4 10             	add    esp,0x10
     433:	8b 06                	mov    eax,DWORD PTR [esi]
     435:	83 ec 04             	sub    esp,0x4
     438:	ff 70 24             	push   DWORD PTR [eax+0x24]
     43b:	6a 00                	push   0x0
     43d:	ff 70 20             	push   DWORD PTR [eax+0x20]
     440:	e8 fc ff ff ff       	call   441 <INITIALIZED_GLOBAL_MEMORY+0xe1>
     445:	83 c4 10             	add    esp,0x10
     448:	31 c0                	xor    eax,eax
     44a:	83 c4 04             	add    esp,0x4
     44d:	5e                   	pop    esi
     44e:	5f                   	pop    edi
     44f:	c3                   	ret    
     450:	b8 01 00 00 00       	mov    eax,0x1
     455:	83 c4 04             	add    esp,0x4
     458:	5e                   	pop    esi
     459:	5f                   	pop    edi
     45a:	c3                   	ret    
     45b:	b8 02 00 00 00       	mov    eax,0x2
     460:	83 c4 04             	add    esp,0x4
     463:	5e                   	pop    esi
     464:	5f                   	pop    edi
     465:	c3                   	ret    
     466:	b8 03 00 00 00       	mov    eax,0x3
     46b:	83 c4 04             	add    esp,0x4
     46e:	5e                   	pop    esi
     46f:	5f                   	pop    edi
     470:	c3                   	ret    
     471:	90                   	nop
     472:	90                   	nop
     473:	90                   	nop
     474:	90                   	nop
     475:	90                   	nop
     476:	90                   	nop
     477:	90                   	nop
     478:	90                   	nop
     479:	90                   	nop
     47a:	90                   	nop
     47b:	90                   	nop
     47c:	90                   	nop
     47d:	90                   	nop
     47e:	90                   	nop
     47f:	90                   	nop

00000480 <main>:
     480:	55                   	push   ebp
     481:	53                   	push   ebx
     482:	57                   	push   edi
     483:	56                   	push   esi
     484:	81 ec 18 01 00 00    	sub    esp,0x118
     48a:	6a 00                	push   0x0
     48c:	e8 fc ff ff ff       	call   48d <main+0xd>
     491:	e8 fc ff ff ff       	call   492 <main+0x12>
     496:	83 c4 04             	add    esp,0x4
     499:	6a 00                	push   0x0
     49b:	e8 fc ff ff ff       	call   49c <main+0x1c>
     4a0:	83 c4 10             	add    esp,0x10
     4a3:	85 c0                	test   eax,eax
     4a5:	0f 84 64 02 00 00    	je     70f <main+0x28f>
     4ab:	83 ec 08             	sub    esp,0x8
     4ae:	8d 44 24 38          	lea    eax,[esp+0x38]
     4b2:	68 54 00 00 01       	push   0x1000054
     4b7:	50                   	push   eax
     4b8:	e8 fc ff ff ff       	call   4b9 <main+0x39>
     4bd:	83 c4 10             	add    esp,0x10
     4c0:	85 c0                	test   eax,eax
     4c2:	0f 85 60 02 00 00    	jne    728 <main+0x2a8>
     4c8:	8b 9c 24 20 01 00 00 	mov    ebx,DWORD PTR [esp+0x120]
     4cf:	8d 43 fe             	lea    eax,[ebx-0x2]
     4d2:	83 f8 04             	cmp    eax,0x4
     4d5:	0f 87 74 02 00 00    	ja     74f <main+0x2cf>
     4db:	8b bc 24 24 01 00 00 	mov    edi,DWORD PTR [esp+0x124]
     4e2:	83 fb 03             	cmp    ebx,0x3
     4e5:	0f 8c 46 00 00 00    	jl     531 <main+0xb1>
     4eb:	bd 02 00 00 00       	mov    ebp,0x2
     4f0:	29 dd                	sub    ebp,ebx
     4f2:	be 01 00 00 00       	mov    esi,0x1
     4f7:	90                   	nop
     4f8:	90                   	nop
     4f9:	90                   	nop
     4fa:	90                   	nop
     4fb:	90                   	nop
     4fc:	90                   	nop
     4fd:	90                   	nop
     4fe:	90                   	nop
     4ff:	90                   	nop
     500:	83 ec 08             	sub    esp,0x8
     503:	68 00 08 00 00       	push   0x800
     508:	ff 34 b7             	push   DWORD PTR [edi+esi*4]
     50b:	e8 fc ff ff ff       	call   50c <main+0x8c>
     510:	83 c4 10             	add    esp,0x10
     513:	3d 00 08 00 00       	cmp    eax,0x800
     518:	0f 84 9c 00 00 00    	je     5ba <main+0x13a>
     51e:	8d 44 35 01          	lea    eax,[ebp+esi*1+0x1]
     522:	46                   	inc    esi
     523:	83 f8 01             	cmp    eax,0x1
     526:	75 d8                	jne    500 <main+0x80>
     528:	83 fb 02             	cmp    ebx,0x2
     52b:	0f 85 b4 00 00 00    	jne    5e5 <main+0x165>
     531:	8b 77 04             	mov    esi,DWORD PTR [edi+0x4]
     534:	83 ec 08             	sub    esp,0x8
     537:	68 00 00 00 00       	push   0x0
     53c:	56                   	push   esi
     53d:	e8 fc ff ff ff       	call   53e <main+0xbe>
     542:	83 c4 10             	add    esp,0x10
     545:	85 c0                	test   eax,eax
     547:	74 19                	je     562 <main+0xe2>
     549:	83 ec 08             	sub    esp,0x8
     54c:	68 00 00 00 00       	push   0x0
     551:	56                   	push   esi
     552:	e8 fc ff ff ff       	call   553 <main+0xd3>
     557:	83 c4 10             	add    esp,0x10
     55a:	85 c0                	test   eax,eax
     55c:	0f 85 0e 02 00 00    	jne    770 <main+0x2f0>
     562:	83 ec 0c             	sub    esp,0xc
     565:	ff 35 00 00 00 00    	push   DWORD PTR ds:0x0
     56b:	e8 fc ff ff ff       	call   56c <main+0xec>
     570:	83 c4 04             	add    esp,0x4
     573:	68 00 00 00 00       	push   0x0
     578:	e8 fc ff ff ff       	call   579 <main+0xf9>
     57d:	83 c4 04             	add    esp,0x4
     580:	68 00 00 00 00       	push   0x0
     585:	e8 fc ff ff ff       	call   586 <main+0x106>
     58a:	83 c4 04             	add    esp,0x4
     58d:	68 00 00 00 00       	push   0x0
     592:	e8 fc ff ff ff       	call   593 <main+0x113>
     597:	83 c4 04             	add    esp,0x4
     59a:	68 00 00 00 00       	push   0x0
     59f:	e8 fc ff ff ff       	call   5a0 <main+0x120>
     5a4:	83 c4 08             	add    esp,0x8
     5a7:	ff 37                	push   DWORD PTR [edi]
     5a9:	68 00 00 00 00       	push   0x0
     5ae:	e8 fc ff ff ff       	call   5af <main+0x12f>
     5b3:	83 c4 10             	add    esp,0x10
     5b6:	31 f6                	xor    esi,esi
     5b8:	eb 1e                	jmp    5d8 <main+0x158>
     5ba:	68 00 08 00 00       	push   0x800
     5bf:	56                   	push   esi
     5c0:	68 00 00 00 00       	push   0x0
     5c5:	ff 35 00 00 00 00    	push   DWORD PTR ds:0x0
     5cb:	e8 fc ff ff ff       	call   5cc <main+0x14c>
     5d0:	83 c4 10             	add    esp,0x10
     5d3:	be 01 00 00 00       	mov    esi,0x1
     5d8:	89 f0                	mov    eax,esi
     5da:	81 c4 0c 01 00 00    	add    esp,0x10c
     5e0:	5e                   	pop    esi
     5e1:	5f                   	pop    edi
     5e2:	5b                   	pop    ebx
     5e3:	5d                   	pop    ebp
     5e4:	c3                   	ret    
     5e5:	83 fb 03             	cmp    ebx,0x3
     5e8:	0f 8e 69 01 00 00    	jle    757 <main+0x2d7>
     5ee:	8b 44 9f fc          	mov    eax,DWORD PTR [edi+ebx*4-0x4]
     5f2:	8b 74 24 30          	mov    esi,DWORD PTR [esp+0x30]
     5f6:	89 46 04             	mov    DWORD PTR [esi+0x4],eax
     5f9:	8b 44 9f f8          	mov    eax,DWORD PTR [edi+ebx*4-0x8]
     5fd:	89 06                	mov    DWORD PTR [esi],eax
     5ff:	8b 5f 04             	mov    ebx,DWORD PTR [edi+0x4]
     602:	83 ec 08             	sub    esp,0x8
     605:	68 00 00 00 00       	push   0x0
     60a:	53                   	push   ebx
     60b:	e8 fc ff ff ff       	call   60c <main+0x18c>
     610:	83 c4 10             	add    esp,0x10
     613:	bd 03 00 00 00       	mov    ebp,0x3
     618:	85 c0                	test   eax,eax
     61a:	0f 84 e6 00 00 00    	je     706 <main+0x286>
     620:	83 ec 08             	sub    esp,0x8
     623:	68 00 00 00 00       	push   0x0
     628:	53                   	push   ebx
     629:	e8 fc ff ff ff       	call   62a <main+0x1aa>
     62e:	83 c4 10             	add    esp,0x10
     631:	85 c0                	test   eax,eax
     633:	0f 84 cd 00 00 00    	je     706 <main+0x286>
     639:	83 ec 08             	sub    esp,0x8
     63c:	68 00 00 00 00       	push   0x0
     641:	53                   	push   ebx
     642:	e8 fc ff ff ff       	call   643 <main+0x1c3>
     647:	83 c4 10             	add    esp,0x10
     64a:	85 c0                	test   eax,eax
     64c:	0f 84 2c 01 00 00    	je     77e <main+0x2fe>
     652:	83 ec 08             	sub    esp,0x8
     655:	68 00 00 00 00       	push   0x0
     65a:	53                   	push   ebx
     65b:	e8 fc ff ff ff       	call   65c <main+0x1dc>
     660:	83 c4 10             	add    esp,0x10
     663:	31 ed                	xor    ebp,ebp
     665:	85 c0                	test   eax,eax
     667:	0f 84 11 01 00 00    	je     77e <main+0x2fe>
     66d:	83 ec 08             	sub    esp,0x8
     670:	68 00 00 00 00       	push   0x0
     675:	53                   	push   ebx
     676:	e8 fc ff ff ff       	call   677 <main+0x1f7>
     67b:	83 c4 10             	add    esp,0x10
     67e:	b1 01                	mov    cl,0x1
     680:	89 0c 24             	mov    DWORD PTR [esp],ecx
     683:	85 c0                	test   eax,eax
     685:	0f 84 ff 00 00 00    	je     78a <main+0x30a>
     68b:	83 ec 08             	sub    esp,0x8
     68e:	68 00 00 00 00       	push   0x0
     693:	53                   	push   ebx
     694:	e8 fc ff ff ff       	call   695 <main+0x215>
     699:	83 c4 10             	add    esp,0x10
     69c:	85 c0                	test   eax,eax
     69e:	0f 84 e6 00 00 00    	je     78a <main+0x30a>
     6a4:	83 ec 08             	sub    esp,0x8
     6a7:	68 00 00 00 00       	push   0x0
     6ac:	53                   	push   ebx
     6ad:	e8 fc ff ff ff       	call   6ae <main+0x22e>
     6b2:	83 c4 10             	add    esp,0x10
     6b5:	bd 01 00 00 00       	mov    ebp,0x1
     6ba:	85 c0                	test   eax,eax
     6bc:	74 48                	je     706 <main+0x286>
     6be:	83 ec 08             	sub    esp,0x8
     6c1:	68 00 00 00 00       	push   0x0
     6c6:	53                   	push   ebx
     6c7:	e8 fc ff ff ff       	call   6c8 <main+0x248>
     6cc:	83 c4 10             	add    esp,0x10
     6cf:	85 c0                	test   eax,eax
     6d1:	74 33                	je     706 <main+0x286>
     6d3:	83 ec 08             	sub    esp,0x8
     6d6:	68 00 00 00 00       	push   0x0
     6db:	53                   	push   ebx
     6dc:	e8 fc ff ff ff       	call   6dd <main+0x25d>
     6e1:	83 c4 10             	add    esp,0x10
     6e4:	bd 02 00 00 00       	mov    ebp,0x2
     6e9:	85 c0                	test   eax,eax
     6eb:	74 19                	je     706 <main+0x286>
     6ed:	83 ec 08             	sub    esp,0x8
     6f0:	68 00 00 00 00       	push   0x0
     6f5:	53                   	push   ebx
     6f6:	e8 fc ff ff ff       	call   6f7 <main+0x277>
     6fb:	83 c4 10             	add    esp,0x10
     6fe:	85 c0                	test   eax,eax
     700:	0f 85 b4 14 00 00    	jne    1bba <main+0x173a>
     706:	c7 04 24 00 00 00 00 	mov    DWORD PTR [esp],0x0
     70d:	eb 7b                	jmp    78a <main+0x30a>
     70f:	ff 35 00 00 00 00    	push   DWORD PTR ds:0x0
     715:	6a 01                	push   0x1
     717:	6a 12                	push   0x12
     719:	68 00 00 00 00       	push   0x0
     71e:	e8 fc ff ff ff       	call   71f <main+0x29f>
     723:	e9 a8 fe ff ff       	jmp    5d0 <main+0x150>
     728:	89 c6                	mov    esi,eax
     72a:	8b 4c 24 30          	mov    ecx,DWORD PTR [esp+0x30]
     72e:	e8 bd 14 00 00       	call   1bf0 <free_global_memory>
     733:	ff 35 00 00 00 00    	push   DWORD PTR ds:0x0
     739:	6a 01                	push   0x1
     73b:	6a 1c                	push   0x1c
     73d:	68 00 00 00 00       	push   0x0
     742:	e8 fc ff ff ff       	call   743 <main+0x2c3>
     747:	83 c4 10             	add    esp,0x10
     74a:	e9 89 fe ff ff       	jmp    5d8 <main+0x158>
     74f:	83 fb 01             	cmp    ebx,0x1
     752:	74 03                	je     757 <main+0x2d7>
     754:	83 fb 07             	cmp    ebx,0x7
     757:	83 ec 04             	sub    esp,0x4
     75a:	53                   	push   ebx
     75b:	68 00 00 00 00       	push   0x0
     760:	ff 35 00 00 00 00    	push   DWORD PTR ds:0x0
     766:	e8 fc ff ff ff       	call   767 <main+0x2e7>
     76b:	e9 43 fe ff ff       	jmp    5b3 <main+0x133>
     770:	83 ec 04             	sub    esp,0x4
     773:	56                   	push   esi
     774:	68 00 00 00 00       	push   0x0
     779:	e9 47 fe ff ff       	jmp    5c5 <main+0x145>
     77e:	c7 04 24 00 00 00 00 	mov    DWORD PTR [esp],0x0
     785:	bd 04 00 00 00       	mov    ebp,0x4
     78a:	89 74 24 14          	mov    DWORD PTR [esp+0x14],esi
     78e:	89 ae 50 00 00 01    	mov    DWORD PTR [esi+0x1000050],ebp
     794:	8b 77 08             	mov    esi,DWORD PTR [edi+0x8]
     797:	83 ec 08             	sub    esp,0x8
     79a:	68 00 00 00 00       	push   0x0
     79f:	56                   	push   esi
     7a0:	e8 fc ff ff ff       	call   7a1 <main+0x321>
     7a5:	83 c4 10             	add    esp,0x10
     7a8:	85 c0                	test   eax,eax
     7aa:	74 62                	je     80e <main+0x38e>
     7ac:	83 ec 08             	sub    esp,0x8
     7af:	68 00 00 00 00       	push   0x0
     7b4:	56                   	push   esi
     7b5:	e8 fc ff ff ff       	call   7b6 <main+0x336>
     7ba:	83 c4 10             	add    esp,0x10
     7bd:	85 c0                	test   eax,eax
     7bf:	bb 00 00 00 00       	mov    ebx,0x0
     7c4:	74 4a                	je     810 <main+0x390>
     7c6:	83 ec 08             	sub    esp,0x8
     7c9:	68 00 00 00 00       	push   0x0
     7ce:	56                   	push   esi
     7cf:	e8 fc ff ff ff       	call   7d0 <main+0x350>
     7d4:	83 c4 10             	add    esp,0x10
     7d7:	bb de 00 00 00       	mov    ebx,0xde
     7dc:	85 c0                	test   eax,eax
     7de:	74 30                	je     810 <main+0x390>
     7e0:	83 ec 08             	sub    esp,0x8
     7e3:	68 00 00 00 00       	push   0x0
     7e8:	56                   	push   esi
     7e9:	e8 fc ff ff ff       	call   7ea <main+0x36a>
     7ee:	83 c4 10             	add    esp,0x10
     7f1:	85 c0                	test   eax,eax
     7f3:	74 1b                	je     810 <main+0x390>
     7f5:	8b 4c 24 14          	mov    ecx,DWORD PTR [esp+0x14]
     7f9:	e8 f2 13 00 00       	call   1bf0 <free_global_memory>
     7fe:	83 ec 04             	sub    esp,0x4
     801:	ff 77 08             	push   DWORD PTR [edi+0x8]
     804:	68 00 00 00 00       	push   0x0
     809:	e9 b7 fd ff ff       	jmp    5c5 <main+0x145>
     80e:	31 db                	xor    ebx,ebx
     810:	8b 74 24 14          	mov    esi,DWORD PTR [esp+0x14]
     814:	89 9e 4c 00 00 01    	mov    DWORD PTR [esi+0x100004c],ebx
     81a:	83 fd 03             	cmp    ebp,0x3
     81d:	0f 83 b3 00 00 00    	jae    8d6 <main+0x456>
     823:	8b 5f 0c             	mov    ebx,DWORD PTR [edi+0xc]
     826:	83 ec 08             	sub    esp,0x8
     829:	68 00 00 00 00       	push   0x0
     82e:	53                   	push   ebx
     82f:	e8 fc ff ff ff       	call   830 <main+0x3b0>
     834:	83 c4 10             	add    esp,0x10
     837:	85 c0                	test   eax,eax
     839:	0f 84 59 01 00 00    	je     998 <main+0x518>
     83f:	83 ec 08             	sub    esp,0x8
     842:	68 00 00 00 00       	push   0x0
     847:	53                   	push   ebx
     848:	e8 fc ff ff ff       	call   849 <main+0x3c9>
     84d:	83 c4 10             	add    esp,0x10
     850:	85 c0                	test   eax,eax
     852:	0f 84 40 01 00 00    	je     998 <main+0x518>
     858:	83 ec 08             	sub    esp,0x8
     85b:	68 00 00 00 00       	push   0x0
     860:	53                   	push   ebx
     861:	e8 fc ff ff ff       	call   862 <main+0x3e2>
     866:	83 c4 10             	add    esp,0x10
     869:	85 c0                	test   eax,eax
     86b:	0f 84 45 01 00 00    	je     9b6 <main+0x536>
     871:	83 ec 08             	sub    esp,0x8
     874:	68 00 00 00 00       	push   0x0
     879:	53                   	push   ebx
     87a:	e8 fc ff ff ff       	call   87b <main+0x3fb>
     87f:	83 c4 10             	add    esp,0x10
     882:	85 c0                	test   eax,eax
     884:	0f 84 2c 01 00 00    	je     9b6 <main+0x536>
     88a:	83 ec 08             	sub    esp,0x8
     88d:	68 00 00 00 00       	push   0x0
     892:	53                   	push   ebx
     893:	e8 fc ff ff ff       	call   894 <main+0x414>
     898:	83 c4 10             	add    esp,0x10
     89b:	85 c0                	test   eax,eax
     89d:	74 19                	je     8b8 <main+0x438>
     89f:	83 ec 08             	sub    esp,0x8
     8a2:	68 00 00 00 00       	push   0x0
     8a7:	53                   	push   ebx
     8a8:	e8 fc ff ff ff       	call   8a9 <main+0x429>
     8ad:	83 c4 10             	add    esp,0x10
     8b0:	85 c0                	test   eax,eax
     8b2:	0f 85 c9 00 00 00    	jne    981 <main+0x501>
     8b8:	bb 00 01 00 00       	mov    ebx,0x100
     8bd:	80 3c 24 00          	cmp    BYTE PTR [esp],0x0
     8c1:	0f 84 04 01 00 00    	je     9cb <main+0x54b>
     8c7:	c7 05 00 00 00 00 0e 	mov    DWORD PTR ds:0x0,0xe
     8ce:	00 00 00 
     8d1:	e9 f5 00 00 00       	jmp    9cb <main+0x54b>
     8d6:	0f 84 d3 00 00 00    	je     9af <main+0x52f>
     8dc:	83 fd 04             	cmp    ebp,0x4
     8df:	0f 85 e9 00 00 00    	jne    9ce <main+0x54e>
     8e5:	8b 6f 0c             	mov    ebp,DWORD PTR [edi+0xc]
     8e8:	83 ec 08             	sub    esp,0x8
     8eb:	68 00 00 00 00       	push   0x0
     8f0:	55                   	push   ebp
     8f1:	e8 fc ff ff ff       	call   8f2 <main+0x472>
     8f6:	83 c4 10             	add    esp,0x10
     8f9:	bb 00 01 00 00       	mov    ebx,0x100
     8fe:	85 c0                	test   eax,eax
     900:	0f 84 c5 00 00 00    	je     9cb <main+0x54b>
     906:	83 ec 08             	sub    esp,0x8
     909:	68 00 00 00 00       	push   0x0
     90e:	55                   	push   ebp
     90f:	e8 fc ff ff ff       	call   910 <main+0x490>
     914:	83 c4 10             	add    esp,0x10
     917:	85 c0                	test   eax,eax
     919:	0f 84 ac 00 00 00    	je     9cb <main+0x54b>
     91f:	83 ec 08             	sub    esp,0x8
     922:	68 00 00 00 00       	push   0x0
     927:	55                   	push   ebp
     928:	e8 fc ff ff ff       	call   929 <main+0x4a9>
     92d:	83 c4 10             	add    esp,0x10
     930:	bb 00 02 00 00       	mov    ebx,0x200
     935:	85 c0                	test   eax,eax
     937:	0f 84 8e 00 00 00    	je     9cb <main+0x54b>
     93d:	83 ec 08             	sub    esp,0x8
     940:	68 00 00 00 00       	push   0x0
     945:	55                   	push   ebp
     946:	e8 fc ff ff ff       	call   947 <main+0x4c7>
     94b:	83 c4 10             	add    esp,0x10
     94e:	85 c0                	test   eax,eax
     950:	74 79                	je     9cb <main+0x54b>
     952:	83 ec 08             	sub    esp,0x8
     955:	68 00 00 00 00       	push   0x0
     95a:	55                   	push   ebp
     95b:	e8 fc ff ff ff       	call   95c <main+0x4dc>
     960:	83 c4 10             	add    esp,0x10
     963:	bb 00 04 00 00       	mov    ebx,0x400
     968:	85 c0                	test   eax,eax
     96a:	74 5f                	je     9cb <main+0x54b>
     96c:	83 ec 08             	sub    esp,0x8
     96f:	68 00 00 00 00       	push   0x0
     974:	55                   	push   ebp
     975:	e8 fc ff ff ff       	call   976 <main+0x4f6>
     97a:	83 c4 10             	add    esp,0x10
     97d:	85 c0                	test   eax,eax
     97f:	74 4a                	je     9cb <main+0x54b>
     981:	89 f1                	mov    ecx,esi
     983:	e8 68 12 00 00       	call   1bf0 <free_global_memory>
     988:	83 ec 04             	sub    esp,0x4
     98b:	ff 77 0c             	push   DWORD PTR [edi+0xc]
     98e:	68 00 00 00 00       	push   0x0
     993:	e9 2d fc ff ff       	jmp    5c5 <main+0x145>
     998:	bb 80 00 00 00       	mov    ebx,0x80
     99d:	80 3c 24 00          	cmp    BYTE PTR [esp],0x0
     9a1:	74 28                	je     9cb <main+0x54b>
     9a3:	c7 05 00 00 00 00 0a 	mov    DWORD PTR ds:0x0,0xa
     9aa:	00 00 00 
     9ad:	eb 1c                	jmp    9cb <main+0x54b>
     9af:	bb c0 01 00 00       	mov    ebx,0x1c0
     9b4:	eb 15                	jmp    9cb <main+0x54b>
     9b6:	bb c0 00 00 00       	mov    ebx,0xc0
     9bb:	80 3c 24 00          	cmp    BYTE PTR [esp],0x0
     9bf:	74 0a                	je     9cb <main+0x54b>
     9c1:	c7 05 00 00 00 00 0c 	mov    DWORD PTR ds:0x0,0xc
     9c8:	00 00 00 
     9cb:	89 5e 0c             	mov    DWORD PTR [esi+0xc],ebx
     9ce:	83 ec 0c             	sub    esp,0xc
     9d1:	56                   	push   esi
     9d2:	e8 fc ff ff ff       	call   9d3 <main+0x553>
     9d7:	83 c4 10             	add    esp,0x10
     9da:	85 c0                	test   eax,eax
     9dc:	74 0c                	je     9ea <main+0x56a>
     9de:	89 f1                	mov    ecx,esi
     9e0:	e8 0b 12 00 00       	call   1bf0 <free_global_memory>
     9e5:	e9 e9 fb ff ff       	jmp    5d3 <main+0x153>
     9ea:	89 f3                	mov    ebx,esi
     9ec:	8b 36                	mov    esi,DWORD PTR [esi]
     9ee:	8b 7b 04             	mov    edi,DWORD PTR [ebx+0x4]
     9f1:	83 ec 08             	sub    esp,0x8
     9f4:	57                   	push   edi
     9f5:	56                   	push   esi
     9f6:	e8 fc ff ff ff       	call   9f7 <main+0x577>
     9fb:	83 c4 10             	add    esp,0x10
     9fe:	85 c0                	test   eax,eax
     a00:	0f 84 0a 0d 00 00    	je     1710 <main+0x1290>
     a06:	8b 5b 18             	mov    ebx,DWORD PTR [ebx+0x18]
     a09:	83 ec 08             	sub    esp,0x8
     a0c:	53                   	push   ebx
     a0d:	57                   	push   edi
     a0e:	e8 fc ff ff ff       	call   a0f <main+0x58f>
     a13:	83 c4 10             	add    esp,0x10
     a16:	85 c0                	test   eax,eax
     a18:	0f 84 32 0d 00 00    	je     1750 <main+0x12d0>
     a1e:	83 ec 08             	sub    esp,0x8
     a21:	53                   	push   ebx
     a22:	56                   	push   esi
     a23:	e8 fc ff ff ff       	call   a24 <main+0x5a4>
     a28:	83 c4 10             	add    esp,0x10
     a2b:	85 c0                	test   eax,eax
     a2d:	0f 84 3a 0d 00 00    	je     176d <main+0x12ed>
     a33:	8b 74 24 14          	mov    esi,DWORD PTR [esp+0x14]
     a37:	8b 46 0c             	mov    eax,DWORD PTR [esi+0xc]
     a3a:	c1 e8 03             	shr    eax,0x3
     a3d:	89 46 0c             	mov    DWORD PTR [esi+0xc],eax
     a40:	83 ec 08             	sub    esp,0x8
     a43:	6a 01                	push   0x1
     a45:	50                   	push   eax
     a46:	e8 fc ff ff ff       	call   a47 <main+0x5c7>
     a4b:	83 c4 10             	add    esp,0x10
     a4e:	89 46 08             	mov    DWORD PTR [esi+0x8],eax
     a51:	85 c0                	test   eax,eax
     a53:	0f 84 f3 02 00 00    	je     d4c <main+0x8cc>
     a59:	8b 46 0c             	mov    eax,DWORD PTR [esi+0xc]
     a5c:	89 46 14             	mov    DWORD PTR [esi+0x14],eax
     a5f:	83 ec 0c             	sub    esp,0xc
     a62:	50                   	push   eax
     a63:	e8 fc ff ff ff       	call   a64 <main+0x5e4>
     a68:	83 c4 10             	add    esp,0x10
     a6b:	89 46 10             	mov    DWORD PTR [esi+0x10],eax
     a6e:	85 c0                	test   eax,eax
     a70:	0f 84 d6 02 00 00    	je     d4c <main+0x8cc>
     a76:	83 ec 04             	sub    esp,0x4
     a79:	ff 76 14             	push   DWORD PTR [esi+0x14]
     a7c:	6a 00                	push   0x0
     a7e:	50                   	push   eax
     a7f:	e8 fc ff ff ff       	call   a80 <main+0x600>
     a84:	83 c4 0c             	add    esp,0xc
     a87:	ff 76 0c             	push   DWORD PTR [esi+0xc]
     a8a:	ff 76 08             	push   DWORD PTR [esi+0x8]
     a8d:	ff 76 18             	push   DWORD PTR [esi+0x18]
     a90:	e8 fc ff ff ff       	call   a91 <main+0x611>
     a95:	83 c4 10             	add    esp,0x10
     a98:	8b 4e 0c             	mov    ecx,DWORD PTR [esi+0xc]
     a9b:	39 c8                	cmp    eax,ecx
     a9d:	75 5d                	jne    afc <main+0x67c>
     a9f:	83 ec 08             	sub    esp,0x8
     aa2:	ff 76 18             	push   DWORD PTR [esi+0x18]
     aa5:	68 00 00 00 00       	push   0x0
     aaa:	e8 fc ff ff ff       	call   aab <main+0x62b>
     aaf:	83 c4 10             	add    esp,0x10
     ab2:	8b 46 0c             	mov    eax,DWORD PTR [esi+0xc]
     ab5:	c1 e0 03             	shl    eax,0x3
     ab8:	83 ec 08             	sub    esp,0x8
     abb:	50                   	push   eax
     abc:	68 00 00 00 00       	push   0x0
     ac1:	e8 fc ff ff ff       	call   ac2 <main+0x642>
     ac6:	83 c4 10             	add    esp,0x10
     ac9:	8b 86 50 00 00 01    	mov    eax,DWORD PTR [esi+0x1000050]
     acf:	83 f8 04             	cmp    eax,0x4
     ad2:	0f 87 e6 01 00 00    	ja     cbe <main+0x83e>
     ad8:	ff 24 85 28 00 00 00 	jmp    DWORD PTR [eax*4+0x28]
     adf:	c7 46 2c 10 00 00 00 	mov    DWORD PTR [esi+0x2c],0x10
     ae6:	8b 3d 00 00 00 00    	mov    edi,DWORD PTR ds:0x0
     aec:	c1 e7 04             	shl    edi,0x4
     aef:	83 c7 10             	add    edi,0x10
     af2:	b8 10 00 00 00       	mov    eax,0x10
     af7:	e9 c7 01 00 00       	jmp    cc3 <main+0x843>
     afc:	85 c0                	test   eax,eax
     afe:	7e 1b                	jle    b1b <main+0x69b>
     b00:	39 c8                	cmp    eax,ecx
     b02:	7d 17                	jge    b1b <main+0x69b>
     b04:	83 ec 04             	sub    esp,0x4
     b07:	51                   	push   ecx
     b08:	50                   	push   eax
     b09:	68 00 00 00 00       	push   0x0
     b0e:	e8 fc ff ff ff       	call   b0f <main+0x68f>
     b13:	83 c4 10             	add    esp,0x10
     b16:	e9 c3 fe ff ff       	jmp    9de <main+0x55e>
     b1b:	40                   	inc    eax
     b1c:	83 f8 01             	cmp    eax,0x1
     b1f:	77 91                	ja     ab2 <main+0x632>
     b21:	83 ec 08             	sub    esp,0x8
     b24:	68 00 01 00 00       	push   0x100
     b29:	ff 76 18             	push   DWORD PTR [esi+0x18]
     b2c:	e8 fc ff ff ff       	call   b2d <main+0x6ad>
     b31:	83 c4 10             	add    esp,0x10
     b34:	89 c7                	mov    edi,eax
     b36:	83 c0 f8             	add    eax,0xfffffff8
     b39:	3d f8 00 00 00       	cmp    eax,0xf8
     b3e:	0f 87 30 10 00 00    	ja     1b74 <main+0x16f4>
     b44:	8b 5e 18             	mov    ebx,DWORD PTR [esi+0x18]
     b47:	8b 46 08             	mov    eax,DWORD PTR [esi+0x8]
     b4a:	89 44 24 08          	mov    DWORD PTR [esp+0x8],eax
     b4e:	8b 46 0c             	mov    eax,DWORD PTR [esi+0xc]
     b51:	89 f9                	mov    ecx,edi
     b53:	f7 d1                	not    ecx
     b55:	89 44 24 18          	mov    DWORD PTR [esp+0x18],eax
     b59:	29 c1                	sub    ecx,eax
     b5b:	89 4c 24 04          	mov    DWORD PTR [esp+0x4],ecx
     b5f:	b8 01 00 00 00       	mov    eax,0x1
     b64:	31 f6                	xor    esi,esi
     b66:	89 04 24             	mov    DWORD PTR [esp],eax
     b69:	83 ec 08             	sub    esp,0x8
     b6c:	50                   	push   eax
     b6d:	53                   	push   ebx
     b6e:	e8 fc ff ff ff       	call   b6f <main+0x6ef>
     b73:	83 c4 10             	add    esp,0x10
     b76:	89 c5                	mov    ebp,eax
     b78:	8b 04 24             	mov    eax,DWORD PTR [esp]
     b7b:	45                   	inc    ebp
     b7c:	31 f5                	xor    ebp,esi
     b7e:	8b 74 24 04          	mov    esi,DWORD PTR [esp+0x4]
     b82:	29 c6                	sub    esi,eax
     b84:	01 ee                	add    esi,ebp
     b86:	40                   	inc    eax
     b87:	39 f8                	cmp    eax,edi
     b89:	76 db                	jbe    b66 <main+0x6e6>
     b8b:	89 04 24             	mov    DWORD PTR [esp],eax
     b8e:	83 ec 08             	sub    esp,0x8
     b91:	57                   	push   edi
     b92:	53                   	push   ebx
     b93:	e8 fc ff ff ff       	call   b94 <main+0x714>
     b98:	83 c4 10             	add    esp,0x10
     b9b:	89 44 24 10          	mov    DWORD PTR [esp+0x10],eax
     b9f:	83 ec 0c             	sub    esp,0xc
     ba2:	8b 74 24 20          	mov    esi,DWORD PTR [esp+0x20]
     ba6:	ff 76 20             	push   DWORD PTR [esi+0x20]
     ba9:	e8 fc ff ff ff       	call   baa <main+0x72a>
     bae:	83 c4 10             	add    esp,0x10
     bb1:	83 7c 24 18 00       	cmp    DWORD PTR [esp+0x18],0x0
     bb6:	0f 84 80 00 00 00    	je     c3c <main+0x7bc>
     bbc:	8b 4c 24 04          	mov    ecx,DWORD PTR [esp+0x4]
     bc0:	01 e9                	add    ecx,ebp
     bc2:	2b 0c 24             	sub    ecx,DWORD PTR [esp]
     bc5:	41                   	inc    ecx
     bc6:	8b 44 24 10          	mov    eax,DWORD PTR [esp+0x10]
     bca:	21 c8                	and    eax,ecx
     bcc:	c1 e8 12             	shr    eax,0x12
     bcf:	0d 00 40 00 00       	or     eax,0x4000
     bd4:	89 44 24 10          	mov    DWORD PTR [esp+0x10],eax
     bd8:	31 d2                	xor    edx,edx
     bda:	31 c0                	xor    eax,eax
     bdc:	89 44 24 04          	mov    DWORD PTR [esp+0x4],eax
     be0:	89 14 24             	mov    DWORD PTR [esp],edx
     be3:	8b 46 20             	mov    eax,DWORD PTR [esi+0x20]
     be6:	89 f5                	mov    ebp,esi
     be8:	8b 74 24 10          	mov    esi,DWORD PTR [esp+0x10]
     bec:	90                   	nop
     bed:	90                   	nop
     bee:	90                   	nop
     bef:	90                   	nop
     bf0:	83 ec 04             	sub    esp,0x4
     bf3:	57                   	push   edi
     bf4:	53                   	push   ebx
     bf5:	50                   	push   eax
     bf6:	e8 fc ff ff ff       	call   bf7 <main+0x777>
     bfb:	83 c4 10             	add    esp,0x10
     bfe:	8b 45 20             	mov    eax,DWORD PTR [ebp+0x20]
     c01:	4e                   	dec    esi
     c02:	75 ec                	jne    bf0 <main+0x770>
     c04:	83 ec 0c             	sub    esp,0xc
     c07:	50                   	push   eax
     c08:	e8 fc ff ff ff       	call   c09 <main+0x789>
     c0d:	83 c4 10             	add    esp,0x10
     c10:	8b 14 24             	mov    edx,DWORD PTR [esp]
     c13:	83 fa 1f             	cmp    edx,0x1f
     c16:	b8 00 00 00 00       	mov    eax,0x0
     c1b:	0f 47 d0             	cmova  edx,eax
     c1e:	8b 45 20             	mov    eax,DWORD PTR [ebp+0x20]
     c21:	8a 44 10 6c          	mov    al,BYTE PTR [eax+edx*1+0x6c]
     c25:	8b 4c 24 08          	mov    ecx,DWORD PTR [esp+0x8]
     c29:	8b 74 24 04          	mov    esi,DWORD PTR [esp+0x4]
     c2d:	88 04 31             	mov    BYTE PTR [ecx+esi*1],al
     c30:	89 f0                	mov    eax,esi
     c32:	40                   	inc    eax
     c33:	42                   	inc    edx
     c34:	3b 44 24 18          	cmp    eax,DWORD PTR [esp+0x18]
     c38:	89 ee                	mov    esi,ebp
     c3a:	75 a0                	jne    bdc <main+0x75c>
     c3c:	83 ec 04             	sub    esp,0x4
     c3f:	ff 76 24             	push   DWORD PTR [esi+0x24]
     c42:	6a 00                	push   0x0
     c44:	ff 76 20             	push   DWORD PTR [esi+0x20]
     c47:	e8 fc ff ff ff       	call   c48 <main+0x7c8>
     c4c:	83 c4 0c             	add    esp,0xc
     c4f:	ff 76 1c             	push   DWORD PTR [esi+0x1c]
     c52:	6a 00                	push   0x0
     c54:	ff 76 18             	push   DWORD PTR [esi+0x18]
     c57:	e8 fc ff ff ff       	call   c58 <main+0x7d8>
     c5c:	83 c4 10             	add    esp,0x10
     c5f:	c7 46 1c 00 00 00 00 	mov    DWORD PTR [esi+0x1c],0x0
     c66:	83 ec 0c             	sub    esp,0xc
     c69:	68 00 00 00 00       	push   0x0
     c6e:	e8 fc ff ff ff       	call   c6f <main+0x7ef>
     c73:	e9 37 fe ff ff       	jmp    aaf <main+0x62f>
     c78:	8b 46 0c             	mov    eax,DWORD PTR [esi+0xc]
     c7b:	89 46 2c             	mov    DWORD PTR [esi+0x2c],eax
     c7e:	bf a8 00 00 00       	mov    edi,0xa8
     c83:	eb 3e                	jmp    cc3 <main+0x843>
     c85:	c7 46 2c 10 00 00 00 	mov    DWORD PTR [esi+0x2c],0x10
     c8c:	bf a4 10 00 00       	mov    edi,0x10a4
     c91:	b8 10 00 00 00       	mov    eax,0x10
     c96:	eb 2b                	jmp    cc3 <main+0x843>
     c98:	c7 46 2c 08 00 00 00 	mov    DWORD PTR [esi+0x2c],0x8
     c9f:	bf 48 10 00 00       	mov    edi,0x1048
     ca4:	b8 08 00 00 00       	mov    eax,0x8
     ca9:	eb 18                	jmp    cc3 <main+0x843>
     cab:	c7 46 2c 10 00 00 00 	mov    DWORD PTR [esi+0x2c],0x10
     cb2:	bf 54 06 00 00       	mov    edi,0x654
     cb7:	b8 10 00 00 00       	mov    eax,0x10
     cbc:	eb 05                	jmp    cc3 <main+0x843>
     cbe:	8b 46 2c             	mov    eax,DWORD PTR [esi+0x2c]
     cc1:	31 ff                	xor    edi,edi
     cc3:	83 ec 08             	sub    esp,0x8
     cc6:	6a 01                	push   0x1
     cc8:	50                   	push   eax
     cc9:	e8 fc ff ff ff       	call   cca <main+0x84a>
     cce:	83 c4 10             	add    esp,0x10
     cd1:	89 46 28             	mov    DWORD PTR [esi+0x28],eax
     cd4:	85 c0                	test   eax,eax
     cd6:	74 74                	je     d4c <main+0x8cc>
     cd8:	83 be 4c 00 00 01 00 	cmp    DWORD PTR [esi+0x100004c],0x0
     cdf:	75 1d                	jne    cfe <main+0x87e>
     ce1:	83 ec 08             	sub    esp,0x8
     ce4:	6a ff                	push   0xffffffff
     ce6:	6a 00                	push   0x0
     ce8:	e8 fc ff ff ff       	call   ce9 <main+0x869>
     ced:	83 c4 08             	add    esp,0x8
     cf0:	ff 76 2c             	push   DWORD PTR [esi+0x2c]
     cf3:	ff 76 28             	push   DWORD PTR [esi+0x28]
     cf6:	e8 fc ff ff ff       	call   cf7 <main+0x877>
     cfb:	83 c4 10             	add    esp,0x10
     cfe:	83 ec 08             	sub    esp,0x8
     d01:	6a 01                	push   0x1
     d03:	57                   	push   edi
     d04:	e8 fc ff ff ff       	call   d05 <main+0x885>
     d09:	83 c4 10             	add    esp,0x10
     d0c:	89 44 24 1c          	mov    DWORD PTR [esp+0x1c],eax
     d10:	85 c0                	test   eax,eax
     d12:	74 38                	je     d4c <main+0x8cc>
     d14:	8b 86 50 00 00 01    	mov    eax,DWORD PTR [esi+0x1000050]
     d1a:	83 f8 04             	cmp    eax,0x4
     d1d:	0f 87 b6 00 00 00    	ja     dd9 <main+0x959>
     d23:	ff 24 85 3c 00 00 00 	jmp    DWORD PTR [eax*4+0x3c]
     d2a:	8b 4c 24 1c          	mov    ecx,DWORD PTR [esp+0x1c]
     d2e:	89 0d 00 00 00 00    	mov    DWORD PTR ds:0x0,ecx
     d34:	8b 46 0c             	mov    eax,DWORD PTR [esi+0xc]
     d37:	c1 e0 03             	shl    eax,0x3
     d3a:	83 ec 04             	sub    esp,0x4
     d3d:	50                   	push   eax
     d3e:	ff 76 08             	push   DWORD PTR [esi+0x8]
     d41:	51                   	push   ecx
     d42:	e8 fc ff ff ff       	call   d43 <main+0x8c3>
     d47:	e9 8a 00 00 00       	jmp    dd6 <main+0x956>
     d4c:	89 f1                	mov    ecx,esi
     d4e:	e8 9d 0e 00 00       	call   1bf0 <free_global_memory>
     d53:	ff 35 00 00 00 00    	push   DWORD PTR ds:0x0
     d59:	6a 01                	push   0x1
     d5b:	6a 1c                	push   0x1c
     d5d:	68 00 00 00 00       	push   0x0
     d62:	e9 b7 f9 ff ff       	jmp    71e <main+0x29e>
     d67:	8b 54 24 1c          	mov    edx,DWORD PTR [esp+0x1c]
     d6b:	89 15 10 00 00 00    	mov    DWORD PTR ds:0x10,edx
     d71:	8b 46 08             	mov    eax,DWORD PTR [esi+0x8]
     d74:	8b 4e 0c             	mov    ecx,DWORD PTR [esi+0xc]
     d77:	c1 e1 03             	shl    ecx,0x3
     d7a:	50                   	push   eax
     d7b:	50                   	push   eax
     d7c:	51                   	push   ecx
     d7d:	52                   	push   edx
     d7e:	e8 fc ff ff ff       	call   d7f <main+0x8ff>
     d83:	eb 51                	jmp    dd6 <main+0x956>
     d85:	8b 44 24 1c          	mov    eax,DWORD PTR [esp+0x1c]
     d89:	a3 04 00 00 00       	mov    ds:0x4,eax
     d8e:	83 ec 04             	sub    esp,0x4
     d91:	ff 76 0c             	push   DWORD PTR [esi+0xc]
     d94:	ff 76 08             	push   DWORD PTR [esi+0x8]
     d97:	50                   	push   eax
     d98:	e8 fc ff ff ff       	call   d99 <main+0x919>
     d9d:	eb 37                	jmp    dd6 <main+0x956>
     d9f:	8b 44 24 1c          	mov    eax,DWORD PTR [esp+0x1c]
     da3:	a3 0c 00 00 00       	mov    ds:0xc,eax
     da8:	83 ec 04             	sub    esp,0x4
     dab:	ff 76 0c             	push   DWORD PTR [esi+0xc]
     dae:	ff 76 08             	push   DWORD PTR [esi+0x8]
     db1:	50                   	push   eax
     db2:	e8 fc ff ff ff       	call   db3 <main+0x933>
     db7:	eb 1d                	jmp    dd6 <main+0x956>
     db9:	8b 4c 24 1c          	mov    ecx,DWORD PTR [esp+0x1c]
     dbd:	89 0d 08 00 00 00    	mov    DWORD PTR ds:0x8,ecx
     dc3:	8b 46 0c             	mov    eax,DWORD PTR [esi+0xc]
     dc6:	c1 e0 03             	shl    eax,0x3
     dc9:	83 ec 04             	sub    esp,0x4
     dcc:	ff 76 08             	push   DWORD PTR [esi+0x8]
     dcf:	50                   	push   eax
     dd0:	51                   	push   ecx
     dd1:	e8 fc ff ff ff       	call   dd2 <main+0x952>
     dd6:	83 c4 10             	add    esp,0x10
     dd9:	8b 86 50 00 00 01    	mov    eax,DWORD PTR [esi+0x1000050]
     ddf:	83 ec 08             	sub    esp,0x8
     de2:	ff 34 85 94 00 00 00 	push   DWORD PTR [eax*4+0x94]
     de9:	68 00 00 00 00       	push   0x0
     dee:	e8 fc ff ff ff       	call   def <main+0x96f>
     df3:	83 c4 10             	add    esp,0x10
     df6:	31 c0                	xor    eax,eax
     df8:	83 be 4c 00 00 01 00 	cmp    DWORD PTR [esi+0x100004c],0x0
     dff:	0f 95 c0             	setne  al
     e02:	83 ec 04             	sub    esp,0x4
     e05:	ff 36                	push   DWORD PTR [esi]
     e07:	ff 34 85 8c 00 00 00 	push   DWORD PTR [eax*4+0x8c]
     e0e:	68 00 00 00 00       	push   0x0
     e13:	e8 fc ff ff ff       	call   e14 <main+0x994>
     e18:	83 c4 08             	add    esp,0x8
     e1b:	ff 35 00 00 00 00    	push   DWORD PTR ds:0x0
     e21:	ff 36                	push   DWORD PTR [esi]
     e23:	e8 fc ff ff ff       	call   e24 <main+0x9a4>
     e28:	83 c4 10             	add    esp,0x10
     e2b:	85 c0                	test   eax,eax
     e2d:	0f 84 8c 00 00 00    	je     ebf <main+0xa3f>
     e33:	89 c3                	mov    ebx,eax
     e35:	89 7c 24 0c          	mov    DWORD PTR [esp+0xc],edi
     e39:	6a 02                	push   0x2
     e3b:	6a 00                	push   0x0
     e3d:	6a 00                	push   0x0
     e3f:	50                   	push   eax
     e40:	e8 fc ff ff ff       	call   e41 <main+0x9c1>
     e45:	83 c4 10             	add    esp,0x10
     e48:	c7 44 24 08 ff ff ff 	mov    DWORD PTR [esp+0x8],0xffffffff
     e4f:	ff 
     e50:	85 c0                	test   eax,eax
     e52:	ba ff ff ff ff       	mov    edx,0xffffffff
     e57:	75 40                	jne    e99 <main+0xa19>
     e59:	83 ec 0c             	sub    esp,0xc
     e5c:	53                   	push   ebx
     e5d:	e8 fc ff ff ff       	call   e5e <main+0x9de>
     e62:	83 c4 10             	add    esp,0x10
     e65:	89 c7                	mov    edi,eax
     e67:	89 d5                	mov    ebp,edx
     e69:	6a 00                	push   0x0
     e6b:	6a 00                	push   0x0
     e6d:	6a 00                	push   0x0
     e6f:	53                   	push   ebx
     e70:	e8 fc ff ff ff       	call   e71 <main+0x9f1>
     e75:	83 c4 10             	add    esp,0x10
     e78:	c7 44 24 08 ff ff ff 	mov    DWORD PTR [esp+0x8],0xffffffff
     e7f:	ff 
     e80:	85 c0                	test   eax,eax
     e82:	ba ff ff ff ff       	mov    edx,0xffffffff
     e87:	75 10                	jne    e99 <main+0xa19>
     e89:	89 f8                	mov    eax,edi
     e8b:	09 e8                	or     eax,ebp
     e8d:	0f 84 98 08 00 00    	je     172b <main+0x12ab>
     e93:	89 7c 24 08          	mov    DWORD PTR [esp+0x8],edi
     e97:	89 ea                	mov    edx,ebp
     e99:	83 be 4c 00 00 01 00 	cmp    DWORD PTR [esi+0x100004c],0x0
     ea0:	74 27                	je     ec9 <main+0xa49>
     ea2:	8b 46 2c             	mov    eax,DWORD PTR [esi+0x2c]
     ea5:	83 c0 21             	add    eax,0x21
     ea8:	89 f7                	mov    edi,esi
     eaa:	be 08 00 00 00       	mov    esi,0x8
     eaf:	39 44 24 08          	cmp    DWORD PTR [esp+0x8],eax
     eb3:	89 d0                	mov    eax,edx
     eb5:	83 d8 00             	sbb    eax,0x0
     eb8:	7d 29                	jge    ee3 <main+0xa63>
     eba:	e9 71 08 00 00       	jmp    1730 <main+0x12b0>
     ebf:	b8 01 00 00 00       	mov    eax,0x1
     ec4:	e9 6d 0c 00 00       	jmp    1b36 <main+0x16b6>
     ec9:	8b 46 2c             	mov    eax,DWORD PTR [esi+0x2c]
     ecc:	03 44 24 08          	add    eax,DWORD PTR [esp+0x8]
     ed0:	89 d1                	mov    ecx,edx
     ed2:	83 d1 00             	adc    ecx,0x0
     ed5:	83 c0 20             	add    eax,0x20
     ed8:	83 d1 00             	adc    ecx,0x0
     edb:	89 f7                	mov    edi,esi
     edd:	0f 88 48 08 00 00    	js     172b <main+0x12ab>
     ee3:	89 54 24 2c          	mov    DWORD PTR [esp+0x2c],edx
     ee7:	83 ec 08             	sub    esp,0x8
     eea:	ff 35 00 00 00 00    	push   DWORD PTR ds:0x0
     ef0:	ff 77 04             	push   DWORD PTR [edi+0x4]
     ef3:	e8 fc ff ff ff       	call   ef4 <main+0xa74>
     ef8:	83 c4 10             	add    esp,0x10
     efb:	89 44 24 20          	mov    DWORD PTR [esp+0x20],eax
     eff:	85 c0                	test   eax,eax
     f01:	0f 84 e5 07 00 00    	je     16ec <main+0x126c>
     f07:	89 fe                	mov    esi,edi
     f09:	8b 4c 24 08          	mov    ecx,DWORD PTR [esp+0x8]
     f0d:	89 4c 24 68          	mov    DWORD PTR [esp+0x68],ecx
     f11:	8b 7c 24 2c          	mov    edi,DWORD PTR [esp+0x2c]
     f15:	89 7c 24 6c          	mov    DWORD PTR [esp+0x6c],edi
     f19:	df 6c 24 68          	fild   QWORD PTR [esp+0x68]
     f1d:	dd 54 24 54          	fst    QWORD PTR [esp+0x54]
     f21:	d8 35 00 00 00 00    	fdiv   DWORD PTR ds:0x0
     f27:	dd 5c 24 78          	fstp   QWORD PTR [esp+0x78]
     f2b:	81 c1 00 fc ff ff    	add    ecx,0xfffffc00
     f31:	89 fa                	mov    edx,edi
     f33:	83 d2 ff             	adc    edx,0xffffffff
     f36:	b8 01 00 00 00       	mov    eax,0x1
     f3b:	81 f9 00 fc 0f 00    	cmp    ecx,0xffc00
     f41:	83 da 00             	sbb    edx,0x0
     f44:	0f 82 87 00 00 00    	jb     fd1 <main+0xb51>
     f4a:	8b 4c 24 08          	mov    ecx,DWORD PTR [esp+0x8]
     f4e:	81 c1 00 00 f0 ff    	add    ecx,0xfff00000
     f54:	89 fa                	mov    edx,edi
     f56:	83 d2 ff             	adc    edx,0xffffffff
     f59:	b8 02 00 00 00       	mov    eax,0x2
     f5e:	81 f9 00 00 f0 3f    	cmp    ecx,0x3ff00000
     f64:	83 da 00             	sbb    edx,0x0
     f67:	72 68                	jb     fd1 <main+0xb51>
     f69:	8b 44 24 08          	mov    eax,DWORD PTR [esp+0x8]
     f6d:	05 00 00 00 c0       	add    eax,0xc0000000
     f72:	89 f9                	mov    ecx,edi
     f74:	83 d1 ff             	adc    ecx,0xffffffff
     f77:	89 ca                	mov    edx,ecx
     f79:	c1 ea 1e             	shr    edx,0x1e
     f7c:	0f a4 c1 02          	shld   ecx,eax,0x2
     f80:	b8 03 00 00 00       	mov    eax,0x3
     f85:	81 f9 ff 03 00 00    	cmp    ecx,0x3ff
     f8b:	83 da 00             	sbb    edx,0x0
     f8e:	72 41                	jb     fd1 <main+0xb51>
     f90:	8d 8f 00 ff ff ff    	lea    ecx,[edi-0x100]
     f96:	c1 e9 08             	shr    ecx,0x8
     f99:	b8 04 00 00 00       	mov    eax,0x4
     f9e:	81 f9 ff 03 00 00    	cmp    ecx,0x3ff
     fa4:	72 2b                	jb     fd1 <main+0xb51>
     fa6:	8d 8f 00 00 fc ff    	lea    ecx,[edi-0x40000]
     fac:	c1 e9 12             	shr    ecx,0x12
     faf:	b8 05 00 00 00       	mov    eax,0x5
     fb4:	81 f9 ff 03 00 00    	cmp    ecx,0x3ff
     fba:	72 15                	jb     fd1 <main+0xb51>
     fbc:	c7 44 24 3c 00 00 00 	mov    DWORD PTR [esp+0x3c],0x0
     fc3:	00 
     fc4:	b8 06 00 00 00       	mov    eax,0x6
     fc9:	81 ff 00 00 00 10    	cmp    edi,0x10000000
     fcf:	7c 15                	jl     fe6 <main+0xb66>
     fd1:	df 2c c5 c0 00 00 00 	fild   QWORD PTR [eax*8+0xc0]
     fd8:	dd 44 24 54          	fld    QWORD PTR [esp+0x54]
     fdc:	de f1                	fdivrp st(1),st
     fde:	dd 5c 24 54          	fstp   QWORD PTR [esp+0x54]
     fe2:	89 44 24 3c          	mov    DWORD PTR [esp+0x3c],eax
     fe6:	8d 86 30 00 00 01    	lea    eax,[esi+0x1000030]
     fec:	83 ec 04             	sub    esp,0x4
     fef:	6a 19                	push   0x19
     ff1:	6a 2e                	push   0x2e
     ff3:	89 44 24 4c          	mov    DWORD PTR [esp+0x4c],eax
     ff7:	50                   	push   eax
     ff8:	e8 fc ff ff ff       	call   ff9 <main+0xb79>
     ffd:	83 c4 04             	add    esp,0x4
    1000:	ff 76 20             	push   DWORD PTR [esi+0x20]
    1003:	e8 fc ff ff ff       	call   1004 <main+0xb84>
    1008:	83 c4 10             	add    esp,0x10
    100b:	83 7c 24 08 01       	cmp    DWORD PTR [esp+0x8],0x1
    1010:	8b 44 24 2c          	mov    eax,DWORD PTR [esp+0x2c]
    1014:	83 d8 00             	sbb    eax,0x0
    1017:	89 5c 24 24          	mov    DWORD PTR [esp+0x24],ebx
    101b:	0f 8c 69 07 00 00    	jl     178a <main+0x130a>
    1021:	8d 86 30 00 80 00    	lea    eax,[esi+0x800030]
    1027:	89 44 24 04          	mov    DWORD PTR [esp+0x4],eax
    102b:	8d 86 34 00 80 00    	lea    eax,[esi+0x800034]
    1031:	89 44 24 50          	mov    DWORD PTR [esp+0x50],eax
    1035:	8d 7e 30             	lea    edi,[esi+0x30]
    1038:	31 ed                	xor    ebp,ebp
    103a:	31 c9                	xor    ecx,ecx
    103c:	c7 44 24 48 00 00 00 	mov    DWORD PTR [esp+0x48],0x0
    1043:	00 
    1044:	c7 44 24 44 00 00 00 	mov    DWORD PTR [esp+0x44],0x0
    104b:	00 
    104c:	89 3c 24             	mov    DWORD PTR [esp],edi
    104f:	e9 b0 00 00 00       	jmp    1104 <main+0xc84>
    1054:	df 2c c5 c0 00 00 00 	fild   QWORD PTR [eax*8+0xc0]
    105b:	dd 44 24 70          	fld    QWORD PTR [esp+0x70]
    105f:	de f1                	fdivrp st(1),st
    1061:	89 c1                	mov    ecx,eax
    1063:	31 c0                	xor    eax,eax
    1065:	83 be 4c 00 00 01 00 	cmp    DWORD PTR [esi+0x100004c],0x0
    106c:	0f 95 c0             	setne  al
    106f:	8b 04 85 8c 00 00 00 	mov    eax,DWORD PTR [eax*4+0x8c]
    1076:	8b 0c 8d a8 00 00 00 	mov    ecx,DWORD PTR [ecx*4+0xa8]
    107d:	8b 54 24 3c          	mov    edx,DWORD PTR [esp+0x3c]
    1081:	8b 14 95 a8 00 00 00 	mov    edx,DWORD PTR [edx*4+0xa8]
    1088:	83 ec 30             	sub    esp,0x30
    108b:	8b 5c 24 7c          	mov    ebx,DWORD PTR [esp+0x7c]
    108f:	89 5c 24 24          	mov    DWORD PTR [esp+0x24],ebx
    1093:	89 54 24 20          	mov    DWORD PTR [esp+0x20],edx
    1097:	dd 84 24 84 00 00 00 	fld    QWORD PTR [esp+0x84]
    109e:	dd 5c 24 18          	fstp   QWORD PTR [esp+0x18]
    10a2:	89 4c 24 14          	mov    DWORD PTR [esp+0x14],ecx
    10a6:	dd 5c 24 0c          	fstp   QWORD PTR [esp+0xc]
    10aa:	8b 4c 24 70          	mov    ecx,DWORD PTR [esp+0x70]
    10ae:	89 4c 24 08          	mov    DWORD PTR [esp+0x8],ecx
    10b2:	89 44 24 04          	mov    DWORD PTR [esp+0x4],eax
    10b6:	c7 04 24 00 00 00 00 	mov    DWORD PTR [esp],0x0
    10bd:	e8 fc ff ff ff       	call   10be <main+0xc3e>
    10c2:	83 c4 24             	add    esp,0x24
    10c5:	ff 35 00 00 00 00    	push   DWORD PTR ds:0x0
    10cb:	e8 fc ff ff ff       	call   10cc <main+0xc4c>
    10d0:	83 c4 10             	add    esp,0x10
    10d3:	89 5c 24 44          	mov    DWORD PTR [esp+0x44],ebx
    10d7:	8b 5c 24 24          	mov    ebx,DWORD PTR [esp+0x24]
    10db:	8b 44 24 48          	mov    eax,DWORD PTR [esp+0x48]
    10df:	03 44 24 34          	add    eax,DWORD PTR [esp+0x34]
    10e3:	0f 88 b5 03 00 00    	js     149e <main+0x101e>
    10e9:	89 44 24 48          	mov    DWORD PTR [esp+0x48],eax
    10ed:	3b 6c 24 08          	cmp    ebp,DWORD PTR [esp+0x8]
    10f1:	8b 4c 24 18          	mov    ecx,DWORD PTR [esp+0x18]
    10f5:	89 c8                	mov    eax,ecx
    10f7:	1b 44 24 2c          	sbb    eax,DWORD PTR [esp+0x2c]
    10fb:	8b 3c 24             	mov    edi,DWORD PTR [esp]
    10fe:	0f 8d 8e 06 00 00    	jge    1792 <main+0x1312>
    1104:	89 e8                	mov    eax,ebp
    1106:	09 c8                	or     eax,ecx
    1108:	0f 84 40 03 00 00    	je     144e <main+0xfce>
    110e:	89 4c 24 18          	mov    DWORD PTR [esp+0x18],ecx
    1112:	89 6c 24 10          	mov    DWORD PTR [esp+0x10],ebp
    1116:	53                   	push   ebx
    1117:	68 00 00 80 00       	push   0x800000
    111c:	6a 01                	push   0x1
    111e:	57                   	push   edi
    111f:	e8 fc ff ff ff       	call   1120 <main+0xca0>
    1124:	83 c4 10             	add    esp,0x10
    1127:	89 c3                	mov    ebx,eax
    1129:	85 c0                	test   eax,eax
    112b:	8b 7c 24 04          	mov    edi,DWORD PTR [esp+0x4]
    112f:	0f 84 12 01 00 00    	je     1247 <main+0xdc7>
    1135:	31 ed                	xor    ebp,ebp
    1137:	eb 71                	jmp    11aa <main+0xd2a>
    1139:	8d 84 2e 30 00 80 00 	lea    eax,[esi+ebp*1+0x800030]
    1140:	83 ec 04             	sub    esp,0x4
    1143:	50                   	push   eax
    1144:	ff 76 28             	push   DWORD PTR [esi+0x28]
    1147:	ff 35 10 00 00 00    	push   DWORD PTR ds:0x10
    114d:	e8 fc ff ff ff       	call   114e <main+0xcce>
    1152:	90                   	nop
    1153:	90                   	nop
    1154:	90                   	nop
    1155:	90                   	nop
    1156:	90                   	nop
    1157:	90                   	nop
    1158:	90                   	nop
    1159:	90                   	nop
    115a:	90                   	nop
    115b:	90                   	nop
    115c:	90                   	nop
    115d:	90                   	nop
    115e:	90                   	nop
    115f:	90                   	nop
    1160:	83 c4 10             	add    esp,0x10
    1163:	8d 84 2e 30 00 80 00 	lea    eax,[esi+ebp*1+0x800030]
    116a:	8d 4c 2e 30          	lea    ecx,[esi+ebp*1+0x30]
    116e:	83 ec 04             	sub    esp,0x4
    1171:	ff 76 2c             	push   DWORD PTR [esi+0x2c]
    1174:	51                   	push   ecx
    1175:	50                   	push   eax
    1176:	e8 fc ff ff ff       	call   1177 <main+0xcf7>
    117b:	83 c4 10             	add    esp,0x10
    117e:	83 be 4c 00 00 01 00 	cmp    DWORD PTR [esi+0x100004c],0x0
    1185:	8b 04 24             	mov    eax,DWORD PTR [esp]
    1188:	0f 44 c7             	cmove  eax,edi
    118b:	01 e8                	add    eax,ebp
    118d:	83 ec 04             	sub    esp,0x4
    1190:	ff 76 2c             	push   DWORD PTR [esi+0x2c]
    1193:	50                   	push   eax
    1194:	ff 76 28             	push   DWORD PTR [esi+0x28]
    1197:	e8 fc ff ff ff       	call   1198 <main+0xd18>
    119c:	83 c4 10             	add    esp,0x10
    119f:	03 6e 2c             	add    ebp,DWORD PTR [esi+0x2c]
    11a2:	39 dd                	cmp    ebp,ebx
    11a4:	0f 83 9d 00 00 00    	jae    1247 <main+0xdc7>
    11aa:	8b 86 50 00 00 01    	mov    eax,DWORD PTR [esi+0x1000050]
    11b0:	83 f8 04             	cmp    eax,0x4
    11b3:	77 ae                	ja     1163 <main+0xce3>
    11b5:	ff 24 85 64 00 00 00 	jmp    DWORD PTR [eax*4+0x64]
    11bc:	8d 84 2e 30 00 80 00 	lea    eax,[esi+ebp*1+0x800030]
    11c3:	83 ec 04             	sub    esp,0x4
    11c6:	50                   	push   eax
    11c7:	ff 76 28             	push   DWORD PTR [esi+0x28]
    11ca:	ff 35 00 00 00 00    	push   DWORD PTR ds:0x0
    11d0:	e8 fc ff ff ff       	call   11d1 <main+0xd51>
    11d5:	eb 89                	jmp    1160 <main+0xce0>
    11d7:	8d 84 2e 30 00 80 00 	lea    eax,[esi+ebp*1+0x800030]
    11de:	83 ec 04             	sub    esp,0x4
    11e1:	50                   	push   eax
    11e2:	ff 76 28             	push   DWORD PTR [esi+0x28]
    11e5:	ff 35 04 00 00 00    	push   DWORD PTR ds:0x4
    11eb:	e8 fc ff ff ff       	call   11ec <main+0xd6c>
    11f0:	e9 6b ff ff ff       	jmp    1160 <main+0xce0>
    11f5:	8b 46 28             	mov    eax,DWORD PTR [esi+0x28]
    11f8:	8d 48 04             	lea    ecx,[eax+0x4]
    11fb:	83 ec 04             	sub    esp,0x4
    11fe:	51                   	push   ecx
    11ff:	50                   	push   eax
    1200:	ff 35 0c 00 00 00    	push   DWORD PTR ds:0xc
    1206:	e8 fc ff ff ff       	call   1207 <main+0xd87>
    120b:	83 c4 10             	add    esp,0x10
    120e:	8d 84 2e 30 00 80 00 	lea    eax,[esi+ebp*1+0x800030]
    1215:	83 ec 04             	sub    esp,0x4
    1218:	ff 76 2c             	push   DWORD PTR [esi+0x2c]
    121b:	ff 76 28             	push   DWORD PTR [esi+0x28]
    121e:	50                   	push   eax
    121f:	e8 fc ff ff ff       	call   1220 <main+0xda0>
    1224:	e9 37 ff ff ff       	jmp    1160 <main+0xce0>
    1229:	8d 84 2e 30 00 80 00 	lea    eax,[esi+ebp*1+0x800030]
    1230:	83 ec 04             	sub    esp,0x4
    1233:	50                   	push   eax
    1234:	ff 76 28             	push   DWORD PTR [esi+0x28]
    1237:	ff 35 08 00 00 00    	push   DWORD PTR ds:0x8
    123d:	e8 fc ff ff ff       	call   123e <main+0xdbe>
    1242:	e9 19 ff ff ff       	jmp    1160 <main+0xce0>
    1247:	8b 4c 24 10          	mov    ecx,DWORD PTR [esp+0x10]
    124b:	01 d9                	add    ecx,ebx
    124d:	8b 54 24 18          	mov    edx,DWORD PTR [esp+0x18]
    1251:	83 d2 00             	adc    edx,0x0
    1254:	89 4c 24 60          	mov    DWORD PTR [esp+0x60],ecx
    1258:	89 54 24 64          	mov    DWORD PTR [esp+0x64],edx
    125c:	df 6c 24 60          	fild   QWORD PTR [esp+0x60]
    1260:	dd 44 24 78          	fld    QWORD PTR [esp+0x78]
    1264:	d9 c9                	fxch   st(1)
    1266:	dd 54 24 70          	fst    QWORD PTR [esp+0x70]
    126a:	de f1                	fdivrp st(1),st
    126c:	dc 05 00 00 00 00    	fadd   QWORD PTR ds:0x0
    1272:	d9 7c 24 2a          	fnstcw WORD PTR [esp+0x2a]
    1276:	0f b7 44 24 2a       	movzx  eax,WORD PTR [esp+0x2a]
    127b:	0d 00 0c 00 00       	or     eax,0xc00
    1280:	66 89 44 24 3a       	mov    WORD PTR [esp+0x3a],ax
    1285:	d9 6c 24 3a          	fldcw  WORD PTR [esp+0x3a]
    1289:	db 5c 24 5c          	fistp  DWORD PTR [esp+0x5c]
    128d:	d9 6c 24 2a          	fldcw  WORD PTR [esp+0x2a]
    1291:	8b 7c 24 5c          	mov    edi,DWORD PTR [esp+0x5c]
    1295:	83 ff 65             	cmp    edi,0x65
    1298:	b8 64 00 00 00       	mov    eax,0x64
    129d:	0f 4d f8             	cmovge edi,eax
    12a0:	89 7c 24 4c          	mov    DWORD PTR [esp+0x4c],edi
    12a4:	89 4c 24 10          	mov    DWORD PTR [esp+0x10],ecx
    12a8:	89 c8                	mov    eax,ecx
    12aa:	33 44 24 08          	xor    eax,DWORD PTR [esp+0x8]
    12ae:	89 54 24 18          	mov    DWORD PTR [esp+0x18],edx
    12b2:	89 d1                	mov    ecx,edx
    12b4:	33 4c 24 2c          	xor    ecx,DWORD PTR [esp+0x2c]
    12b8:	09 c1                	or     ecx,eax
    12ba:	75 10                	jne    12cc <main+0xe4c>
    12bc:	8d 43 e0             	lea    eax,[ebx-0x20]
    12bf:	81 be 4c 00 00 01 de 	cmp    DWORD PTR [esi+0x100004c],0xde
    12c6:	00 00 00 
    12c9:	0f 44 d8             	cmove  ebx,eax
    12cc:	85 db                	test   ebx,ebx
    12ce:	89 df                	mov    edi,ebx
    12d0:	ba 00 04 00 00       	mov    edx,0x400
    12d5:	74 44                	je     131b <main+0xe9b>
    12d7:	89 f5                	mov    ebp,esi
    12d9:	31 f6                	xor    esi,esi
    12db:	89 f8                	mov    eax,edi
    12dd:	89 fb                	mov    ebx,edi
    12df:	90                   	nop
    12e0:	83 bd 4c 00 00 01 00 	cmp    DWORD PTR [ebp+0x100004c],0x0
    12e7:	8b 4c 24 04          	mov    ecx,DWORD PTR [esp+0x4]
    12eb:	0f 44 0c 24          	cmove  ecx,DWORD PTR [esp]
    12ef:	01 f1                	add    ecx,esi
    12f1:	81 eb 00 04 00 00    	sub    ebx,0x400
    12f7:	0f 43 c2             	cmovae eax,edx
    12fa:	83 ec 04             	sub    esp,0x4
    12fd:	50                   	push   eax
    12fe:	51                   	push   ecx
    12ff:	ff 75 20             	push   DWORD PTR [ebp+0x20]
    1302:	e8 fc ff ff ff       	call   1303 <main+0xe83>
    1307:	ba 00 04 00 00       	mov    edx,0x400
    130c:	83 c4 10             	add    esp,0x10
    130f:	81 c6 00 04 00 00    	add    esi,0x400
    1315:	39 fe                	cmp    esi,edi
    1317:	89 d8                	mov    eax,ebx
    1319:	72 c5                	jb     12e0 <main+0xe60>
    131b:	8b 5c 24 20          	mov    ebx,DWORD PTR [esp+0x20]
    131f:	53                   	push   ebx
    1320:	57                   	push   edi
    1321:	6a 01                	push   0x1
    1323:	ff 74 24 10          	push   DWORD PTR [esp+0x10]
    1327:	e8 fc ff ff ff       	call   1328 <main+0xea8>
    132c:	83 c4 10             	add    esp,0x10
    132f:	89 f9                	mov    ecx,edi
    1331:	89 7c 24 34          	mov    DWORD PTR [esp+0x34],edi
    1335:	83 ec 0c             	sub    esp,0xc
    1338:	39 f8                	cmp    eax,edi
    133a:	0f 85 39 07 00 00    	jne    1a79 <main+0x15f9>
    1340:	53                   	push   ebx
    1341:	e8 fc ff ff ff       	call   1342 <main+0xec2>
    1346:	83 c4 10             	add    esp,0x10
    1349:	8b 4c 24 4c          	mov    ecx,DWORD PTR [esp+0x4c]
    134d:	3b 4c 24 44          	cmp    ecx,DWORD PTR [esp+0x44]
    1351:	8b 74 24 14          	mov    esi,DWORD PTR [esp+0x14]
    1355:	8b 5c 24 24          	mov    ebx,DWORD PTR [esp+0x24]
    1359:	8d bc 24 80 00 00 00 	lea    edi,[esp+0x80]
    1360:	8b 6c 24 10          	mov    ebp,DWORD PTR [esp+0x10]
    1364:	0f 8e 71 fd ff ff    	jle    10db <main+0xc5b>
    136a:	8d 41 03             	lea    eax,[ecx+0x3]
    136d:	85 c9                	test   ecx,ecx
    136f:	0f 49 c1             	cmovns eax,ecx
    1372:	c1 f8 02             	sar    eax,0x2
    1375:	83 ec 04             	sub    esp,0x4
    1378:	50                   	push   eax
    1379:	6a 23                	push   0x23
    137b:	ff 74 24 4c          	push   DWORD PTR [esp+0x4c]
    137f:	e8 fc ff ff ff       	call   1380 <main+0xf00>
    1384:	83 c4 10             	add    esp,0x10
    1387:	89 e9                	mov    ecx,ebp
    1389:	81 c1 00 fc ff ff    	add    ecx,0xfffffc00
    138f:	8b 5c 24 18          	mov    ebx,DWORD PTR [esp+0x18]
    1393:	89 da                	mov    edx,ebx
    1395:	83 d2 ff             	adc    edx,0xffffffff
    1398:	b8 01 00 00 00       	mov    eax,0x1
    139d:	81 f9 00 fc 0f 00    	cmp    ecx,0xffc00
    13a3:	83 da 00             	sbb    edx,0x0
    13a6:	0f 82 a8 fc ff ff    	jb     1054 <main+0xbd4>
    13ac:	89 e9                	mov    ecx,ebp
    13ae:	81 c1 00 00 f0 ff    	add    ecx,0xfff00000
    13b4:	89 da                	mov    edx,ebx
    13b6:	83 d2 ff             	adc    edx,0xffffffff
    13b9:	b8 02 00 00 00       	mov    eax,0x2
    13be:	81 f9 00 00 f0 3f    	cmp    ecx,0x3ff00000
    13c4:	83 da 00             	sbb    edx,0x0
    13c7:	0f 82 87 fc ff ff    	jb     1054 <main+0xbd4>
    13cd:	89 e9                	mov    ecx,ebp
    13cf:	81 c1 00 00 00 c0    	add    ecx,0xc0000000
    13d5:	89 da                	mov    edx,ebx
    13d7:	83 d2 ff             	adc    edx,0xffffffff
    13da:	b8 03 00 00 00       	mov    eax,0x3
    13df:	bd 00 00 00 c0       	mov    ebp,0xc0000000
    13e4:	39 e9                	cmp    ecx,ebp
    13e6:	8b 6c 24 10          	mov    ebp,DWORD PTR [esp+0x10]
    13ea:	8d bc 24 80 00 00 00 	lea    edi,[esp+0x80]
    13f1:	b9 ff 00 00 00       	mov    ecx,0xff
    13f6:	19 ca                	sbb    edx,ecx
    13f8:	0f 82 56 fc ff ff    	jb     1054 <main+0xbd4>
    13fe:	8d 8b 00 ff ff ff    	lea    ecx,[ebx-0x100]
    1404:	c1 e9 08             	shr    ecx,0x8
    1407:	b8 04 00 00 00       	mov    eax,0x4
    140c:	81 f9 ff 03 00 00    	cmp    ecx,0x3ff
    1412:	0f 82 3c fc ff ff    	jb     1054 <main+0xbd4>
    1418:	8d 8b 00 00 fc ff    	lea    ecx,[ebx-0x40000]
    141e:	c1 e9 12             	shr    ecx,0x12
    1421:	b8 05 00 00 00       	mov    eax,0x5
    1426:	81 f9 ff 03 00 00    	cmp    ecx,0x3ff
    142c:	0f 82 22 fc ff ff    	jb     1054 <main+0xbd4>
    1432:	31 c9                	xor    ecx,ecx
    1434:	b8 06 00 00 00       	mov    eax,0x6
    1439:	81 fb 00 00 00 10    	cmp    ebx,0x10000000
    143f:	0f 8d 0f fc ff ff    	jge    1054 <main+0xbd4>
    1445:	dd 44 24 70          	fld    QWORD PTR [esp+0x70]
    1449:	e9 15 fc ff ff       	jmp    1063 <main+0xbe3>
    144e:	8b 86 4c 00 00 01    	mov    eax,DWORD PTR [esi+0x100004c]
    1454:	3d de 00 00 00       	cmp    eax,0xde
    1459:	0f 84 47 01 00 00    	je     15a6 <main+0x1126>
    145f:	31 ed                	xor    ebp,ebp
    1461:	85 c0                	test   eax,eax
    1463:	b9 00 00 00 00       	mov    ecx,0x0
    1468:	0f 85 a0 fc ff ff    	jne    110e <main+0xc8e>
    146e:	8b 86 50 00 00 01    	mov    eax,DWORD PTR [esi+0x1000050]
    1474:	83 f8 04             	cmp    eax,0x4
    1477:	0f 87 24 02 00 00    	ja     16a1 <main+0x1221>
    147d:	ff 24 85 50 00 00 00 	jmp    DWORD PTR [eax*4+0x50]
    1484:	83 ec 04             	sub    esp,0x4
    1487:	ff 74 24 08          	push   DWORD PTR [esp+0x8]
    148b:	ff 76 28             	push   DWORD PTR [esi+0x28]
    148e:	ff 35 00 00 00 00    	push   DWORD PTR ds:0x0
    1494:	e8 fc ff ff ff       	call   1495 <main+0x1015>
    1499:	e9 00 02 00 00       	jmp    169e <main+0x121e>
    149e:	83 ec 04             	sub    esp,0x4
    14a1:	68 8c 00 00 00       	push   0x8c
    14a6:	6a 00                	push   0x0
    14a8:	57                   	push   edi
    14a9:	e8 fc ff ff ff       	call   14aa <main+0x102a>
    14ae:	83 c4 0c             	add    esp,0xc
    14b1:	ff 76 14             	push   DWORD PTR [esi+0x14]
    14b4:	6a 00                	push   0x0
    14b6:	ff 76 10             	push   DWORD PTR [esi+0x10]
    14b9:	e8 fc ff ff ff       	call   14ba <main+0x103a>
    14be:	83 c4 04             	add    esp,0x4
    14c1:	57                   	push   edi
    14c2:	e8 fc ff ff ff       	call   14c3 <main+0x1043>
    14c7:	83 c4 10             	add    esp,0x10
    14ca:	8b 46 08             	mov    eax,DWORD PTR [esi+0x8]
    14cd:	8b 4e 0c             	mov    ecx,DWORD PTR [esi+0xc]
    14d0:	85 c9                	test   ecx,ecx
    14d2:	74 5e                	je     1532 <main+0x10b2>
    14d4:	31 ed                	xor    ebp,ebp
    14d6:	31 db                	xor    ebx,ebx
    14d8:	8d bc 24 80 00 00 00 	lea    edi,[esp+0x80]
    14df:	83 ec 04             	sub    esp,0x4
    14e2:	51                   	push   ecx
    14e3:	50                   	push   eax
    14e4:	57                   	push   edi
    14e5:	e8 fc ff ff ff       	call   14e6 <main+0x1066>
    14ea:	83 c4 04             	add    esp,0x4
    14ed:	57                   	push   edi
    14ee:	e8 fc ff ff ff       	call   14ef <main+0x106f>
    14f3:	83 c4 10             	add    esp,0x10
    14f6:	8b 46 0c             	mov    eax,DWORD PTR [esi+0xc]
    14f9:	01 e8                	add    eax,ebp
    14fb:	83 f8 21             	cmp    eax,0x21
    14fe:	b9 20 00 00 00       	mov    ecx,0x20
    1503:	0f 4d c1             	cmovge eax,ecx
    1506:	8b 4e 10             	mov    ecx,DWORD PTR [esi+0x10]
    1509:	01 d9                	add    ecx,ebx
    150b:	83 ec 04             	sub    esp,0x4
    150e:	50                   	push   eax
    150f:	8d 84 24 f4 00 00 00 	lea    eax,[esp+0xf4]
    1516:	50                   	push   eax
    1517:	51                   	push   ecx
    1518:	e8 fc ff ff ff       	call   1519 <main+0x1099>
    151d:	83 c4 10             	add    esp,0x10
    1520:	83 c3 20             	add    ebx,0x20
    1523:	8b 46 08             	mov    eax,DWORD PTR [esi+0x8]
    1526:	8b 4e 0c             	mov    ecx,DWORD PTR [esi+0xc]
    1529:	83 c5 e0             	add    ebp,0xffffffe0
    152c:	39 cb                	cmp    ebx,ecx
    152e:	72 af                	jb     14df <main+0x105f>
    1530:	eb 07                	jmp    1539 <main+0x10b9>
    1532:	8d bc 24 80 00 00 00 	lea    edi,[esp+0x80]
    1539:	83 ec 04             	sub    esp,0x4
    153c:	ff 76 14             	push   DWORD PTR [esi+0x14]
    153f:	ff 76 10             	push   DWORD PTR [esi+0x10]
    1542:	50                   	push   eax
    1543:	e8 fc ff ff ff       	call   1544 <main+0x10c4>
    1548:	83 c4 0c             	add    esp,0xc
    154b:	68 8c 00 00 00       	push   0x8c
    1550:	6a 00                	push   0x0
    1552:	57                   	push   edi
    1553:	e8 fc ff ff ff       	call   1554 <main+0x10d4>
    1558:	83 c4 0c             	add    esp,0xc
    155b:	ff 76 14             	push   DWORD PTR [esi+0x14]
    155e:	6a 00                	push   0x0
    1560:	ff 76 10             	push   DWORD PTR [esi+0x10]
    1563:	e8 fc ff ff ff       	call   1564 <main+0x10e4>
    1568:	83 c4 10             	add    esp,0x10
    156b:	8b 86 50 00 00 01    	mov    eax,DWORD PTR [esi+0x1000050]
    1571:	83 f8 04             	cmp    eax,0x4
    1574:	8b 5c 24 24          	mov    ebx,DWORD PTR [esp+0x24]
    1578:	8b 6c 24 10          	mov    ebp,DWORD PTR [esp+0x10]
    157c:	0f 87 aa 00 00 00    	ja     162c <main+0x11ac>
    1582:	ff 24 85 78 00 00 00 	jmp    DWORD PTR [eax*4+0x78]
    1589:	8b 46 0c             	mov    eax,DWORD PTR [esi+0xc]
    158c:	c1 e0 03             	shl    eax,0x3
    158f:	83 ec 04             	sub    esp,0x4
    1592:	50                   	push   eax
    1593:	ff 76 08             	push   DWORD PTR [esi+0x8]
    1596:	ff 35 00 00 00 00    	push   DWORD PTR ds:0x0
    159c:	e8 fc ff ff ff       	call   159d <main+0x111d>
    15a1:	e9 83 00 00 00       	jmp    1629 <main+0x11a9>
    15a6:	53                   	push   ebx
    15a7:	ff 76 2c             	push   DWORD PTR [esi+0x2c]
    15aa:	6a 01                	push   0x1
    15ac:	ff 76 28             	push   DWORD PTR [esi+0x28]
    15af:	e8 fc ff ff ff       	call   15b0 <main+0x1130>
    15b4:	83 c4 10             	add    esp,0x10
    15b7:	3b 46 2c             	cmp    eax,DWORD PTR [esi+0x2c]
    15ba:	0f 85 c9 05 00 00    	jne    1b89 <main+0x1709>
    15c0:	89 c5                	mov    ebp,eax
    15c2:	89 c1                	mov    ecx,eax
    15c4:	c1 f9 1f             	sar    ecx,0x1f
    15c7:	e9 42 fb ff ff       	jmp    110e <main+0xc8e>
    15cc:	8b 46 08             	mov    eax,DWORD PTR [esi+0x8]
    15cf:	8b 4e 0c             	mov    ecx,DWORD PTR [esi+0xc]
    15d2:	c1 e1 03             	shl    ecx,0x3
    15d5:	50                   	push   eax
    15d6:	50                   	push   eax
    15d7:	51                   	push   ecx
    15d8:	ff 35 10 00 00 00    	push   DWORD PTR ds:0x10
    15de:	e8 fc ff ff ff       	call   15df <main+0x115f>
    15e3:	eb 44                	jmp    1629 <main+0x11a9>
    15e5:	83 ec 04             	sub    esp,0x4
    15e8:	ff 76 0c             	push   DWORD PTR [esi+0xc]
    15eb:	ff 76 08             	push   DWORD PTR [esi+0x8]
    15ee:	ff 35 04 00 00 00    	push   DWORD PTR ds:0x4
    15f4:	e8 fc ff ff ff       	call   15f5 <main+0x1175>
    15f9:	eb 2e                	jmp    1629 <main+0x11a9>
    15fb:	83 ec 04             	sub    esp,0x4
    15fe:	ff 76 0c             	push   DWORD PTR [esi+0xc]
    1601:	ff 76 08             	push   DWORD PTR [esi+0x8]
    1604:	ff 35 0c 00 00 00    	push   DWORD PTR ds:0xc
    160a:	e8 fc ff ff ff       	call   160b <main+0x118b>
    160f:	eb 18                	jmp    1629 <main+0x11a9>
    1611:	8b 46 0c             	mov    eax,DWORD PTR [esi+0xc]
    1614:	c1 e0 03             	shl    eax,0x3
    1617:	83 ec 04             	sub    esp,0x4
    161a:	ff 76 08             	push   DWORD PTR [esi+0x8]
    161d:	50                   	push   eax
    161e:	ff 35 08 00 00 00    	push   DWORD PTR ds:0x8
    1624:	e8 fc ff ff ff       	call   1625 <main+0x11a5>
    1629:	83 c4 10             	add    esp,0x10
    162c:	31 c0                	xor    eax,eax
    162e:	e9 b6 fa ff ff       	jmp    10e9 <main+0xc69>
    1633:	83 ec 04             	sub    esp,0x4
    1636:	ff 74 24 08          	push   DWORD PTR [esp+0x8]
    163a:	ff 76 28             	push   DWORD PTR [esi+0x28]
    163d:	ff 35 10 00 00 00    	push   DWORD PTR ds:0x10
    1643:	e8 fc ff ff ff       	call   1644 <main+0x11c4>
    1648:	eb 54                	jmp    169e <main+0x121e>
    164a:	83 ec 04             	sub    esp,0x4
    164d:	ff 74 24 08          	push   DWORD PTR [esp+0x8]
    1651:	ff 76 28             	push   DWORD PTR [esi+0x28]
    1654:	ff 35 04 00 00 00    	push   DWORD PTR ds:0x4
    165a:	e8 fc ff ff ff       	call   165b <main+0x11db>
    165f:	eb 3d                	jmp    169e <main+0x121e>
    1661:	83 ec 04             	sub    esp,0x4
    1664:	ff 76 2c             	push   DWORD PTR [esi+0x2c]
    1667:	ff 76 28             	push   DWORD PTR [esi+0x28]
    166a:	8b 7c 24 10          	mov    edi,DWORD PTR [esp+0x10]
    166e:	57                   	push   edi
    166f:	e8 fc ff ff ff       	call   1670 <main+0x11f0>
    1674:	83 c4 0c             	add    esp,0xc
    1677:	ff 74 24 54          	push   DWORD PTR [esp+0x54]
    167b:	57                   	push   edi
    167c:	ff 35 0c 00 00 00    	push   DWORD PTR ds:0xc
    1682:	e8 fc ff ff ff       	call   1683 <main+0x1203>
    1687:	eb 15                	jmp    169e <main+0x121e>
    1689:	83 ec 04             	sub    esp,0x4
    168c:	ff 74 24 08          	push   DWORD PTR [esp+0x8]
    1690:	ff 76 28             	push   DWORD PTR [esi+0x28]
    1693:	ff 35 08 00 00 00    	push   DWORD PTR ds:0x8
    1699:	e8 fc ff ff ff       	call   169a <main+0x121a>
    169e:	83 c4 10             	add    esp,0x10
    16a1:	83 ec 04             	sub    esp,0x4
    16a4:	ff 76 2c             	push   DWORD PTR [esi+0x2c]
    16a7:	ff 74 24 0c          	push   DWORD PTR [esp+0xc]
    16ab:	ff 76 28             	push   DWORD PTR [esi+0x28]
    16ae:	e8 fc ff ff ff       	call   16af <main+0x122f>
    16b3:	83 c4 10             	add    esp,0x10
    16b6:	8b 7c 24 20          	mov    edi,DWORD PTR [esp+0x20]
    16ba:	57                   	push   edi
    16bb:	ff 76 2c             	push   DWORD PTR [esi+0x2c]
    16be:	6a 01                	push   0x1
    16c0:	ff 76 28             	push   DWORD PTR [esi+0x28]
    16c3:	e8 fc ff ff ff       	call   16c4 <main+0x1244>
    16c8:	83 c4 10             	add    esp,0x10
    16cb:	3b 46 2c             	cmp    eax,DWORD PTR [esi+0x2c]
    16ce:	0f 85 e1 03 00 00    	jne    1ab5 <main+0x1635>
    16d4:	83 ec 0c             	sub    esp,0xc
    16d7:	57                   	push   edi
    16d8:	e8 fc ff ff ff       	call   16d9 <main+0x1259>
    16dd:	83 c4 10             	add    esp,0x10
    16e0:	31 ed                	xor    ebp,ebp
    16e2:	31 c9                	xor    ecx,ecx
    16e4:	8b 3c 24             	mov    edi,DWORD PTR [esp]
    16e7:	e9 22 fa ff ff       	jmp    110e <main+0xc8e>
    16ec:	83 ec 0c             	sub    esp,0xc
    16ef:	53                   	push   ebx
    16f0:	e8 fc ff ff ff       	call   16f1 <main+0x1271>
    16f5:	83 c4 10             	add    esp,0x10
    16f8:	31 c9                	xor    ecx,ecx
    16fa:	83 f8 ff             	cmp    eax,0xffffffff
    16fd:	0f 94 c1             	sete   cl
    1700:	8d 04 8d 02 00 00 00 	lea    eax,[ecx*4+0x2]
    1707:	8b 7c 24 0c          	mov    edi,DWORD PTR [esp+0xc]
    170b:	e9 26 04 00 00       	jmp    1b36 <main+0x16b6>
    1710:	89 d9                	mov    ecx,ebx
    1712:	e8 d9 04 00 00       	call   1bf0 <free_global_memory>
    1717:	ff 35 00 00 00 00    	push   DWORD PTR ds:0x0
    171d:	6a 01                	push   0x1
    171f:	6a 28                	push   0x28
    1721:	68 00 00 00 00       	push   0x0
    1726:	e9 f3 ef ff ff       	jmp    71e <main+0x29e>
    172b:	be 03 00 00 00       	mov    esi,0x3
    1730:	83 ec 0c             	sub    esp,0xc
    1733:	53                   	push   ebx
    1734:	e8 fc ff ff ff       	call   1735 <main+0x12b5>
    1739:	83 c4 10             	add    esp,0x10
    173c:	83 f8 ff             	cmp    eax,0xffffffff
    173f:	b8 06 00 00 00       	mov    eax,0x6
    1744:	0f 45 c6             	cmovne eax,esi
    1747:	8b 7c 24 0c          	mov    edi,DWORD PTR [esp+0xc]
    174b:	e9 e6 03 00 00       	jmp    1b36 <main+0x16b6>
    1750:	8b 4c 24 14          	mov    ecx,DWORD PTR [esp+0x14]
    1754:	e8 97 04 00 00       	call   1bf0 <free_global_memory>
    1759:	ff 35 00 00 00 00    	push   DWORD PTR ds:0x0
    175f:	6a 01                	push   0x1
    1761:	6a 2a                	push   0x2a
    1763:	68 00 00 00 00       	push   0x0
    1768:	e9 b1 ef ff ff       	jmp    71e <main+0x29e>
    176d:	8b 4c 24 14          	mov    ecx,DWORD PTR [esp+0x14]
    1771:	e8 7a 04 00 00       	call   1bf0 <free_global_memory>
    1776:	ff 35 00 00 00 00    	push   DWORD PTR ds:0x0
    177c:	6a 01                	push   0x1
    177e:	6a 29                	push   0x29
    1780:	68 00 00 00 00       	push   0x0
    1785:	e9 94 ef ff ff       	jmp    71e <main+0x29e>
    178a:	c7 44 24 34 00 00 00 	mov    DWORD PTR [esp+0x34],0x0
    1791:	00 
    1792:	83 ec 08             	sub    esp,0x8
    1795:	ff 35 00 00 00 00    	push   DWORD PTR ds:0x0
    179b:	6a 0a                	push   0xa
    179d:	e8 fc ff ff ff       	call   179e <main+0x131e>
    17a2:	83 c4 04             	add    esp,0x4
    17a5:	ff 76 20             	push   DWORD PTR [esi+0x20]
    17a8:	e8 fc ff ff ff       	call   17a9 <main+0x1329>
    17ad:	83 c4 04             	add    esp,0x4
    17b0:	6a 60                	push   0x60
    17b2:	e8 fc ff ff ff       	call   17b3 <main+0x1333>
    17b7:	83 c4 10             	add    esp,0x10
    17ba:	85 c0                	test   eax,eax
    17bc:	0f 84 0f 04 00 00    	je     1bd1 <main+0x1751>
    17c2:	89 c5                	mov    ebp,eax
    17c4:	8b 7e 0c             	mov    edi,DWORD PTR [esi+0xc]
    17c7:	8b 46 20             	mov    eax,DWORD PTR [esi+0x20]
    17ca:	83 ff 20             	cmp    edi,0x20
    17cd:	89 f2                	mov    edx,esi
    17cf:	be 20 00 00 00       	mov    esi,0x20
    17d4:	0f 42 f7             	cmovb  esi,edi
    17d7:	8b 88 88 00 00 00    	mov    ecx,DWORD PTR [eax+0x88]
    17dd:	89 4d 1c             	mov    DWORD PTR [ebp+0x1c],ecx
    17e0:	8b 88 84 00 00 00    	mov    ecx,DWORD PTR [eax+0x84]
    17e6:	89 4d 18             	mov    DWORD PTR [ebp+0x18],ecx
    17e9:	8b 88 80 00 00 00    	mov    ecx,DWORD PTR [eax+0x80]
    17ef:	89 4d 14             	mov    DWORD PTR [ebp+0x14],ecx
    17f2:	8b 48 7c             	mov    ecx,DWORD PTR [eax+0x7c]
    17f5:	89 4d 10             	mov    DWORD PTR [ebp+0x10],ecx
    17f8:	8b 48 78             	mov    ecx,DWORD PTR [eax+0x78]
    17fb:	89 4d 0c             	mov    DWORD PTR [ebp+0xc],ecx
    17fe:	8b 48 74             	mov    ecx,DWORD PTR [eax+0x74]
    1801:	89 4d 08             	mov    DWORD PTR [ebp+0x8],ecx
    1804:	8b 48 6c             	mov    ecx,DWORD PTR [eax+0x6c]
    1807:	8b 40 70             	mov    eax,DWORD PTR [eax+0x70]
    180a:	89 45 04             	mov    DWORD PTR [ebp+0x4],eax
    180d:	89 4d 00             	mov    DWORD PTR [ebp+0x0],ecx
    1810:	8d 45 20             	lea    eax,[ebp+0x20]
    1813:	8b 5a 08             	mov    ebx,DWORD PTR [edx+0x8]
    1816:	83 ec 04             	sub    esp,0x4
    1819:	56                   	push   esi
    181a:	53                   	push   ebx
    181b:	89 44 24 0c          	mov    DWORD PTR [esp+0xc],eax
    181f:	50                   	push   eax
    1820:	e8 fc ff ff ff       	call   1821 <main+0x13a1>
    1825:	83 c4 10             	add    esp,0x10
    1828:	8d 45 40             	lea    eax,[ebp+0x40]
    182b:	83 ec 04             	sub    esp,0x4
    182e:	56                   	push   esi
    182f:	53                   	push   ebx
    1830:	89 c3                	mov    ebx,eax
    1832:	50                   	push   eax
    1833:	e8 fc ff ff ff       	call   1834 <main+0x13b4>
    1838:	83 c4 10             	add    esp,0x10
    183b:	83 ff 1f             	cmp    edi,0x1f
    183e:	77 1d                	ja     185d <main+0x13dd>
    1840:	83 fe 1f             	cmp    esi,0x1f
    1843:	b8 1f 00 00 00       	mov    eax,0x1f
    1848:	0f 47 c6             	cmova  eax,esi
    184b:	29 f8                	sub    eax,edi
    184d:	40                   	inc    eax
    184e:	8d 4c 2f 40          	lea    ecx,[edi+ebp*1+0x40]
    1852:	c6 41 e0 00          	mov    BYTE PTR [ecx-0x20],0x0
    1856:	c6 01 00             	mov    BYTE PTR [ecx],0x0
    1859:	41                   	inc    ecx
    185a:	48                   	dec    eax
    185b:	75 f5                	jne    1852 <main+0x13d2>
    185d:	80 75 20 55          	xor    BYTE PTR [ebp+0x20],0x55
    1861:	80 75 40 66          	xor    BYTE PTR [ebp+0x40],0x66
    1865:	80 75 21 55          	xor    BYTE PTR [ebp+0x21],0x55
    1869:	80 75 41 66          	xor    BYTE PTR [ebp+0x41],0x66
    186d:	80 75 22 55          	xor    BYTE PTR [ebp+0x22],0x55
    1871:	80 75 42 66          	xor    BYTE PTR [ebp+0x42],0x66
    1875:	80 75 23 55          	xor    BYTE PTR [ebp+0x23],0x55
    1879:	80 75 43 66          	xor    BYTE PTR [ebp+0x43],0x66
    187d:	80 75 24 55          	xor    BYTE PTR [ebp+0x24],0x55
    1881:	80 75 44 66          	xor    BYTE PTR [ebp+0x44],0x66
    1885:	80 75 25 55          	xor    BYTE PTR [ebp+0x25],0x55
    1889:	80 75 45 66          	xor    BYTE PTR [ebp+0x45],0x66
    188d:	80 75 26 55          	xor    BYTE PTR [ebp+0x26],0x55
    1891:	80 75 46 66          	xor    BYTE PTR [ebp+0x46],0x66
    1895:	80 75 27 55          	xor    BYTE PTR [ebp+0x27],0x55
    1899:	80 75 47 66          	xor    BYTE PTR [ebp+0x47],0x66
    189d:	80 75 28 55          	xor    BYTE PTR [ebp+0x28],0x55
    18a1:	80 75 48 66          	xor    BYTE PTR [ebp+0x48],0x66
    18a5:	80 75 29 55          	xor    BYTE PTR [ebp+0x29],0x55
    18a9:	80 75 49 66          	xor    BYTE PTR [ebp+0x49],0x66
    18ad:	80 75 2a 55          	xor    BYTE PTR [ebp+0x2a],0x55
    18b1:	80 75 4a 66          	xor    BYTE PTR [ebp+0x4a],0x66
    18b5:	80 75 2b 55          	xor    BYTE PTR [ebp+0x2b],0x55
    18b9:	80 75 4b 66          	xor    BYTE PTR [ebp+0x4b],0x66
    18bd:	80 75 2c 55          	xor    BYTE PTR [ebp+0x2c],0x55
    18c1:	80 75 4c 66          	xor    BYTE PTR [ebp+0x4c],0x66
    18c5:	80 75 2d 55          	xor    BYTE PTR [ebp+0x2d],0x55
    18c9:	80 75 4d 66          	xor    BYTE PTR [ebp+0x4d],0x66
    18cd:	80 75 2e 55          	xor    BYTE PTR [ebp+0x2e],0x55
    18d1:	80 75 4e 66          	xor    BYTE PTR [ebp+0x4e],0x66
    18d5:	80 75 2f 55          	xor    BYTE PTR [ebp+0x2f],0x55
    18d9:	80 75 4f 66          	xor    BYTE PTR [ebp+0x4f],0x66
    18dd:	80 75 30 55          	xor    BYTE PTR [ebp+0x30],0x55
    18e1:	80 75 50 66          	xor    BYTE PTR [ebp+0x50],0x66
    18e5:	80 75 31 55          	xor    BYTE PTR [ebp+0x31],0x55
    18e9:	80 75 51 66          	xor    BYTE PTR [ebp+0x51],0x66
    18ed:	80 75 32 55          	xor    BYTE PTR [ebp+0x32],0x55
    18f1:	80 75 52 66          	xor    BYTE PTR [ebp+0x52],0x66
    18f5:	80 75 33 55          	xor    BYTE PTR [ebp+0x33],0x55
    18f9:	80 75 53 66          	xor    BYTE PTR [ebp+0x53],0x66
    18fd:	80 75 34 55          	xor    BYTE PTR [ebp+0x34],0x55
    1901:	80 75 54 66          	xor    BYTE PTR [ebp+0x54],0x66
    1905:	80 75 35 55          	xor    BYTE PTR [ebp+0x35],0x55
    1909:	80 75 55 66          	xor    BYTE PTR [ebp+0x55],0x66
    190d:	80 75 36 55          	xor    BYTE PTR [ebp+0x36],0x55
    1911:	80 75 56 66          	xor    BYTE PTR [ebp+0x56],0x66
    1915:	80 75 37 55          	xor    BYTE PTR [ebp+0x37],0x55
    1919:	80 75 57 66          	xor    BYTE PTR [ebp+0x57],0x66
    191d:	80 75 38 55          	xor    BYTE PTR [ebp+0x38],0x55
    1921:	80 75 58 66          	xor    BYTE PTR [ebp+0x58],0x66
    1925:	80 75 39 55          	xor    BYTE PTR [ebp+0x39],0x55
    1929:	80 75 59 66          	xor    BYTE PTR [ebp+0x59],0x66
    192d:	80 75 3a 55          	xor    BYTE PTR [ebp+0x3a],0x55
    1931:	80 75 5a 66          	xor    BYTE PTR [ebp+0x5a],0x66
    1935:	80 75 3b 55          	xor    BYTE PTR [ebp+0x3b],0x55
    1939:	80 75 5b 66          	xor    BYTE PTR [ebp+0x5b],0x66
    193d:	80 75 3c 55          	xor    BYTE PTR [ebp+0x3c],0x55
    1941:	80 75 5c 66          	xor    BYTE PTR [ebp+0x5c],0x66
    1945:	80 75 3d 55          	xor    BYTE PTR [ebp+0x3d],0x55
    1949:	80 75 5d 66          	xor    BYTE PTR [ebp+0x5d],0x66
    194d:	80 75 3e 55          	xor    BYTE PTR [ebp+0x3e],0x55
    1951:	80 75 5e 66          	xor    BYTE PTR [ebp+0x5e],0x66
    1955:	80 75 3f 55          	xor    BYTE PTR [ebp+0x3f],0x55
    1959:	80 75 5f 66          	xor    BYTE PTR [ebp+0x5f],0x66
    195d:	83 ec 04             	sub    esp,0x4
    1960:	8b 74 24 18          	mov    esi,DWORD PTR [esp+0x18]
    1964:	ff 76 24             	push   DWORD PTR [esi+0x24]
    1967:	6a 00                	push   0x0
    1969:	ff 76 20             	push   DWORD PTR [esi+0x20]
    196c:	e8 fc ff ff ff       	call   196d <main+0x14ed>
    1971:	83 c4 04             	add    esp,0x4
    1974:	ff 76 20             	push   DWORD PTR [esi+0x20]
    1977:	e8 fc ff ff ff       	call   1978 <main+0x14f8>
    197c:	83 c4 0c             	add    esp,0xc
    197f:	6a 20                	push   0x20
    1981:	ff 74 24 08          	push   DWORD PTR [esp+0x8]
    1985:	ff 76 20             	push   DWORD PTR [esi+0x20]
    1988:	e8 fc ff ff ff       	call   1989 <main+0x1509>
    198d:	83 c4 0c             	add    esp,0xc
    1990:	6a 20                	push   0x20
    1992:	55                   	push   ebp
    1993:	ff 76 20             	push   DWORD PTR [esi+0x20]
    1996:	e8 fc ff ff ff       	call   1997 <main+0x1517>
    199b:	83 c4 04             	add    esp,0x4
    199e:	ff 76 20             	push   DWORD PTR [esi+0x20]
    19a1:	e8 fc ff ff ff       	call   19a2 <main+0x1522>
    19a6:	83 c4 10             	add    esp,0x10
    19a9:	8b 46 20             	mov    eax,DWORD PTR [esi+0x20]
    19ac:	8b 88 88 00 00 00    	mov    ecx,DWORD PTR [eax+0x88]
    19b2:	89 4d 1c             	mov    DWORD PTR [ebp+0x1c],ecx
    19b5:	8b 88 84 00 00 00    	mov    ecx,DWORD PTR [eax+0x84]
    19bb:	89 4d 18             	mov    DWORD PTR [ebp+0x18],ecx
    19be:	8b 88 80 00 00 00    	mov    ecx,DWORD PTR [eax+0x80]
    19c4:	89 4d 14             	mov    DWORD PTR [ebp+0x14],ecx
    19c7:	8b 48 7c             	mov    ecx,DWORD PTR [eax+0x7c]
    19ca:	89 4d 10             	mov    DWORD PTR [ebp+0x10],ecx
    19cd:	8b 48 78             	mov    ecx,DWORD PTR [eax+0x78]
    19d0:	89 4d 0c             	mov    DWORD PTR [ebp+0xc],ecx
    19d3:	8b 48 74             	mov    ecx,DWORD PTR [eax+0x74]
    19d6:	89 4d 08             	mov    DWORD PTR [ebp+0x8],ecx
    19d9:	8b 48 6c             	mov    ecx,DWORD PTR [eax+0x6c]
    19dc:	8b 50 70             	mov    edx,DWORD PTR [eax+0x70]
    19df:	89 55 04             	mov    DWORD PTR [ebp+0x4],edx
    19e2:	89 4d 00             	mov    DWORD PTR [ebp+0x0],ecx
    19e5:	83 ec 04             	sub    esp,0x4
    19e8:	ff 76 24             	push   DWORD PTR [esi+0x24]
    19eb:	6a 00                	push   0x0
    19ed:	50                   	push   eax
    19ee:	e8 fc ff ff ff       	call   19ef <main+0x156f>
    19f3:	83 c4 04             	add    esp,0x4
    19f6:	ff 76 20             	push   DWORD PTR [esi+0x20]
    19f9:	e8 fc ff ff ff       	call   19fa <main+0x157a>
    19fe:	83 c4 0c             	add    esp,0xc
    1a01:	6a 20                	push   0x20
    1a03:	53                   	push   ebx
    1a04:	ff 76 20             	push   DWORD PTR [esi+0x20]
    1a07:	e8 fc ff ff ff       	call   1a08 <main+0x1588>
    1a0c:	83 c4 0c             	add    esp,0xc
    1a0f:	6a 20                	push   0x20
    1a11:	55                   	push   ebp
    1a12:	ff 76 20             	push   DWORD PTR [esi+0x20]
    1a15:	e8 fc ff ff ff       	call   1a16 <main+0x1596>
    1a1a:	83 c4 04             	add    esp,0x4
    1a1d:	ff 76 20             	push   DWORD PTR [esi+0x20]
    1a20:	e8 fc ff ff ff       	call   1a21 <main+0x15a1>
    1a25:	83 c4 0c             	add    esp,0xc
    1a28:	6a 60                	push   0x60
    1a2a:	6a 00                	push   0x0
    1a2c:	55                   	push   ebp
    1a2d:	e8 fc ff ff ff       	call   1a2e <main+0x15ae>
    1a32:	83 c4 04             	add    esp,0x4
    1a35:	55                   	push   ebp
    1a36:	e8 fc ff ff ff       	call   1a37 <main+0x15b7>
    1a3b:	83 c4 10             	add    esp,0x10
    1a3e:	83 be 4c 00 00 01 00 	cmp    DWORD PTR [esi+0x100004c],0x0
    1a45:	8b 5c 24 24          	mov    ebx,DWORD PTR [esp+0x24]
    1a49:	74 42                	je     1a8d <main+0x160d>
    1a4b:	8b 44 24 34          	mov    eax,DWORD PTR [esp+0x34]
    1a4f:	8d 44 06 30          	lea    eax,[esi+eax*1+0x30]
    1a53:	8b 4e 20             	mov    ecx,DWORD PTR [esi+0x20]
    1a56:	83 c1 6c             	add    ecx,0x6c
    1a59:	83 ec 04             	sub    esp,0x4
    1a5c:	6a 20                	push   0x20
    1a5e:	51                   	push   ecx
    1a5f:	50                   	push   eax
    1a60:	e8 fc ff ff ff       	call   1a61 <main+0x15e1>
    1a65:	83 c4 10             	add    esp,0x10
    1a68:	85 c0                	test   eax,eax
    1a6a:	8b 06                	mov    eax,DWORD PTR [esi]
    1a6c:	74 7e                	je     1aec <main+0x166c>
    1a6e:	83 ec 08             	sub    esp,0x8
    1a71:	50                   	push   eax
    1a72:	68 00 00 00 00       	push   0x0
    1a77:	eb 7c                	jmp    1af5 <main+0x1675>
    1a79:	ff 74 24 30          	push   DWORD PTR [esp+0x30]
    1a7d:	e8 fc ff ff ff       	call   1a7e <main+0x15fe>
    1a82:	83 c4 10             	add    esp,0x10
    1a85:	89 c6                	mov    esi,eax
    1a87:	83 ec 0c             	sub    esp,0xc
    1a8a:	53                   	push   ebx
    1a8b:	eb 3a                	jmp    1ac7 <main+0x1647>
    1a8d:	8b 46 20             	mov    eax,DWORD PTR [esi+0x20]
    1a90:	83 c0 6c             	add    eax,0x6c
    1a93:	8b 7c 24 20          	mov    edi,DWORD PTR [esp+0x20]
    1a97:	57                   	push   edi
    1a98:	6a 20                	push   0x20
    1a9a:	6a 01                	push   0x1
    1a9c:	50                   	push   eax
    1a9d:	e8 fc ff ff ff       	call   1a9e <main+0x161e>
    1aa2:	83 c4 10             	add    esp,0x10
    1aa5:	83 f8 20             	cmp    eax,0x20
    1aa8:	75 0b                	jne    1ab5 <main+0x1635>
    1aaa:	83 ec 0c             	sub    esp,0xc
    1aad:	57                   	push   edi
    1aae:	e8 fc ff ff ff       	call   1aaf <main+0x162f>
    1ab3:	eb 45                	jmp    1afa <main+0x167a>
    1ab5:	83 ec 0c             	sub    esp,0xc
    1ab8:	53                   	push   ebx
    1ab9:	e8 fc ff ff ff       	call   1aba <main+0x163a>
    1abe:	83 c4 10             	add    esp,0x10
    1ac1:	89 c6                	mov    esi,eax
    1ac3:	83 ec 0c             	sub    esp,0xc
    1ac6:	57                   	push   edi
    1ac7:	e8 fc ff ff ff       	call   1ac8 <main+0x1648>
    1acc:	83 c4 10             	add    esp,0x10
    1acf:	31 c9                	xor    ecx,ecx
    1ad1:	83 f8 ff             	cmp    eax,0xffffffff
    1ad4:	0f 94 c1             	sete   cl
    1ad7:	83 fe ff             	cmp    esi,0xffffffff
    1ada:	8d 4c 49 04          	lea    ecx,[ecx+ecx*2+0x4]
    1ade:	b8 06 00 00 00       	mov    eax,0x6
    1ae3:	0f 45 c1             	cmovne eax,ecx
    1ae6:	8b 7c 24 0c          	mov    edi,DWORD PTR [esp+0xc]
    1aea:	eb 4a                	jmp    1b36 <main+0x16b6>
    1aec:	83 ec 08             	sub    esp,0x8
    1aef:	50                   	push   eax
    1af0:	68 00 00 00 00       	push   0x0
    1af5:	e8 fc ff ff ff       	call   1af6 <main+0x1676>
    1afa:	83 c4 10             	add    esp,0x10
    1afd:	8b 7c 24 0c          	mov    edi,DWORD PTR [esp+0xc]
    1b01:	83 ec 0c             	sub    esp,0xc
    1b04:	53                   	push   ebx
    1b05:	e8 fc ff ff ff       	call   1b06 <main+0x1686>
    1b0a:	83 c4 10             	add    esp,0x10
    1b0d:	89 c6                	mov    esi,eax
    1b0f:	83 ec 0c             	sub    esp,0xc
    1b12:	ff 74 24 2c          	push   DWORD PTR [esp+0x2c]
    1b16:	e8 fc ff ff ff       	call   1b17 <main+0x1697>
    1b1b:	83 c4 10             	add    esp,0x10
    1b1e:	31 c9                	xor    ecx,ecx
    1b20:	83 f8 ff             	cmp    eax,0xffffffff
    1b23:	ba 07 00 00 00       	mov    edx,0x7
    1b28:	0f 45 d1             	cmovne edx,ecx
    1b2b:	83 fe ff             	cmp    esi,0xffffffff
    1b2e:	b8 06 00 00 00       	mov    eax,0x6
    1b33:	0f 45 c2             	cmovne eax,edx
    1b36:	8b 74 24 30          	mov    esi,DWORD PTR [esp+0x30]
    1b3a:	83 ec 08             	sub    esp,0x8
    1b3d:	50                   	push   eax
    1b3e:	56                   	push   esi
    1b3f:	e8 fc ff ff ff       	call   1b40 <main+0x16c0>
    1b44:	83 c4 0c             	add    esp,0xc
    1b47:	57                   	push   edi
    1b48:	6a 00                	push   0x0
    1b4a:	8b 7c 24 28          	mov    edi,DWORD PTR [esp+0x28]
    1b4e:	57                   	push   edi
    1b4f:	e8 fc ff ff ff       	call   1b50 <main+0x16d0>
    1b54:	83 c4 04             	add    esp,0x4
    1b57:	57                   	push   edi
    1b58:	e8 fc ff ff ff       	call   1b59 <main+0x16d9>
    1b5d:	83 c4 10             	add    esp,0x10
    1b60:	89 f1                	mov    ecx,esi
    1b62:	e8 89 00 00 00       	call   1bf0 <free_global_memory>
    1b67:	c7 44 24 30 00 00 00 	mov    DWORD PTR [esp+0x30],0x0
    1b6e:	00 
    1b6f:	e9 42 ea ff ff       	jmp    5b6 <main+0x136>
    1b74:	89 f1                	mov    ecx,esi
    1b76:	e8 75 00 00 00       	call   1bf0 <free_global_memory>
    1b7b:	83 ec 04             	sub    esp,0x4
    1b7e:	57                   	push   edi
    1b7f:	68 00 00 00 00       	push   0x0
    1b84:	e9 3c ea ff ff       	jmp    5c5 <main+0x145>
    1b89:	83 ec 0c             	sub    esp,0xc
    1b8c:	53                   	push   ebx
    1b8d:	e8 fc ff ff ff       	call   1b8e <main+0x170e>
    1b92:	83 c4 10             	add    esp,0x10
    1b95:	89 c6                	mov    esi,eax
    1b97:	83 ec 0c             	sub    esp,0xc
    1b9a:	ff 74 24 2c          	push   DWORD PTR [esp+0x2c]
    1b9e:	e8 fc ff ff ff       	call   1b9f <main+0x171f>
    1ba3:	83 c4 10             	add    esp,0x10
    1ba6:	31 c9                	xor    ecx,ecx
    1ba8:	83 f8 ff             	cmp    eax,0xffffffff
    1bab:	0f 94 c1             	sete   cl
    1bae:	83 fe ff             	cmp    esi,0xffffffff
    1bb1:	8d 4c 09 05          	lea    ecx,[ecx+ecx*1+0x5]
    1bb5:	e9 24 ff ff ff       	jmp    1ade <main+0x165e>
    1bba:	89 f1                	mov    ecx,esi
    1bbc:	e8 2f 00 00 00       	call   1bf0 <free_global_memory>
    1bc1:	83 ec 04             	sub    esp,0x4
    1bc4:	ff 77 04             	push   DWORD PTR [edi+0x4]
    1bc7:	68 00 00 00 00       	push   0x0
    1bcc:	e9 f4 e9 ff ff       	jmp    5c5 <main+0x145>
    1bd1:	ff 35 00 00 00 00    	push   DWORD PTR ds:0x0
    1bd7:	6a 01                	push   0x1
    1bd9:	6a 1c                	push   0x1c
    1bdb:	68 00 00 00 00       	push   0x0
    1be0:	e8 fc ff ff ff       	call   1be1 <main+0x1761>
    1be5:	83 c4 04             	add    esp,0x4
    1be8:	6a 01                	push   0x1
    1bea:	e8 fc ff ff ff       	call   1beb <main+0x176b>
    1bef:	90                   	nop

00001bf0 <free_global_memory>:
    1bf0:	56                   	push   esi
    1bf1:	83 ec 08             	sub    esp,0x8
    1bf4:	89 ce                	mov    esi,ecx
    1bf6:	8b 41 08             	mov    eax,DWORD PTR [ecx+0x8]
    1bf9:	85 c0                	test   eax,eax
    1bfb:	74 16                	je     1c13 <free_global_memory+0x23>
    1bfd:	8b 4e 0c             	mov    ecx,DWORD PTR [esi+0xc]
    1c00:	85 c9                	test   ecx,ecx
    1c02:	74 0f                	je     1c13 <free_global_memory+0x23>
    1c04:	83 ec 04             	sub    esp,0x4
    1c07:	51                   	push   ecx
    1c08:	6a 00                	push   0x0
    1c0a:	50                   	push   eax
    1c0b:	e8 fc ff ff ff       	call   1c0c <free_global_memory+0x1c>
    1c10:	83 c4 10             	add    esp,0x10
    1c13:	8b 46 10             	mov    eax,DWORD PTR [esi+0x10]
    1c16:	85 c0                	test   eax,eax
    1c18:	74 16                	je     1c30 <free_global_memory+0x40>
    1c1a:	8b 4e 14             	mov    ecx,DWORD PTR [esi+0x14]
    1c1d:	85 c9                	test   ecx,ecx
    1c1f:	74 0f                	je     1c30 <free_global_memory+0x40>
    1c21:	83 ec 04             	sub    esp,0x4
    1c24:	51                   	push   ecx
    1c25:	6a 00                	push   0x0
    1c27:	50                   	push   eax
    1c28:	e8 fc ff ff ff       	call   1c29 <free_global_memory+0x39>
    1c2d:	83 c4 10             	add    esp,0x10
    1c30:	8b 46 18             	mov    eax,DWORD PTR [esi+0x18]
    1c33:	85 c0                	test   eax,eax
    1c35:	74 16                	je     1c4d <free_global_memory+0x5d>
    1c37:	8b 4e 1c             	mov    ecx,DWORD PTR [esi+0x1c]
    1c3a:	85 c9                	test   ecx,ecx
    1c3c:	74 0f                	je     1c4d <free_global_memory+0x5d>
    1c3e:	83 ec 04             	sub    esp,0x4
    1c41:	51                   	push   ecx
    1c42:	6a 00                	push   0x0
    1c44:	50                   	push   eax
    1c45:	e8 fc ff ff ff       	call   1c46 <free_global_memory+0x56>
    1c4a:	83 c4 10             	add    esp,0x10
    1c4d:	8b 46 20             	mov    eax,DWORD PTR [esi+0x20]
    1c50:	85 c0                	test   eax,eax
    1c52:	74 16                	je     1c6a <free_global_memory+0x7a>
    1c54:	8b 4e 24             	mov    ecx,DWORD PTR [esi+0x24]
    1c57:	85 c9                	test   ecx,ecx
    1c59:	74 0f                	je     1c6a <free_global_memory+0x7a>
    1c5b:	83 ec 04             	sub    esp,0x4
    1c5e:	51                   	push   ecx
    1c5f:	6a 00                	push   0x0
    1c61:	50                   	push   eax
    1c62:	e8 fc ff ff ff       	call   1c63 <free_global_memory+0x73>
    1c67:	83 c4 10             	add    esp,0x10
    1c6a:	8b 46 28             	mov    eax,DWORD PTR [esi+0x28]
    1c6d:	85 c0                	test   eax,eax
    1c6f:	74 16                	je     1c87 <free_global_memory+0x97>
    1c71:	8b 4e 2c             	mov    ecx,DWORD PTR [esi+0x2c]
    1c74:	85 c9                	test   ecx,ecx
    1c76:	74 0f                	je     1c87 <free_global_memory+0x97>
    1c78:	83 ec 04             	sub    esp,0x4
    1c7b:	51                   	push   ecx
    1c7c:	6a 00                	push   0x0
    1c7e:	50                   	push   eax
    1c7f:	e8 fc ff ff ff       	call   1c80 <free_global_memory+0x90>
    1c84:	83 c4 10             	add    esp,0x10
    1c87:	83 ec 0c             	sub    esp,0xc
    1c8a:	ff 76 08             	push   DWORD PTR [esi+0x8]
    1c8d:	e8 fc ff ff ff       	call   1c8e <free_global_memory+0x9e>
    1c92:	83 c4 04             	add    esp,0x4
    1c95:	ff 76 10             	push   DWORD PTR [esi+0x10]
    1c98:	e8 fc ff ff ff       	call   1c99 <free_global_memory+0xa9>
    1c9d:	83 c4 04             	add    esp,0x4
    1ca0:	ff 76 18             	push   DWORD PTR [esi+0x18]
    1ca3:	e8 fc ff ff ff       	call   1ca4 <free_global_memory+0xb4>
    1ca8:	83 c4 04             	add    esp,0x4
    1cab:	ff 76 20             	push   DWORD PTR [esi+0x20]
    1cae:	e8 fc ff ff ff       	call   1caf <free_global_memory+0xbf>
    1cb3:	83 c4 04             	add    esp,0x4
    1cb6:	ff 76 28             	push   DWORD PTR [esi+0x28]
    1cb9:	e8 fc ff ff ff       	call   1cba <free_global_memory+0xca>
    1cbe:	83 c4 0c             	add    esp,0xc
    1cc1:	68 54 00 00 01       	push   0x1000054
    1cc6:	6a 00                	push   0x0
    1cc8:	56                   	push   esi
    1cc9:	e8 fc ff ff ff       	call   1cca <free_global_memory+0xda>
    1cce:	83 c4 04             	add    esp,0x4
    1cd1:	56                   	push   esi
    1cd2:	e8 fc ff ff ff       	call   1cd3 <free_global_memory+0xe3>
    1cd7:	83 c4 18             	add    esp,0x18
    1cda:	5e                   	pop    esi
    1cdb:	c3                   	ret    

Дизассемблирование раздела .rodata:

00000000 <OPERATION_NAME-0x8c>:
   0:	97                   	xchg   edi,eax
   1:	01 00                	add    DWORD PTR [eax],eax
   3:	00 c1                	add    cl,al
   5:	01 00                	add    DWORD PTR [eax],eax
   7:	00 dd                	add    ch,bl
   9:	01 00                	add    DWORD PTR [eax],eax
   b:	00 ea                	add    dl,ch
   d:	01 00                	add    DWORD PTR [eax],eax
   f:	00 f6                	add    dh,dh
  11:	01 00                	add    DWORD PTR [eax],eax
  13:	00 03                	add    BYTE PTR [ebx],al
  15:	02 00                	add    al,BYTE PTR [eax]
  17:	00 0f                	add    BYTE PTR [edi],cl
  19:	02 00                	add    al,BYTE PTR [eax]
  1b:	00 20                	add    BYTE PTR [eax],ah
  1d:	02 00                	add    al,BYTE PTR [eax]
  1f:	00 31                	add    BYTE PTR [ecx],dh
  21:	02 00                	add    al,BYTE PTR [eax]
  23:	00 4a 02             	add    BYTE PTR [edx+0x2],cl
  26:	00 00                	add    BYTE PTR [eax],al
  28:	df 0a                	fisttp WORD PTR [edx]
  2a:	00 00                	add    BYTE PTR [eax],al
  2c:	ab                   	stos   DWORD PTR es:[edi],eax
  2d:	0c 00                	or     al,0x0
  2f:	00 85 0c 00 00 98    	add    BYTE PTR [ebp-0x67fffff4],al
  35:	0c 00                	or     al,0x0
  37:	00 78 0c             	add    BYTE PTR [eax+0xc],bh
  3a:	00 00                	add    BYTE PTR [eax],al
  3c:	2a 0d 00 00 b9 0d    	sub    cl,BYTE PTR ds:0xdb90000
  42:	00 00                	add    BYTE PTR [eax],al
  44:	85 0d 00 00 9f 0d    	test   DWORD PTR ds:0xd9f0000,ecx
  4a:	00 00                	add    BYTE PTR [eax],al
  4c:	67 0d 00 00 84 14    	addr16 or eax,0x14840000
  52:	00 00                	add    BYTE PTR [eax],al
  54:	89 16                	mov    DWORD PTR [esi],edx
  56:	00 00                	add    BYTE PTR [eax],al
  58:	4a                   	dec    edx
  59:	16                   	push   ss
  5a:	00 00                	add    BYTE PTR [eax],al
  5c:	61                   	popa   
  5d:	16                   	push   ss
  5e:	00 00                	add    BYTE PTR [eax],al
  60:	33 16                	xor    edx,DWORD PTR [esi]
  62:	00 00                	add    BYTE PTR [eax],al
  64:	bc 11 00 00 29       	mov    esp,0x29000011
  69:	12 00                	adc    al,BYTE PTR [eax]
  6b:	00 d7                	add    bh,dl
  6d:	11 00                	adc    DWORD PTR [eax],eax
  6f:	00 f5                	add    ch,dh
  71:	11 00                	adc    DWORD PTR [eax],eax
  73:	00 39                	add    BYTE PTR [ecx],bh
  75:	11 00                	adc    DWORD PTR [eax],eax
  77:	00 89 15 00 00 11    	add    BYTE PTR [ecx+0x11000015],cl
  7d:	16                   	push   ss
  7e:	00 00                	add    BYTE PTR [eax],al
  80:	e5 15                	in     eax,0x15
  82:	00 00                	add    BYTE PTR [eax],al
  84:	fb                   	sti    
  85:	15 00 00 cc 15       	adc    eax,0x15cc0000
	...

0000008c <OPERATION_NAME>:
	...

00000094 <ALGORITM_NAME>:
	...

000000a8 <CHAR_SIZE_DATA>:
	...

000000c8 <INT_SIZE_DATA>:
  c8:	00 04 00             	add    BYTE PTR [eax+eax*1],al
  cb:	00 00                	add    BYTE PTR [eax],al
  cd:	00 00                	add    BYTE PTR [eax],al
  cf:	00 00                	add    BYTE PTR [eax],al
  d1:	00 10                	add    BYTE PTR [eax],dl
	...
  db:	40                   	inc    eax
	...
  e4:	00 01                	add    BYTE PTR [ecx],al
	...
  ee:	04 00                	add    al,0x0
  f0:	00 00                	add    BYTE PTR [eax],al
  f2:	00 00                	add    BYTE PTR [eax],al
  f4:	00 00                	add    BYTE PTR [eax],al
  f6:	00 10                	add    BYTE PTR [eax],dl

Дизассемблирование раздела .rodata.cst4:

00000000 <.LCPI4_0>:
   0:	00 00                	add    BYTE PTR [eax],al
   2:	c8                   	.byte 0xc8
   3:	42                   	inc    edx

Дизассемблирование раздела .rodata.cst8:

00000000 <.LCPI4_1>:
   0:	9a 99 99 99 99 99 b9 	call   0xb999:0x99999999
   7:	3f                   	aas    

Дизассемблирование раздела .rodata.str1.1:

00000000 <.L.str>:
   0:	72 62                	jb     64 <.L.str.4+0x25>
	...

00000003 <.L.str.1>:
   3:	77 62                	ja     67 <.L.str.5>
	...

00000006 <.L.str.2>:
   6:	50                   	push   eax
   7:	6c                   	ins    BYTE PTR es:[edi],dx
   8:	65 78 75             	gs js  80 <.L.str.5+0x19>
   b:	73 54                	jae    61 <.L.str.4+0x22>
   d:	43                   	inc    ebx
   e:	4c                   	dec    esp
   f:	20 43 6f             	and    BYTE PTR [ebx+0x6f],al
  12:	6e                   	outs   dx,BYTE PTR ds:[esi]
  13:	73 6f                	jae    84 <.L.str.6+0x1>
  15:	6c                   	ins    BYTE PTR es:[edi],dx
  16:	65 20 43 72          	and    BYTE PTR gs:[ebx+0x72],al
  1a:	79 70                	jns    8c <.L.str.6+0x9>
  1c:	74 65                	je     83 <.L.str.6>
  1e:	72 20                	jb     40 <.L.str.4+0x1>
  20:	35 2e 31 30 20       	xor    eax,0x2030312e
  25:	33 31                	xor    esi,DWORD PTR [ecx]
  27:	4a                   	dec    edx
  28:	55                   	push   ebp
  29:	4c                   	dec    esp
  2a:	32 34 20             	xor    dh,BYTE PTR [eax+eiz*1]
  2d:	5b                   	pop    ebx
  2e:	45                   	inc    ebp
  2f:	4e                   	dec    esi
  30:	5d                   	pop    ebp
	...

00000032 <.L.str.3>:
  32:	2f                   	das    
  33:	64 65 76 2f          	fs gs jbe 66 <.L.str.4+0x27>
  37:	75 72                	jne    ab <.L.str.7+0x6>
  39:	61                   	popa   
  3a:	6e                   	outs   dx,BYTE PTR ds:[esi]
  3b:	64 6f                	outs   dx,DWORD PTR fs:[esi]
  3d:	6d                   	ins    DWORD PTR es:[edi],dx
	...

0000003f <.L.str.4>:
  3f:	5b                   	pop    ebx
  40:	21 5d 20             	and    DWORD PTR [ebp+0x20],ebx
  43:	44                   	inc    esp
  44:	65 76 69             	gs jbe b0 <.L.str.7+0xb>
  47:	63 65 20             	arpl   WORD PTR [ebp+0x20],sp
  4a:	22 2f                	and    ch,BYTE PTR [edi]
  4c:	64 65 76 2f          	fs gs jbe 7f <.L.str.5+0x18>
  50:	75 72                	jne    c4 <.L.str.7+0x1f>
  52:	61                   	popa   
  53:	6e                   	outs   dx,BYTE PTR ds:[esi]
  54:	64 6f                	outs   dx,DWORD PTR fs:[esi]
  56:	6d                   	ins    DWORD PTR es:[edi],dx
  57:	22 20                	and    ah,BYTE PTR [eax]
  59:	6e                   	outs   dx,BYTE PTR ds:[esi]
  5a:	6f                   	outs   dx,DWORD PTR ds:[esi]
  5b:	74 20                	je     7d <.L.str.5+0x16>
  5d:	6f                   	outs   dx,DWORD PTR ds:[esi]
  5e:	70 65                	jo     c5 <.L.str.7+0x20>
  60:	6e                   	outs   dx,BYTE PTR ds:[esi]
  61:	6e                   	outs   dx,BYTE PTR ds:[esi]
  62:	65 64 21 0a          	gs and DWORD PTR fs:[edx],ecx
	...

00000067 <.L.str.5>:
  67:	5b                   	pop    ebx
  68:	23 5d 20             	and    ebx,DWORD PTR [ebp+0x20]
  6b:	25 73 20 66 69       	and    eax,0x69662073
  70:	6c                   	ins    BYTE PTR es:[edi],dx
  71:	65 20 22             	and    BYTE PTR gs:[edx],ah
  74:	25 73 22 20 63       	and    eax,0x63202273
  79:	6f                   	outs   dx,DWORD PTR ds:[esi]
  7a:	6d                   	ins    DWORD PTR es:[edi],dx
  7b:	70 6c                	jo     e9 <.L.str.8+0x22>
  7d:	65 74 65             	gs je  e5 <.L.str.8+0x1e>
  80:	2e 0a 00             	or     al,BYTE PTR cs:[eax]

00000083 <.L.str.6>:
  83:	5b                   	pop    ebx
  84:	21 5d 20             	and    DWORD PTR [ebp+0x20],ebx
  87:	46                   	inc    esi
  88:	69 6c 65 20 66 6f 72 	imul   ebp,DWORD PTR [ebp+eiz*2+0x20],0x20726f66
  8f:	20 
  90:	25 73 20 22 25       	and    eax,0x25222073
  95:	73 22                	jae    b9 <.L.str.7+0x14>
  97:	20 6e 6f             	and    BYTE PTR [esi+0x6f],ch
  9a:	74 20                	je     bc <.L.str.7+0x17>
  9c:	6f                   	outs   dx,DWORD PTR ds:[esi]
  9d:	70 65                	jo     104 <.L.str.9+0xf>
  9f:	6e                   	outs   dx,BYTE PTR ds:[esi]
  a0:	65 64 2e 0a 00       	gs fs or al,BYTE PTR cs:[eax]

000000a5 <.L.str.7>:
  a5:	5b                   	pop    ebx
  a6:	21 5d 20             	and    DWORD PTR [ebp+0x20],ebx
  a9:	4f                   	dec    edi
  aa:	75 74                	jne    120 <.L.str.10+0xb>
  ac:	70 75                	jo     123 <.L.str.10+0xe>
  ae:	74 20                	je     d0 <.L.str.8+0x9>
  b0:	66 69 6c 65 20 22 25 	imul   bp,WORD PTR [ebp+eiz*2+0x20],0x2522
  b7:	73 22                	jae    db <.L.str.8+0x14>
  b9:	20 6e 6f             	and    BYTE PTR [esi+0x6f],ch
  bc:	74 20                	je     de <.L.str.8+0x17>
  be:	6f                   	outs   dx,DWORD PTR ds:[esi]
  bf:	70 65                	jo     126 <.L.str.10+0x11>
  c1:	6e                   	outs   dx,BYTE PTR ds:[esi]
  c2:	65 64 2e 0a 00       	gs fs or al,BYTE PTR cs:[eax]

000000c7 <.L.str.8>:
  c7:	5b                   	pop    ebx
  c8:	21 5d 20             	and    DWORD PTR [ebp+0x20],ebx
  cb:	53                   	push   ebx
  cc:	69 7a 65 20 6f 66 20 	imul   edi,DWORD PTR [edx+0x65],0x20666f20
  d3:	69 6e 70 75 74 20 66 	imul   ebp,DWORD PTR [esi+0x70],0x66207475
  da:	69 6c 65 20 22 25 73 	imul   ebp,DWORD PTR [ebp+eiz*2+0x20],0x22732522
  e1:	22 
  e2:	20 30                	and    BYTE PTR [eax],dh
  e4:	20 6f 72             	and    BYTE PTR [edi+0x72],ch
  e7:	20 6d 6f             	and    BYTE PTR [ebp+0x6f],ch
  ea:	72 65                	jb     151 <.L.str.11+0x1b>
  ec:	20 34 20             	and    BYTE PTR [eax+eiz*1],dh
  ef:	45                   	inc    ebp
  f0:	69 42 2e 0a 00   	imul   eax,DWORD PTR [edx+0x2e],0x215b000a

000000f5 <.L.str.9>:
  f5:	5b                   	pop    ebx
  f6:	21 5d 20             	and    DWORD PTR [ebp+0x20],ebx
  f9:	45                   	inc    ebp
  fa:	72 72                	jb     16e <.L.str.12+0x19>
  fc:	6f                   	outs   dx,DWORD PTR ds:[esi]
  fd:	72 20                	jb     11f <.L.str.10+0xa>
  ff:	77 72                	ja     173 <.L.str.12+0x1e>
 101:	69 74 65 20 69 6e 20 	imul   esi,DWORD PTR [ebp+eiz*2+0x20],0x66206e69
 108:	66 
 109:	69 6c 65 20 22 25 73 	imul   ebp,DWORD PTR [ebp+eiz*2+0x20],0x22732522
 110:	22 
 111:	20 2e                	and    BYTE PTR [esi],ch
 113:	0a 00                	or     al,BYTE PTR [eax]

00000115 <.L.str.10>:
 115:	5b                   	pop    ebx
 116:	21 5d 20             	and    DWORD PTR [ebp+0x20],ebx
 119:	45                   	inc    ebp
 11a:	72 72                	jb     18e <.L.str.13+0x19>
 11c:	6f                   	outs   dx,DWORD PTR ds:[esi]
 11d:	72 20                	jb     13f <.L.str.11+0x9>
 11f:	72 65                	jb     186 <.L.str.13+0x11>
 121:	61                   	popa   
 122:	64 20 66 6f          	and    BYTE PTR fs:[esi+0x6f],ah
 126:	72 6d                	jb     195 <.L.str.13+0x20>
 128:	20 66 69             	and    BYTE PTR [esi+0x69],ah
 12b:	6c                   	ins    BYTE PTR es:[edi],dx
 12c:	65 20 22             	and    BYTE PTR gs:[edx],ah
 12f:	25 73 22 20 2e       	and    eax,0x2e202273
 134:	0a 00                	or     al,BYTE PTR [eax]

00000136 <.L.str.11>:
 136:	5b                   	pop    ebx
 137:	21 5d 20             	and    DWORD PTR [ebp+0x20],ebx
 13a:	45                   	inc    ebp
 13b:	72 72                	jb     1af <.L.str.14+0xc>
 13d:	6f                   	outs   dx,DWORD PTR ds:[esi]
 13e:	72 20                	jb     160 <.L.str.12+0xb>
 140:	63 6c 6f 73          	arpl   WORD PTR [edi+ebp*2+0x73],bp
 144:	65 20 69 6e          	and    BYTE PTR gs:[ecx+0x6e],ch
 148:	70 75                	jo     1bf <.L.str.14+0x1c>
 14a:	74 20                	je     16c <.L.str.12+0x17>
 14c:	73 74                	jae    1c2 <.L.str.14+0x1f>
 14e:	72 65                	jb     1b5 <.L.str.14+0x12>
 150:	61                   	popa   
 151:	6d                   	ins    DWORD PTR es:[edi],dx
 152:	2e 0a 00             	or     al,BYTE PTR cs:[eax]

00000155 <.L.str.12>:
 155:	5b                   	pop    ebx
 156:	21 5d 20             	and    DWORD PTR [ebp+0x20],ebx
 159:	45                   	inc    ebp
 15a:	72 72                	jb     1ce <.L.str.15>
 15c:	6f                   	outs   dx,DWORD PTR ds:[esi]
 15d:	72 20                	jb     17f <.L.str.13+0xa>
 15f:	63 6c 6f 73          	arpl   WORD PTR [edi+ebp*2+0x73],bp
 163:	65 20 6f 75          	and    BYTE PTR gs:[edi+0x75],ch
 167:	74 70                	je     1d9 <.L.str.15+0xb>
 169:	75 74                	jne    1df <.L.str.15+0x11>
 16b:	20 73 74             	and    BYTE PTR [ebx+0x74],dh
 16e:	72 65                	jb     1d5 <.L.str.15+0x7>
 170:	61                   	popa   
 171:	6d                   	ins    DWORD PTR es:[edi],dx
 172:	2e 0a 00             	or     al,BYTE PTR cs:[eax]

00000175 <.L.str.13>:
 175:	5b                   	pop    ebx
 176:	21 5d 20             	and    DWORD PTR [ebp+0x20],ebx
 179:	53                   	push   ebx
 17a:	69 7a 65 20 6f 66 20 	imul   edi,DWORD PTR [edx+0x65],0x20666f20
 181:	66 69 6c 65 20 66 6f 	imul   bp,WORD PTR [ebp+eiz*2+0x20],0x6f66
 188:	72 20                	jb     1aa <.L.str.14+0x7>
 18a:	64 65 63 72 79       	fs arpl WORD PTR gs:[edx+0x79],si
 18f:	70 74                	jo     205 <.L.str.16+0x13>
 191:	20 22                	and    BYTE PTR [edx],ah
 193:	25 73 22 20 69       	and    eax,0x69202273
 198:	6e                   	outs   dx,BYTE PTR ds:[esi]
 199:	63 6f 72             	arpl   WORD PTR [edi+0x72],bp
 19c:	72 65                	jb     203 <.L.str.16+0x11>
 19e:	63 74 2e 0a          	arpl   WORD PTR [esi+ebp*1+0xa],si
	...

000001a3 <.L.str.14>:
 1a3:	5b                   	pop    ebx
 1a4:	21 5d 20             	and    DWORD PTR [ebp+0x20],ebx
 1a7:	43                   	inc    ebx
 1a8:	61                   	popa   
 1a9:	6e                   	outs   dx,BYTE PTR ds:[esi]
 1aa:	6e                   	outs   dx,BYTE PTR ds:[esi]
 1ab:	6f                   	outs   dx,DWORD PTR ds:[esi]
 1ac:	74 20                	je     1ce <.L.str.15>
 1ae:	61                   	popa   
 1af:	6c                   	ins    BYTE PTR es:[edi],dx
 1b0:	6c                   	ins    BYTE PTR es:[edi],dx
 1b1:	6f                   	outs   dx,DWORD PTR ds:[esi]
 1b2:	63 61 74             	arpl   WORD PTR [ecx+0x74],sp
 1b5:	65 20 6d 65          	and    BYTE PTR gs:[ebp+0x65],ch
 1b9:	6d                   	ins    DWORD PTR es:[edi],dx
 1ba:	6f                   	outs   dx,DWORD PTR ds:[esi]
 1bb:	72 79                	jb     236 <.L.str.18+0x7>
 1bd:	20 66 6f             	and    BYTE PTR [esi+0x6f],ah
 1c0:	72 20                	jb     1e2 <.L.str.15+0x14>
 1c2:	72 65                	jb     229 <.L.str.17+0xd>
 1c4:	2d 6b 65 79 69       	sub    eax,0x6979656b
 1c9:	6e                   	outs   dx,BYTE PTR ds:[esi]
 1ca:	67 2e 0a 00          	or     al,BYTE PTR cs:[bx+si]

000001ce <.L.str.15>:
 1ce:	5b                   	pop    ebx
 1cf:	24 5d                	and    al,0x5d
 1d1:	20 45 6e             	and    BYTE PTR [ebp+0x6e],al
 1d4:	74 65                	je     23b <.L.str.18+0xc>
 1d6:	72 20                	jb     1f8 <.L.str.16+0x6>
 1d8:	70 61                	jo     23b <.L.str.18+0xc>
 1da:	73 73                	jae    24f <.L.str.19+0x3>
 1dc:	77 6f                	ja     24d <.L.str.19+0x1>
 1de:	72 64                	jb     244 <.L.str.18+0x15>
 1e0:	20 6f 72             	and    BYTE PTR [edi+0x72],ch
 1e3:	20 6e 61             	and    BYTE PTR [esi+0x61],ch
 1e6:	6d                   	ins    DWORD PTR es:[edi],dx
 1e7:	65 20 6b 65          	and    BYTE PTR gs:[ebx+0x65],ch
 1eb:	79 66                	jns    253 <.L.str.19+0x7>
 1ed:	69 6c 65 3a 00   	imul   ebp,DWORD PTR [ebp+eiz*2+0x3a],0x5d585b00
 1f4:	 

000001f2 <.L.str.16>:
 1f2:	5b                   	pop    ebx
 1f3:	58                   	pop    eax
 1f4:	5d                   	pop    ebp
 1f5:	20 50 61             	and    BYTE PTR [eax+0x61],dl
 1f8:	73 73                	jae    26d <.L.str.19+0x21>
 1fa:	77 6f                	ja     26b <.L.str.19+0x1f>
 1fc:	72 64                	jb     262 <.L.str.19+0x16>
 1fe:	20 6e 6f             	and    BYTE PTR [esi+0x6f],ch
 201:	74 20                	je     223 <.L.str.17+0x7>
 203:	72 65                	jb     26a <.L.str.19+0x1e>
 205:	61                   	popa   
 206:	64 20 66 72          	and    BYTE PTR fs:[esi+0x72],ah
 20a:	6f                   	outs   dx,DWORD PTR ds:[esi]
 20b:	6d                   	ins    DWORD PTR es:[edi],dx
 20c:	20 63 6f             	and    BYTE PTR [ebx+0x6f],ah
 20f:	6d                   	ins    DWORD PTR es:[edi],dx
 210:	6d                   	ins    DWORD PTR es:[edi],dx
 211:	61                   	popa   
 212:	6e                   	outs   dx,BYTE PTR ds:[esi]
 213:	64 20 6c 69 6e       	and    BYTE PTR fs:[ecx+ebp*2+0x6e],ch
 218:	65 2e 0a 00          	gs or  al,BYTE PTR cs:[eax]

0000021c <.L.str.17>:
 21c:	5b                   	pop    ebx
 21d:	58                   	pop    eax
 21e:	5d                   	pop    ebp
 21f:	20 4e 6f             	and    BYTE PTR [esi+0x6f],cl
 222:	74 20                	je     244 <.L.str.18+0x15>
 224:	74 65                	je     28b <.L.str.20+0x11>
 226:	72 6d                	jb     295 <.L.str.20+0x1b>
 228:	69 6e 61 6c 21 0a 00 	imul   ebp,DWORD PTR [esi+0x61],0xa216c

0000022f <.L.str.18>:
 22f:	5b                   	pop    ebx
 230:	21 5d 20             	and    DWORD PTR [ebp+0x20],ebx
 233:	43                   	inc    ebx
 234:	61                   	popa   
 235:	6e                   	outs   dx,BYTE PTR ds:[esi]
 236:	6e                   	outs   dx,BYTE PTR ds:[esi]
 237:	6f                   	outs   dx,DWORD PTR ds:[esi]
 238:	74 20                	je     25a <.L.str.19+0xe>
 23a:	61                   	popa   
 23b:	6c                   	ins    BYTE PTR es:[edi],dx
 23c:	6c                   	ins    BYTE PTR es:[edi],dx
 23d:	6f                   	outs   dx,DWORD PTR ds:[esi]
 23e:	63 61 74             	arpl   WORD PTR [ecx+0x74],sp
 241:	65 20 6d 65          	and    BYTE PTR gs:[ebp+0x65],ch
 245:	6d                   	ins    DWORD PTR es:[edi],dx
 246:	6f                   	outs   dx,DWORD PTR ds:[esi]
 247:	72 79                	jb     2c2 <.L.str.28+0x1>
 249:	2e 0a 00             	or     al,BYTE PTR cs:[eax]

0000024c <.L.str.19>:
 24c:	5b                   	pop    ebx
 24d:	21 5d 20             	and    DWORD PTR [ebp+0x20],ebx
 250:	57                   	push   edi
 251:	61                   	popa   
 252:	72 6e                	jb     2c2 <.L.str.28+0x1>
 254:	69 6e 67 3a 20 61 72 	imul   ebp,DWORD PTR [esi+0x67],0x7261203a
 25b:	67 75 6d             	addr16 jne 2cb <.L.str.28+0xa>
 25e:	65 6e                	outs   dx,BYTE PTR gs:[esi]
 260:	74 20                	je     282 <.L.str.20+0x8>
 262:	22 25 64 22 20 6c    	and    ah,BYTE PTR ds:0x6c202264
 268:	65 6e                	outs   dx,BYTE PTR gs:[esi]
 26a:	67 74 68             	addr16 je 2d5 <.L.str.28+0x14>
 26d:	20 6d 6f             	and    BYTE PTR [ebp+0x6f],ch
 270:	72 65                	jb     2d7 <.L.str.28+0x16>
 272:	20 22                	and    BYTE PTR [edx],ah
 274:	25 64 22 21 0a       	and    eax,0xa212264
	...

0000027a <.L.str.20>:
 27a:	5b                   	pop    ebx
 27b:	21 5d 20             	and    DWORD PTR [ebp+0x20],ebx
 27e:	45                   	inc    ebp
 27f:	72 72                	jb     2f3 <.L.str.28+0x32>
 281:	6f                   	outs   dx,DWORD PTR ds:[esi]
 282:	72 3a                	jb     2be <.L.str.22+0x4>
 284:	20 63 6f             	and    BYTE PTR [ebx+0x6f],ah
 287:	75 6e                	jne    2f7 <.L.str.28+0x36>
 289:	74 20                	je     2ab <.L.str.20+0x31>
 28b:	61                   	popa   
 28c:	72 67                	jb     2f5 <.L.str.28+0x34>
 28e:	75 6d                	jne    2fd <.L.str.28+0x3c>
 290:	65 6e                	outs   dx,BYTE PTR gs:[esi]
 292:	74 73                	je     307 <.L.str.28+0x46>
 294:	20 25 64 3b 20 6e    	and    BYTE PTR ds:0x6e203b64,ah
 29a:	65 63 65 73          	arpl   WORD PTR gs:[ebp+0x73],sp
 29e:	73 61                	jae    301 <.L.str.28+0x40>
 2a0:	72 79                	jb     31b <.L.str.29+0x8>
 2a2:	20 74 6f 20          	and    BYTE PTR [edi+ebp*2+0x20],dh
 2a6:	32 20                	xor    ah,BYTE PTR [eax]
 2a8:	64 6f                	outs   dx,DWORD PTR fs:[esi]
 2aa:	20 37                	and    BYTE PTR [edi],dh
 2ac:	20 73 74             	and    BYTE PTR [ebx+0x74],dh
 2af:	72 69                	jb     31a <.L.str.29+0x7>
 2b1:	6e                   	outs   dx,BYTE PTR ds:[esi]
 2b2:	67 73 2e             	addr16 jae 2e3 <.L.str.28+0x22>
 2b5:	0a 00                	or     al,BYTE PTR [eax]

000002b7 <.L.str.21>:
 2b7:	2d 68 00         	sub    eax,0x2d2d0068

000002ba <.L.str.22>:
 2ba:	2d 2d 68 65 6c       	sub    eax,0x6c65682d
 2bf:	70 00                	jo     2c1 <.L.str.28>

000002c1 <.L.str.28>:
 2c1:	45                   	inc    ebp
 2c2:	6e                   	outs   dx,BYTE PTR ds:[esi]
 2c3:	74 65                	je     32a <.L.str.29+0x17>
 2c5:	72 3a                	jb     301 <.L.str.28+0x40>
 2c7:	20 25 73 20 5b 61    	and    BYTE PTR ds:0x615b2073,ah
 2cd:	6c                   	ins    BYTE PTR es:[edi],dx
 2ce:	67 6f                	outs   dx,DWORD PTR ds:[si]
 2d0:	72 69                	jb     33b <.L.str.29+0x28>
 2d2:	74 6d                	je     341 <.L.str.29+0x2e>
 2d4:	5d                   	pop    ebp
 2d5:	20 5b 6f             	and    BYTE PTR [ebx+0x6f],bl
 2d8:	70 65                	jo     33f <.L.str.29+0x2c>
 2da:	72 61                	jb     33d <.L.str.29+0x2a>
 2dc:	74 69                	je     347 <.L.str.29+0x34>
 2de:	6f                   	outs   dx,DWORD PTR ds:[esi]
 2df:	6e                   	outs   dx,BYTE PTR ds:[esi]
 2e0:	5d                   	pop    ebp
 2e1:	20 5b 6b             	and    BYTE PTR [ebx+0x6b],bl
 2e4:	65 79 20             	gs jns 307 <.L.str.28+0x46>
 2e7:	6c                   	ins    BYTE PTR es:[edi],dx
 2e8:	65 6e                	outs   dx,BYTE PTR gs:[esi]
 2ea:	67 74 68             	addr16 je 355 <.L.str.31+0x9>
 2ed:	5d                   	pop    ebp
 2ee:	20 5b 69             	and    BYTE PTR [ebx+0x69],bl
 2f1:	6e                   	outs   dx,BYTE PTR ds:[esi]
 2f2:	70 75                	jo     369 <.L.str.35>
 2f4:	74 20                	je     316 <.L.str.29+0x3>
 2f6:	66 69 6c 65 6e 61 6d 	imul   bp,WORD PTR [ebp+eiz*2+0x6e],0x6d61
 2fd:	65 5d                	gs pop ebp
 2ff:	20 5b 6f             	and    BYTE PTR [ebx+0x6f],bl
 302:	75 74                	jne    378 <.L.str.37+0x6>
 304:	70 75                	jo     37b <.L.str.37+0x9>
 306:	74 20                	je     328 <.L.str.29+0x15>
 308:	66 69 6c 65 6e 61 6d 	imul   bp,WORD PTR [ebp+eiz*2+0x6e],0x6d61
 30f:	65 5d                	gs pop ebp
 311:	0a 00                	or     al,BYTE PTR [eax]

00000313 <.L.str.29>:
 313:	5b                   	pop    ebx
 314:	21 5d 20             	and    DWORD PTR [ebp+0x20],ebx
 317:	49                   	dec    ecx
 318:	6e                   	outs   dx,BYTE PTR ds:[esi]
 319:	63 6f 72             	arpl   WORD PTR [edi+0x72],bp
 31c:	72 65                	jb     383 <.L.str.39+0x4>
 31e:	63 74 20 70          	arpl   WORD PTR [eax+eiz*1+0x70],si
 322:	61                   	popa   
 323:	72 61                	jb     386 <.L.str.39+0x7>
 325:	6d                   	ins    DWORD PTR es:[edi],dx
 326:	65 74 65             	gs je  38e <.L.str.40+0x5>
 329:	72 20                	jb     34b <.L.str.30+0x2>
 32b:	22 25 73 22 21 20    	and    ah,BYTE PTR ds:0x20212273
 331:	4f                   	dec    edi
 332:	6e                   	outs   dx,BYTE PTR ds:[esi]
 333:	6c                   	ins    BYTE PTR es:[edi],dx
 334:	79 20                	jns    356 <.L.str.31+0xa>
 336:	22 2d 68 22 20 6f    	and    ch,BYTE PTR ds:0x6f202268
 33c:	72 20                	jb     35e <.L.str.33+0x4>
 33e:	22 2d 2d 68 65 6c    	and    ch,BYTE PTR ds:0x6c65682d
 344:	70 22                	jo     368 <.L.str.34+0x2>
 346:	2e 0a 00             	or     al,BYTE PTR cs:[eax]

00000349 <.L.str.30>:
 349:	2d 62 00         	sub    eax,0x2d2d0062

0000034c <.L.str.31>:
 34c:	2d 2d 62 6c 6f       	sub    eax,0x6f6c622d
 351:	77 66                	ja     3b9 <.L.str.43+0x2>
 353:	69 73 68 00    	imul   esi,DWORD PTR [ebx+0x68],0x742d00

00000357 <.L.str.32>:
 357:	2d 74 00         	sub    eax,0x2d2d0074

0000035a <.L.str.33>:
 35a:	2d 2d 74 68 72       	sub    eax,0x7268742d
 35f:	65 65 66 69 73 68 00 	gs imul si,WORD PTR gs:[ebx+0x68],0x2d00
 366:	 

00000366 <.L.str.34>:
 366:	2d 72 00         	sub    eax,0x2d2d0072

00000369 <.L.str.35>:
 369:	2d 2d 61 65 73       	sub    eax,0x7365612d
	...

0000036f <.L.str.36>:
 36f:	2d 73 00         	sub    eax,0x2d2d0073

00000372 <.L.str.37>:
 372:	2d 2d 73 65 72       	sub    eax,0x7265732d
 377:	70 65                	jo     3de <.L.str.45+0x1a>
 379:	6e                   	outs   dx,BYTE PTR ds:[esi]
 37a:	74 00                	je     37c <.L.str.38>

0000037c <.L.str.38>:
 37c:	2d 77 00         	sub    eax,0x2d2d0077

0000037f <.L.str.39>:
 37f:	2d 2d 74 77 6f       	sub    eax,0x6f77742d
 384:	66 69 73 68 00     	imul   si,WORD PTR [ebx+0x68],0x5b00

00000389 <.L.str.40>:
 389:	5b                   	pop    ebx
 38a:	21 5d 20             	and    DWORD PTR [ebp+0x20],ebx
 38d:	4e                   	dec    esi
 38e:	61                   	popa   
 38f:	6d                   	ins    DWORD PTR es:[edi],dx
 390:	65 20 63 69          	and    BYTE PTR gs:[ebx+0x69],ah
 394:	70 68                	jo     3fe <.L.str.51+0x3>
 396:	65 72 20             	gs jb  3b9 <.L.str.43+0x2>
 399:	22 25 73 22 20 69    	and    ah,BYTE PTR ds:0x69202273
 39f:	6e                   	outs   dx,BYTE PTR ds:[esi]
 3a0:	63 6f 72             	arpl   WORD PTR [edi+0x72],bp
 3a3:	72 65                	jb     40a <.L.str.51+0xf>
 3a5:	63 74 2e 0a          	arpl   WORD PTR [esi+ebp*1+0xa],si
	...

000003aa <.L.str.41>:
 3aa:	2d 65 00         	sub    eax,0x2d2d0065

000003ad <.L.str.42>:
 3ad:	2d 2d 65 6e 63       	sub    eax,0x636e652d
 3b2:	72 79                	jb     42d <.L.str.54+0x5>
 3b4:	70 74                	jo     42a <.L.str.54+0x2>
	...

000003b7 <.L.str.43>:
 3b7:	2d 64 00         	sub    eax,0x2d2d0064

000003ba <.L.str.44>:
 3ba:	2d 2d 64 65 63       	sub    eax,0x6365642d
 3bf:	72 79                	jb     43a <.L.str.54+0x12>
 3c1:	70 74                	jo     437 <.L.str.54+0xf>
	...

000003c4 <.L.str.45>:
 3c4:	5b                   	pop    ebx
 3c5:	21 5d 20             	and    DWORD PTR [ebp+0x20],ebx
 3c8:	4f                   	dec    edi
 3c9:	70 65                	jo     430 <.L.str.54+0x8>
 3cb:	72 61                	jb     42e <.L.str.54+0x6>
 3cd:	74 69                	je     438 <.L.str.54+0x10>
 3cf:	6f                   	outs   dx,DWORD PTR ds:[esi]
 3d0:	6e                   	outs   dx,BYTE PTR ds:[esi]
 3d1:	20 22                	and    BYTE PTR [edx],ah
 3d3:	25 73 22 20 69       	and    eax,0x69202273
 3d8:	6e                   	outs   dx,BYTE PTR ds:[esi]
 3d9:	63 6f 72             	arpl   WORD PTR [edi+0x72],bp
 3dc:	72 65                	jb     443 <.L.str.54+0x1b>
 3de:	63 74 2e 0a          	arpl   WORD PTR [esi+ebp*1+0xa],si
	...

000003e3 <.L.str.46>:
 3e3:	2d 61 00         	sub    eax,0x2d2d0061

000003e6 <.L.str.47>:
 3e6:	2d 2d 31 32 38       	sub    eax,0x3832312d
	...

000003ec <.L.str.48>:
 3ec:	2d 2d 31 39 32       	sub    eax,0x3239312d
	...

000003f2 <.L.str.49>:
 3f2:	2d 63 00         	sub    eax,0x2d2d0063

000003f5 <.L.str.50>:
 3f5:	2d 2d 32 35 36       	sub    eax,0x3635322d
	...

000003fb <.L.str.51>:
 3fb:	5b                   	pop    ebx
 3fc:	21 5d 20             	and    DWORD PTR [ebp+0x20],ebx
 3ff:	4b                   	dec    ebx
 400:	65 79 20             	gs jns 423 <.L.str.53+0x2>
 403:	6c                   	ins    BYTE PTR es:[edi],dx
 404:	65 6e                	outs   dx,BYTE PTR gs:[esi]
 406:	67 74 68             	addr16 je 471 <.L.str.55+0x20>
 409:	20 22                	and    BYTE PTR [edx],ah
 40b:	25 73 22 20 69       	and    eax,0x69202273
 410:	6e                   	outs   dx,BYTE PTR ds:[esi]
 411:	63 6f 72             	arpl   WORD PTR [edi+0x72],bp
 414:	72 65                	jb     47b <.L.str.55+0x2a>
 416:	63 74 2e 0a          	arpl   WORD PTR [esi+ebp*1+0xa],si
	...

0000041b <.L.str.52>:
 41b:	2d 2d 35 31 32       	sub    eax,0x3231352d
	...

00000421 <.L.str.53>:
 421:	2d 2d 31 30 32       	sub    eax,0x3230312d
 426:	34 00                	xor    al,0x0

00000428 <.L.str.54>:
 428:	5b                   	pop    ebx
 429:	21 5d 20             	and    DWORD PTR [ebp+0x20],ebx
 42c:	4e                   	dec    esi
 42d:	61                   	popa   
 42e:	6d                   	ins    DWORD PTR es:[edi],dx
 42f:	65 73 20             	gs jae 452 <.L.str.55+0x1>
 432:	69 6e 70 75 74 20 61 	imul   ebp,DWORD PTR [esi+0x70],0x61207475
 439:	6e                   	outs   dx,BYTE PTR ds:[esi]
 43a:	64 20 6f 75          	and    BYTE PTR fs:[edi+0x75],ch
 43e:	74 70                	je     4b0 <.L.str.57+0xa>
 440:	75 74                	jne    4b6 <.L.str.57+0x10>
 442:	20 66 69             	and    BYTE PTR [esi+0x69],ah
 445:	6c                   	ins    BYTE PTR es:[edi],dx
 446:	65 73 20             	gs jae 469 <.L.str.55+0x18>
 449:	65 71 75             	gs jno 4c1 <.L.str.57+0x1b>
 44c:	61                   	popa   
 44d:	6c                   	ins    BYTE PTR es:[edi],dx
 44e:	2e 0a 00             	or     al,BYTE PTR cs:[eax]

00000451 <.L.str.55>:
 451:	5b                   	pop    ebx
 452:	21 5d 20             	and    DWORD PTR [ebp+0x20],ebx
 455:	4e                   	dec    esi
 456:	61                   	popa   
 457:	6d                   	ins    DWORD PTR es:[edi],dx
 458:	65 73 20             	gs jae 47b <.L.str.55+0x2a>
 45b:	6b 65 79 66          	imul   esp,DWORD PTR [ebp+0x79],0x66
 45f:	69 6c 65 20 61 6e 64 	imul   ebp,DWORD PTR [ebp+eiz*2+0x20],0x20646e61
 466:	20 
 467:	6f                   	outs   dx,DWORD PTR ds:[esi]
 468:	75 74                	jne    4de <.L.str.58+0x14>
 46a:	70 75                	jo     4e1 <.L.str.58+0x17>
 46c:	74 20                	je     48e <.L.str.56+0x12>
 46e:	66 69 6c 65 73 20 65 	imul   bp,WORD PTR [ebp+eiz*2+0x73],0x6520
 475:	71 75                	jno    4ec <.L.str.58+0x22>
 477:	61                   	popa   
 478:	6c                   	ins    BYTE PTR es:[edi],dx
 479:	2e 0a 00             	or     al,BYTE PTR cs:[eax]

0000047c <.L.str.56>:
 47c:	5b                   	pop    ebx
 47d:	21 5d 20             	and    DWORD PTR [ebp+0x20],ebx
 480:	4e                   	dec    esi
 481:	61                   	popa   
 482:	6d                   	ins    DWORD PTR es:[edi],dx
 483:	65 73 20             	gs jae 4a6 <.L.str.57>
 486:	6b 65 79 66          	imul   esp,DWORD PTR [ebp+0x79],0x66
 48a:	69 6c 65 20 61 6e 64 	imul   ebp,DWORD PTR [ebp+eiz*2+0x20],0x20646e61
 491:	20 
 492:	69 6e 70 75 74 20 66 	imul   ebp,DWORD PTR [esi+0x70],0x66207475
 499:	69 6c 65 73 20 65 71 	imul   ebp,DWORD PTR [ebp+eiz*2+0x73],0x75716520
 4a0:	75 
 4a1:	61                   	popa   
 4a2:	6c                   	ins    BYTE PTR es:[edi],dx
 4a3:	2e 0a 00             	or     al,BYTE PTR cs:[eax]

000004a6 <.L.str.57>:
 4a6:	5b                   	pop    ebx
 4a7:	23 5d 20             	and    ebx,DWORD PTR [ebp+0x20]
 4aa:	43                   	inc    ebx
 4ab:	72 79                	jb     526 <.L.str.60+0x2a>
 4ad:	70 74                	jo     523 <.L.str.60+0x27>
 4af:	20 6b 65             	and    BYTE PTR [ebx+0x65],ch
 4b2:	79 20                	jns    4d4 <.L.str.58+0xa>
 4b4:	72 65                	jb     51b <.L.str.60+0x1f>
 4b6:	61                   	popa   
 4b7:	64 20 66 72          	and    BYTE PTR fs:[esi+0x72],ah
 4bb:	6f                   	outs   dx,DWORD PTR ds:[esi]
 4bc:	6d                   	ins    DWORD PTR es:[edi],dx
 4bd:	20 66 69             	and    BYTE PTR [esi+0x69],ah
 4c0:	6c                   	ins    BYTE PTR es:[edi],dx
 4c1:	65 20 22             	and    BYTE PTR gs:[edx],ah
 4c4:	25 73 22 2e 0a       	and    eax,0xa2e2273
	...

000004ca <.L.str.58>:
 4ca:	5b                   	pop    ebx
 4cb:	21 5d 20             	and    DWORD PTR [ebp+0x20],ebx
 4ce:	44                   	inc    esp
 4cf:	61                   	popa   
 4d0:	74 61                	je     533 <.L.str.60+0x37>
 4d2:	20 69 6e             	and    BYTE PTR [ecx+0x6e],ch
 4d5:	20 6b 65             	and    BYTE PTR [ebx+0x65],ch
 4d8:	79 20                	jns    4fa <.L.str.58+0x30>
 4da:	66 69 6c 65 20 25 64 	imul   bp,WORD PTR [ebp+eiz*2+0x20],0x6425
 4e1:	20 62 79             	and    BYTE PTR [edx+0x79],ah
 4e4:	74 65                	je     54b <.L.str.61+0x17>
 4e6:	3b 20                	cmp    esp,DWORD PTR [eax]
 4e8:	6e                   	outs   dx,BYTE PTR ds:[esi]
 4e9:	65 63 65 73          	arpl   WORD PTR gs:[ebp+0x73],sp
 4ed:	73 61                	jae    550 <.L.str.61+0x1c>
 4ef:	72 79                	jb     56a <.L.str.62+0x11>
 4f1:	20 25 64 20 62 79    	and    BYTE PTR ds:0x79622064,ah
 4f7:	74 65                	je     55e <.L.str.62+0x5>
 4f9:	2e 0a 00             	or     al,BYTE PTR cs:[eax]

000004fc <.L.str.60>:
 4fc:	5b                   	pop    ebx
 4fd:	21 5d 20             	and    DWORD PTR [ebp+0x20],ebx
 500:	44                   	inc    esp
 501:	61                   	popa   
 502:	74 61                	je     565 <.L.str.62+0xc>
 504:	20 69 6e             	and    BYTE PTR [ecx+0x6e],ch
 507:	20 73 74             	and    BYTE PTR [ebx+0x74],dh
 50a:	72 69                	jb     575 <.L.str.62+0x1c>
 50c:	6e                   	outs   dx,BYTE PTR ds:[esi]
 50d:	67 20 6b 65          	and    BYTE PTR [bp+di+0x65],ch
 511:	79 20                	jns    533 <.L.str.60+0x37>
 513:	25 64 20 62 79       	and    eax,0x79622064
 518:	74 65                	je     57f <.L.str.63+0x8>
 51a:	3b 20                	cmp    esp,DWORD PTR [eax]
 51c:	6e                   	outs   dx,BYTE PTR ds:[esi]
 51d:	65 63 65 73          	arpl   WORD PTR gs:[ebp+0x73],sp
 521:	73 61                	jae    584 <.L.str.63+0xd>
 523:	72 79                	jb     59e <.L.str.64+0x2>
 525:	20 38                	and    BYTE PTR [eax],bh
 527:	2e 2e 32 35 36 20 62 	cs xor dh,BYTE PTR cs:0x79622036
 52e:	79 
 52f:	74 65                	je     596 <.L.str.63+0x1f>
 531:	2e 0a 00             	or     al,BYTE PTR cs:[eax]

00000534 <.L.str.61>:
 534:	5b                   	pop    ebx
 535:	23 5d 20             	and    ebx,DWORD PTR [ebp+0x20]
 538:	4b                   	dec    ebx
 539:	65 79 20             	gs jns 55c <.L.str.62+0x3>
 53c:	6c                   	ins    BYTE PTR es:[edi],dx
 53d:	65 6e                	outs   dx,BYTE PTR gs:[esi]
 53f:	67 74 68             	addr16 je 5aa <.L.str.65+0x6>
 542:	20 25 64 2d 62 69    	and    BYTE PTR ds:0x69622d64,ah
 548:	74 73                	je     5bd <.L.str.68+0x5>
 54a:	20 69 6e             	and    BYTE PTR [ecx+0x6e],ch
 54d:	69 74 69 61 6c 69 7a 	imul   esi,DWORD PTR [ecx+ebp*2+0x61],0x657a696c
 554:	65 
 555:	64 2e 0a 00          	fs or  al,BYTE PTR cs:[eax]

00000559 <.L.str.62>:
 559:	5b                   	pop    ebx
 55a:	23 5d 20             	and    ebx,DWORD PTR [ebp+0x20]
 55d:	41                   	inc    ecx
 55e:	6c                   	ins    BYTE PTR es:[edi],dx
 55f:	67 6f                	outs   dx,DWORD PTR ds:[si]
 561:	72 69                	jb     5cc <.L.str.70+0x3>
 563:	74 6d                	je     5d2 <.L.str.70+0x9>
 565:	20 25 73 20 69 6e    	and    BYTE PTR ds:0x6e692073,ah
 56b:	69 74 69 61 6c 69 7a 	imul   esi,DWORD PTR [ecx+ebp*2+0x61],0x657a696c
 572:	65 
 573:	64 2e 0a 00          	fs or  al,BYTE PTR cs:[eax]

00000577 <.L.str.63>:
 577:	5b                   	pop    ebx
 578:	23 5d 20             	and    ebx,DWORD PTR [ebp+0x20]
 57b:	4f                   	dec    edi
 57c:	70 65                	jo     5e3 <.L.str.71+0x10>
 57e:	72 61                	jb     5e1 <.L.str.71+0xe>
 580:	74 69                	je     5eb <.L.str.71+0x18>
 582:	6f                   	outs   dx,DWORD PTR ds:[esi]
 583:	6e                   	outs   dx,BYTE PTR ds:[esi]
 584:	20 25 73 20 66 69    	and    BYTE PTR ds:0x69662073,ah
 58a:	6c                   	ins    BYTE PTR es:[edi],dx
 58b:	65 20 22             	and    BYTE PTR gs:[edx],ah
 58e:	25 73 22 20 73       	and    eax,0x73202273
 593:	74 61                	je     5f6 <.L.str.71+0x23>
 595:	72 74                	jb     60b <.L.str.72+0xe>
 597:	65 64 2e 0a 00       	gs fs or al,BYTE PTR cs:[eax]

0000059c <.L.str.64>:
 59c:	45                   	inc    ebp
 59d:	6e                   	outs   dx,BYTE PTR ds:[esi]
 59e:	63 72 79             	arpl   WORD PTR [edx+0x79],si
 5a1:	70 74                	jo     617 <.L.str.72+0x1a>
	...

000005a4 <.L.str.65>:
 5a4:	44                   	inc    esp
 5a5:	65 63 72 79          	arpl   WORD PTR gs:[edx+0x79],si
 5a9:	70 74                	jo     61f <.L.str.72+0x22>
	...

000005ac <.L.str.66>:
 5ac:	41                   	inc    ecx
 5ad:	45                   	inc    ebp
 5ae:	53                   	push   ebx
	...

000005b0 <.L.str.67>:
 5b0:	53                   	push   ebx
 5b1:	45                   	inc    ebp
 5b2:	52                   	push   edx
 5b3:	50                   	push   eax
 5b4:	45                   	inc    ebp
 5b5:	4e                   	dec    esi
 5b6:	54                   	push   esp
	...

000005b8 <.L.str.68>:
 5b8:	54                   	push   esp
 5b9:	57                   	push   edi
 5ba:	4f                   	dec    edi
 5bb:	46                   	inc    esi
 5bc:	49                   	dec    ecx
 5bd:	53                   	push   ebx
 5be:	48                   	dec    eax
	...

000005c0 <.L.str.69>:
 5c0:	42                   	inc    edx
 5c1:	4c                   	dec    esp
 5c2:	4f                   	dec    edi
 5c3:	57                   	push   edi
 5c4:	46                   	inc    esi
 5c5:	49                   	dec    ecx
 5c6:	53                   	push   ebx
 5c7:	48                   	dec    eax
	...

000005c9 <.L.str.70>:
 5c9:	54                   	push   esp
 5ca:	48                   	dec    eax
 5cb:	52                   	push   edx
 5cc:	45                   	inc    ebp
 5cd:	45                   	inc    ebp
 5ce:	46                   	inc    esi
 5cf:	49                   	dec    ecx
 5d0:	53                   	push   ebx
 5d1:	48                   	dec    eax
	...

000005d3 <.L.str.71>:
 5d3:	0d 20 3e 20 20       	or     eax,0x20203e20
 5d8:	25 73 20 5b 25       	and    eax,0x255b2073
 5dd:	73 5d                	jae    63c <.L.str.73+0xe>
 5df:	20 28                	and    BYTE PTR [eax],ch
 5e1:	25 34 2e 32 66       	and    eax,0x66322e34
 5e6:	20 25 73 2f 25 34    	and    BYTE PTR ds:0x34252f73,ah
 5ec:	2e 32 66 20          	xor    ah,BYTE PTR cs:[esi+0x20]
 5f0:	25 73 29 20 25       	and    eax,0x25202973
 5f5:	33 64 20 25          	xor    esp,DWORD PTR [eax+eiz*1+0x25]
 5f9:	25 20 20 00        	and    eax,0x5b002020

000005fd <.L.str.72>:
 5fd:	5b                   	pop    ebx
 5fe:	21 5d 20             	and    DWORD PTR [ebp+0x20],ebx
 601:	57                   	push   edi
 602:	41                   	inc    ecx
 603:	52                   	push   edx
 604:	4e                   	dec    esi
 605:	49                   	dec    ecx
 606:	4e                   	dec    esi
 607:	47                   	inc    edi
 608:	3a 20                	cmp    ah,BYTE PTR [eax]
 60a:	43                   	inc    ebx
 60b:	6f                   	outs   dx,DWORD PTR ds:[esi]
 60c:	6e                   	outs   dx,BYTE PTR ds:[esi]
 60d:	74 72                	je     681 <.Lstr+0x13>
 60f:	6f                   	outs   dx,DWORD PTR ds:[esi]
 610:	6c                   	ins    BYTE PTR es:[edi],dx
 611:	20 73 75             	and    BYTE PTR [ebx+0x75],dh
 614:	6d                   	ins    DWORD PTR es:[edi],dx
 615:	20 66 69             	and    BYTE PTR [esi+0x69],ah
 618:	6c                   	ins    BYTE PTR es:[edi],dx
 619:	65 20 22             	and    BYTE PTR gs:[edx],ah
 61c:	25 73 22 20 6e       	and    eax,0x6e202273
 621:	6f                   	outs   dx,DWORD PTR ds:[esi]
 622:	74 20                	je     644 <.L.str.73+0x16>
 624:	63 6f 72             	arpl   WORD PTR [edi+0x72],bp
 627:	72 65                	jb     68e <.Lstr+0x20>
 629:	63 74 21 0a          	arpl   WORD PTR [ecx+eiz*1+0xa],si
	...

0000062e <.L.str.73>:
 62e:	5b                   	pop    ebx
 62f:	23 5d 20             	and    ebx,DWORD PTR [ebp+0x20]
 632:	43                   	inc    ebx
 633:	6f                   	outs   dx,DWORD PTR ds:[esi]
 634:	6e                   	outs   dx,BYTE PTR ds:[esi]
 635:	74 72                	je     6a9 <.Lstr.81+0x15>
 637:	6f                   	outs   dx,DWORD PTR ds:[esi]
 638:	6c                   	ins    BYTE PTR es:[edi],dx
 639:	20 73 75             	and    BYTE PTR [ebx+0x75],dh
 63c:	6d                   	ins    DWORD PTR es:[edi],dx
 63d:	20 66 69             	and    BYTE PTR [esi+0x69],ah
 640:	6c                   	ins    BYTE PTR es:[edi],dx
 641:	65 20 22             	and    BYTE PTR gs:[edx],ah
 644:	25 73 22 20 63       	and    eax,0x63202273
 649:	68 65 63 6b 2e       	push   0x2e6b6365
 64e:	20 3a                	and    BYTE PTR [edx],bh
 650:	29 0a                	sub    DWORD PTR [edx],ecx
	...

00000653 <.L.str.74>:
 653:	42                   	inc    edx
 654:	74 00                	je     656 <.L.str.75>

00000656 <.L.str.75>:
 656:	4b                   	dec    ebx
 657:	69 42 00     	imul   eax,DWORD PTR [edx+0x0],0x42694d

0000065a <.L.str.76>:
 65a:	4d                   	dec    ebp
 65b:	69 42 00     	imul   eax,DWORD PTR [edx+0x0],0x426947

0000065e <.L.str.77>:
 65e:	47                   	inc    edi
 65f:	69 42 00     	imul   eax,DWORD PTR [edx+0x0],0x426954

00000662 <.L.str.78>:
 662:	54                   	push   esp
 663:	69 42 00     	imul   eax,DWORD PTR [edx+0x0],0x426950

00000666 <.L.str.79>:
 666:	50                   	push   eax
 667:	69 42 00     	imul   eax,DWORD PTR [edx+0x0],0x426945

0000066a <.L.str.80>:
 66a:	45                   	inc    ebp
 66b:	69 42 00     	imul   eax,DWORD PTR [edx+0x0],0x205d235b

0000066e <.Lstr>:
 66e:	5b                   	pop    ebx
 66f:	23 5d 20             	and    ebx,DWORD PTR [ebp+0x20]
 672:	43                   	inc    ebx
 673:	72 79                	jb     6ee <.Lstr.82+0x2d>
 675:	70 74                	jo     6eb <.Lstr.82+0x2a>
 677:	20 6b 65             	and    BYTE PTR [ebx+0x65],ch
 67a:	79 20                	jns    69c <.Lstr.81+0x8>
 67c:	72 65                	jb     6e3 <.Lstr.82+0x22>
 67e:	61                   	popa   
 67f:	64 20 66 72          	and    BYTE PTR fs:[esi+0x72],ah
 683:	6f                   	outs   dx,DWORD PTR ds:[esi]
 684:	6d                   	ins    DWORD PTR es:[edi],dx
 685:	20 63 6f             	and    BYTE PTR [ebx+0x6f],ah
 688:	6d                   	ins    DWORD PTR es:[edi],dx
 689:	6d                   	ins    DWORD PTR es:[edi],dx
 68a:	61                   	popa   
 68b:	6e                   	outs   dx,BYTE PTR ds:[esi]
 68c:	64 20 6c 69 6e       	and    BYTE PTR fs:[ecx+ebp*2+0x6e],ch
 691:	65 2e 00       	gs add BYTE PTR cs:[eax+ebp*2+0x69],dl

00000694 <.Lstr.81>:
 694:	54                   	push   esp
 695:	68 69 73 20 69       	push   0x69207369
 69a:	73 20                	jae    6bc <.Lstr.81+0x28>
 69c:	73 6f                	jae    70d <.Lstr.82+0x4c>
 69e:	66 74 77             	data16 je 718 <.Lstr.83+0x7>
 6a1:	61                   	popa   
 6a2:	72 65                	jb     709 <.Lstr.82+0x48>
 6a4:	20 66 6f             	and    BYTE PTR [esi+0x6f],ah
 6a7:	72 20                	jb     6c9 <.Lstr.82+0x8>
 6a9:	65 6e                	outs   dx,BYTE PTR gs:[esi]
 6ab:	63 72 79             	arpl   WORD PTR [edx+0x79],si
 6ae:	70 74                	jo     724 <.Lstr.83+0x13>
 6b0:	2f                   	das    
 6b1:	64 65 63 72 79       	fs arpl WORD PTR gs:[edx+0x79],si
 6b6:	70 74                	jo     72c <.Lstr.83+0x1b>
 6b8:	20 66 69             	and    BYTE PTR [esi+0x69],ah
 6bb:	6c                   	ins    BYTE PTR es:[edi],dx
 6bc:	65 73 2e             	gs jae 6ed <.Lstr.82+0x2c>
 6bf:	0a 00                	or     al,BYTE PTR [eax]

000006c1 <.Lstr.82>:
 6c1:	41                   	inc    ecx
 6c2:	6c                   	ins    BYTE PTR es:[edi],dx
 6c3:	67 6f                	outs   dx,DWORD PTR ds:[si]
 6c5:	72 69                	jb     730 <.Lstr.83+0x1f>
 6c7:	74 6d                	je     736 <.Lstr.83+0x25>
 6c9:	73 3a                	jae    705 <.Lstr.82+0x44>
 6cb:	0a 09                	or     cl,BYTE PTR [ecx]
 6cd:	2d 72 2f 2d 2d       	sub    eax,0x2d2d2f72
 6d2:	61                   	popa   
 6d3:	65 73 0a             	gs jae 6e0 <.Lstr.82+0x1f>
 6d6:	09 2d 73 2f 2d 2d    	or     DWORD PTR ds:0x2d2d2f73,ebp
 6dc:	73 65                	jae    743 <.Lstr.84+0xa>
 6de:	72 70                	jb     750 <.Lstr.84+0x17>
 6e0:	65 6e                	outs   dx,BYTE PTR gs:[esi]
 6e2:	74 0a                	je     6ee <.Lstr.82+0x2d>
 6e4:	09 2d 77 2f 2d 2d    	or     DWORD PTR ds:0x2d2d2f77,ebp
 6ea:	74 77                	je     763 <.Lstr.84+0x2a>
 6ec:	6f                   	outs   dx,DWORD PTR ds:[esi]
 6ed:	66 69 73 68 0a 09    	imul   si,WORD PTR [ebx+0x68],0x90a
 6f3:	2d 62 2f 2d 2d       	sub    eax,0x2d2d2f62
 6f8:	62 6c 6f 77          	bound  ebp,QWORD PTR [edi+ebp*2+0x77]
 6fc:	66 69 73 68 0a 09    	imul   si,WORD PTR [ebx+0x68],0x90a
 702:	2d 74 2f 2d 2d       	sub    eax,0x2d2d2f74
 707:	74 68                	je     771 <.Lstr.84+0x38>
 709:	72 65                	jb     770 <.Lstr.84+0x37>
 70b:	65 66 69 73 68 00  	imul   si,WORD PTR gs:[ebx+0x68],0x4f00

00000711 <.Lstr.83>:
 711:	4f                   	dec    edi
 712:	70 65                	jo     779 <.Lstr.84+0x40>
 714:	72 61                	jb     777 <.Lstr.84+0x3e>
 716:	74 69                	je     781 <.Lstr.84+0x48>
 718:	6f                   	outs   dx,DWORD PTR ds:[esi]
 719:	6e                   	outs   dx,BYTE PTR ds:[esi]
 71a:	73 3a                	jae    756 <.Lstr.84+0x1d>
 71c:	0a 09                	or     cl,BYTE PTR [ecx]
 71e:	2d 65 2f 2d 2d       	sub    eax,0x2d2d2f65
 723:	65 6e                	outs   dx,BYTE PTR gs:[esi]
 725:	63 72 79             	arpl   WORD PTR [edx+0x79],si
 728:	70 74                	jo     79e <.Lstr.84+0x65>
 72a:	0a 09                	or     cl,BYTE PTR [ecx]
 72c:	2d 64 2f 2d 2d       	sub    eax,0x2d2d2f64
 731:	64 65 63 72 79       	fs arpl WORD PTR gs:[edx+0x79],si
 736:	70 74                	jo     7ac <.Lstr.84+0x73>
	...

00000739 <.Lstr.84>:
 739:	4c                   	dec    esp
 73a:	65 6e                	outs   dx,BYTE PTR gs:[esi]
 73c:	67 74 68             	addr16 je 7a7 <.Lstr.84+0x6e>
 73f:	73 20                	jae    761 <.Lstr.84+0x28>
 741:	6b 65 79 3a          	imul   esp,DWORD PTR [ebp+0x79],0x3a
 745:	0a 09                	or     cl,BYTE PTR [ecx]
 747:	2d 61 2f 2d 2d       	sub    eax,0x2d2d2f61
 74c:	31 32                	xor    DWORD PTR [edx],esi
 74e:	38 2f                	cmp    BYTE PTR [edi],ch
 750:	2d 2d 32 35 36       	sub    eax,0x3635322d
 755:	0a 09                	or     cl,BYTE PTR [ecx]
 757:	2d 62 2f 2d 2d       	sub    eax,0x2d2d2f62
 75c:	31 39                	xor    DWORD PTR [ecx],edi
 75e:	32 2f                	xor    ch,BYTE PTR [edi]
 760:	2d 2d 35 31 32       	sub    eax,0x3231352d
 765:	0a 09                	or     cl,BYTE PTR [ecx]
 767:	2d 63 2f 2d 2d       	sub    eax,0x2d2d2f63
 76c:	32 35 36 2f 2d 2d    	xor    dh,BYTE PTR ds:0x2d2d2f36
 772:	31 30                	xor    DWORD PTR [eax],esi
 774:	32 34 0a             	xor    dh,BYTE PTR [edx+ecx*1]
	...

Дизассемблирование раздела .data:

00000000 <PARAM_READ_BYTE>:
   0:	00 00                	add    BYTE PTR [eax],al
	...

00000004 <PARAM_WRITE_BYTE>:
   4:	00 00                	add    BYTE PTR [eax],al
	...

00000008 <PROGRAMM_NAME>:
   8:	00 00                	add    BYTE PTR [eax],al
	...

Дизассемблирование раздела .bss:

00000000 <rijndael_ctx>:
   0:	00 00                	add    BYTE PTR [eax],al
	...

00000004 <twofish_ctx>:
   4:	00 00                	add    BYTE PTR [eax],al
	...

00000008 <serpent_ctx>:
   8:	00 00                	add    BYTE PTR [eax],al
	...

0000000c <blowfish_ctx>:
   c:	00 00                	add    BYTE PTR [eax],al
	...

00000010 <threefish_ctx>:
  10:	00 00                	add    BYTE PTR [eax],al
	...

Дизассемблирование раздела .comment:

00000000 <.comment>:
   0:	00 44 65 62          	add    BYTE PTR [ebp+eiz*2+0x62],al
   4:	69 61 6e 20 63 6c 61 	imul   esp,DWORD PTR [ecx+0x6e],0x616c6320
   b:	6e                   	outs   dx,BYTE PTR ds:[esi]
   c:	67 20 76 65          	and    BYTE PTR [bp+0x65],dh
  10:	72 73                	jb     85 <.L.str.6+0x2>
  12:	69 6f 6e 20 31 31 2e 	imul   ebp,DWORD PTR [edi+0x6e],0x2e313120
  19:	30 2e                	xor    BYTE PTR [esi],ch
  1b:	31                   	.byte 0x31
  1c:	2d                   	.byte 0x2d
  1d:	32 00                	xor    al,BYTE PTR [eax]
