
crycon_linux.o:     формат файла elf32-i386


Дизассемблирование раздела .group:

00000000 <.group>:
   0:	01 00                	add    DWORD PTR [eax],eax
   2:	00 00                	add    BYTE PTR [eax],al
   4:	0c 00                	or     al,0x0
	...

Дизассемблирование раздела .group:

00000000 <.group>:
   0:	01 00                	add    DWORD PTR [eax],eax
   2:	00 00                	add    BYTE PTR [eax],al
   4:	0d                   	.byte 0xd
   5:	00 00                	add    BYTE PTR [eax],al
	...

Дизассемблирование раздела .group:

00000000 <.group>:
   0:	01 00                	add    DWORD PTR [eax],eax
   2:	00 00                	add    BYTE PTR [eax],al
   4:	0e                   	push   cs
   5:	00 00                	add    BYTE PTR [eax],al
	...

Дизассемблирование раздела .text:

00000000 <free_global_memory>:
       0:	55                   	push   ebp
       1:	89 e5                	mov    ebp,esp
       3:	53                   	push   ebx
       4:	83 ec 04             	sub    esp,0x4
       7:	e8 fc ff ff ff       	call   8 <free_global_memory+0x8>
       c:	81 c3 02 00 00 00    	add    ebx,0x2
      12:	8b 45 08             	mov    eax,DWORD PTR [ebp+0x8]
      15:	8b 40 08             	mov    eax,DWORD PTR [eax+0x8]
      18:	85 c0                	test   eax,eax
      1a:	74 25                	je     41 <free_global_memory+0x41>
      1c:	8b 45 08             	mov    eax,DWORD PTR [ebp+0x8]
      1f:	8b 40 0c             	mov    eax,DWORD PTR [eax+0xc]
      22:	85 c0                	test   eax,eax
      24:	74 1b                	je     41 <free_global_memory+0x41>
      26:	8b 45 08             	mov    eax,DWORD PTR [ebp+0x8]
      29:	8b 50 0c             	mov    edx,DWORD PTR [eax+0xc]
      2c:	8b 45 08             	mov    eax,DWORD PTR [ebp+0x8]
      2f:	8b 40 08             	mov    eax,DWORD PTR [eax+0x8]
      32:	83 ec 04             	sub    esp,0x4
      35:	52                   	push   edx
      36:	6a 00                	push   0x0
      38:	50                   	push   eax
      39:	e8 fc ff ff ff       	call   3a <free_global_memory+0x3a>
      3e:	83 c4 10             	add    esp,0x10
      41:	8b 45 08             	mov    eax,DWORD PTR [ebp+0x8]
      44:	8b 40 10             	mov    eax,DWORD PTR [eax+0x10]
      47:	85 c0                	test   eax,eax
      49:	74 25                	je     70 <free_global_memory+0x70>
      4b:	8b 45 08             	mov    eax,DWORD PTR [ebp+0x8]
      4e:	8b 40 14             	mov    eax,DWORD PTR [eax+0x14]
      51:	85 c0                	test   eax,eax
      53:	74 1b                	je     70 <free_global_memory+0x70>
      55:	8b 45 08             	mov    eax,DWORD PTR [ebp+0x8]
      58:	8b 50 14             	mov    edx,DWORD PTR [eax+0x14]
      5b:	8b 45 08             	mov    eax,DWORD PTR [ebp+0x8]
      5e:	8b 40 10             	mov    eax,DWORD PTR [eax+0x10]
      61:	83 ec 04             	sub    esp,0x4
      64:	52                   	push   edx
      65:	6a 00                	push   0x0
      67:	50                   	push   eax
      68:	e8 fc ff ff ff       	call   69 <free_global_memory+0x69>
      6d:	83 c4 10             	add    esp,0x10
      70:	8b 45 08             	mov    eax,DWORD PTR [ebp+0x8]
      73:	8b 40 18             	mov    eax,DWORD PTR [eax+0x18]
      76:	85 c0                	test   eax,eax
      78:	74 25                	je     9f <free_global_memory+0x9f>
      7a:	8b 45 08             	mov    eax,DWORD PTR [ebp+0x8]
      7d:	8b 40 1c             	mov    eax,DWORD PTR [eax+0x1c]
      80:	85 c0                	test   eax,eax
      82:	74 1b                	je     9f <free_global_memory+0x9f>
      84:	8b 45 08             	mov    eax,DWORD PTR [ebp+0x8]
      87:	8b 50 1c             	mov    edx,DWORD PTR [eax+0x1c]
      8a:	8b 45 08             	mov    eax,DWORD PTR [ebp+0x8]
      8d:	8b 40 18             	mov    eax,DWORD PTR [eax+0x18]
      90:	83 ec 04             	sub    esp,0x4
      93:	52                   	push   edx
      94:	6a 00                	push   0x0
      96:	50                   	push   eax
      97:	e8 fc ff ff ff       	call   98 <free_global_memory+0x98>
      9c:	83 c4 10             	add    esp,0x10
      9f:	8b 45 08             	mov    eax,DWORD PTR [ebp+0x8]
      a2:	8b 40 20             	mov    eax,DWORD PTR [eax+0x20]
      a5:	85 c0                	test   eax,eax
      a7:	74 25                	je     ce <free_global_memory+0xce>
      a9:	8b 45 08             	mov    eax,DWORD PTR [ebp+0x8]
      ac:	8b 40 24             	mov    eax,DWORD PTR [eax+0x24]
      af:	85 c0                	test   eax,eax
      b1:	74 1b                	je     ce <free_global_memory+0xce>
      b3:	8b 45 08             	mov    eax,DWORD PTR [ebp+0x8]
      b6:	8b 50 24             	mov    edx,DWORD PTR [eax+0x24]
      b9:	8b 45 08             	mov    eax,DWORD PTR [ebp+0x8]
      bc:	8b 40 20             	mov    eax,DWORD PTR [eax+0x20]
      bf:	83 ec 04             	sub    esp,0x4
      c2:	52                   	push   edx
      c3:	6a 00                	push   0x0
      c5:	50                   	push   eax
      c6:	e8 fc ff ff ff       	call   c7 <free_global_memory+0xc7>
      cb:	83 c4 10             	add    esp,0x10
      ce:	8b 45 08             	mov    eax,DWORD PTR [ebp+0x8]
      d1:	8b 40 08             	mov    eax,DWORD PTR [eax+0x8]
      d4:	83 ec 0c             	sub    esp,0xc
      d7:	50                   	push   eax
      d8:	e8 fc ff ff ff       	call   d9 <free_global_memory+0xd9>
      dd:	83 c4 10             	add    esp,0x10
      e0:	8b 45 08             	mov    eax,DWORD PTR [ebp+0x8]
      e3:	8b 40 20             	mov    eax,DWORD PTR [eax+0x20]
      e6:	83 ec 0c             	sub    esp,0xc
      e9:	50                   	push   eax
      ea:	e8 fc ff ff ff       	call   eb <free_global_memory+0xeb>
      ef:	83 c4 10             	add    esp,0x10
      f2:	8b 45 08             	mov    eax,DWORD PTR [ebp+0x8]
      f5:	8b 40 10             	mov    eax,DWORD PTR [eax+0x10]
      f8:	83 ec 0c             	sub    esp,0xc
      fb:	50                   	push   eax
      fc:	e8 fc ff ff ff       	call   fd <free_global_memory+0xfd>
     101:	83 c4 10             	add    esp,0x10
     104:	8b 45 08             	mov    eax,DWORD PTR [ebp+0x8]
     107:	8b 40 18             	mov    eax,DWORD PTR [eax+0x18]
     10a:	83 ec 0c             	sub    esp,0xc
     10d:	50                   	push   eax
     10e:	e8 fc ff ff ff       	call   10f <free_global_memory+0x10f>
     113:	83 c4 10             	add    esp,0x10
     116:	83 ec 04             	sub    esp,0x4
     119:	ff 75 0c             	push   DWORD PTR [ebp+0xc]
     11c:	6a 00                	push   0x0
     11e:	ff 75 08             	push   DWORD PTR [ebp+0x8]
     121:	e8 fc ff ff ff       	call   122 <free_global_memory+0x122>
     126:	83 c4 10             	add    esp,0x10
     129:	83 ec 0c             	sub    esp,0xc
     12c:	ff 75 08             	push   DWORD PTR [ebp+0x8]
     12f:	e8 fc ff ff ff       	call   130 <free_global_memory+0x130>
     134:	83 c4 10             	add    esp,0x10
     137:	90                   	nop
     138:	8b 5d fc             	mov    ebx,DWORD PTR [ebp-0x4]
     13b:	c9                   	leave  
     13c:	c3                   	ret    

0000013d <size_check>:
     13d:	55                   	push   ebp
     13e:	89 e5                	mov    ebp,esp
     140:	83 ec 18             	sub    esp,0x18
     143:	e8 fc ff ff ff       	call   144 <size_check+0x7>
     148:	05 01 00 00 00       	add    eax,0x1
     14d:	8b 45 08             	mov    eax,DWORD PTR [ebp+0x8]
     150:	89 45 e8             	mov    DWORD PTR [ebp-0x18],eax
     153:	8b 45 0c             	mov    eax,DWORD PTR [ebp+0xc]
     156:	89 45 ec             	mov    DWORD PTR [ebp-0x14],eax
     159:	c7 45 fc 00 00 00 00 	mov    DWORD PTR [ebp-0x4],0x0
     160:	b8 00 04 00 00       	mov    eax,0x400
     165:	ba 00 00 00 00       	mov    edx,0x0
     16a:	8b 4d ec             	mov    ecx,DWORD PTR [ebp-0x14]
     16d:	39 45 e8             	cmp    DWORD PTR [ebp-0x18],eax
     170:	19 d1                	sbb    ecx,edx
     172:	7c 1d                	jl     191 <size_check+0x54>
     174:	b8 00 00 10 00       	mov    eax,0x100000
     179:	ba 00 00 00 00       	mov    edx,0x0
     17e:	8b 4d ec             	mov    ecx,DWORD PTR [ebp-0x14]
     181:	39 45 e8             	cmp    DWORD PTR [ebp-0x18],eax
     184:	19 d1                	sbb    ecx,edx
     186:	7d 09                	jge    191 <size_check+0x54>
     188:	c7 45 fc 01 00 00 00 	mov    DWORD PTR [ebp-0x4],0x1
     18f:	eb 7d                	jmp    20e <size_check+0xd1>
     191:	b8 00 00 10 00       	mov    eax,0x100000
     196:	ba 00 00 00 00       	mov    edx,0x0
     19b:	8b 4d ec             	mov    ecx,DWORD PTR [ebp-0x14]
     19e:	39 45 e8             	cmp    DWORD PTR [ebp-0x18],eax
     1a1:	19 d1                	sbb    ecx,edx
     1a3:	7c 1d                	jl     1c2 <size_check+0x85>
     1a5:	b8 00 00 00 40       	mov    eax,0x40000000
     1aa:	ba 00 00 00 00       	mov    edx,0x0
     1af:	8b 4d ec             	mov    ecx,DWORD PTR [ebp-0x14]
     1b2:	39 45 e8             	cmp    DWORD PTR [ebp-0x18],eax
     1b5:	19 d1                	sbb    ecx,edx
     1b7:	7d 09                	jge    1c2 <size_check+0x85>
     1b9:	c7 45 fc 02 00 00 00 	mov    DWORD PTR [ebp-0x4],0x2
     1c0:	eb 4c                	jmp    20e <size_check+0xd1>
     1c2:	b8 00 00 00 40       	mov    eax,0x40000000
     1c7:	ba 00 00 00 00       	mov    edx,0x0
     1cc:	8b 4d ec             	mov    ecx,DWORD PTR [ebp-0x14]
     1cf:	39 45 e8             	cmp    DWORD PTR [ebp-0x18],eax
     1d2:	19 d1                	sbb    ecx,edx
     1d4:	7c 1d                	jl     1f3 <size_check+0xb6>
     1d6:	b8 00 00 00 00       	mov    eax,0x0
     1db:	ba 00 01 00 00       	mov    edx,0x100
     1e0:	8b 4d ec             	mov    ecx,DWORD PTR [ebp-0x14]
     1e3:	39 45 e8             	cmp    DWORD PTR [ebp-0x18],eax
     1e6:	19 d1                	sbb    ecx,edx
     1e8:	7d 09                	jge    1f3 <size_check+0xb6>
     1ea:	c7 45 fc 03 00 00 00 	mov    DWORD PTR [ebp-0x4],0x3
     1f1:	eb 1b                	jmp    20e <size_check+0xd1>
     1f3:	b8 00 00 00 00       	mov    eax,0x0
     1f8:	ba 00 01 00 00       	mov    edx,0x100
     1fd:	8b 4d ec             	mov    ecx,DWORD PTR [ebp-0x14]
     200:	39 45 e8             	cmp    DWORD PTR [ebp-0x18],eax
     203:	19 d1                	sbb    ecx,edx
     205:	7c 07                	jl     20e <size_check+0xd1>
     207:	c7 45 fc 04 00 00 00 	mov    DWORD PTR [ebp-0x4],0x4
     20e:	8b 45 fc             	mov    eax,DWORD PTR [ebp-0x4]
     211:	c9                   	leave  
     212:	c3                   	ret    

00000213 <sizetodoubleprint>:
     213:	55                   	push   ebp
     214:	89 e5                	mov    ebp,esp
     216:	83 ec 10             	sub    esp,0x10
     219:	e8 fc ff ff ff       	call   21a <sizetodoubleprint+0x7>
     21e:	05 01 00 00 00       	add    eax,0x1
     223:	8b 55 0c             	mov    edx,DWORD PTR [ebp+0xc]
     226:	89 55 f8             	mov    DWORD PTR [ebp-0x8],edx
     229:	8b 55 10             	mov    edx,DWORD PTR [ebp+0x10]
     22c:	89 55 fc             	mov    DWORD PTR [ebp-0x4],edx
     22f:	83 7d 08 00          	cmp    DWORD PTR [ebp+0x8],0x0
     233:	74 22                	je     257 <sizetodoubleprint+0x44>
     235:	8b 55 08             	mov    edx,DWORD PTR [ebp+0x8]
     238:	83 ea 01             	sub    edx,0x1
     23b:	8d 94 d0 40 00 00 00 	lea    edx,[eax+edx*8+0x40]
     242:	8b 02                	mov    eax,DWORD PTR [edx]
     244:	8b 52 04             	mov    edx,DWORD PTR [edx+0x4]
     247:	89 45 f0             	mov    DWORD PTR [ebp-0x10],eax
     24a:	89 55 f4             	mov    DWORD PTR [ebp-0xc],edx
     24d:	df 6d f0             	fild   QWORD PTR [ebp-0x10]
     250:	dd 45 f8             	fld    QWORD PTR [ebp-0x8]
     253:	de f1                	fdivrp st(1),st
     255:	eb 03                	jmp    25a <sizetodoubleprint+0x47>
     257:	dd 45 f8             	fld    QWORD PTR [ebp-0x8]
     25a:	c9                   	leave  
     25b:	c3                   	ret    

0000025c <KDFCLOMUL2>:
     25c:	55                   	push   ebp
     25d:	89 e5                	mov    ebp,esp
     25f:	53                   	push   ebx
     260:	83 ec 34             	sub    esp,0x34
     263:	e8 fc ff ff ff       	call   264 <KDFCLOMUL2+0x8>
     268:	81 c3 02 00 00 00    	add    ebx,0x2
     26e:	8b 55 18             	mov    edx,DWORD PTR [ebp+0x18]
     271:	8b 45 10             	mov    eax,DWORD PTR [ebp+0x10]
     274:	01 d0                	add    eax,edx
     276:	83 c0 01             	add    eax,0x1
     279:	c1 e0 05             	shl    eax,0x5
     27c:	89 45 ec             	mov    DWORD PTR [ebp-0x14],eax
     27f:	83 ec 0c             	sub    esp,0xc
     282:	ff 75 ec             	push   DWORD PTR [ebp-0x14]
     285:	e8 fc ff ff ff       	call   286 <KDFCLOMUL2+0x2a>
     28a:	83 c4 10             	add    esp,0x10
     28d:	89 45 e8             	mov    DWORD PTR [ebp-0x18],eax
     290:	83 7d e8 00          	cmp    DWORD PTR [ebp-0x18],0x0
     294:	75 26                	jne    2bc <KDFCLOMUL2+0x60>
     296:	8b 83 00 00 00 00    	mov    eax,DWORD PTR [ebx+0x0]
     29c:	8b 00                	mov    eax,DWORD PTR [eax]
     29e:	50                   	push   eax
     29f:	6a 1c                	push   0x1c
     2a1:	6a 01                	push   0x1
     2a3:	8d 83 aa 00 00 00    	lea    eax,[ebx+0xaa]
     2a9:	50                   	push   eax
     2aa:	e8 fc ff ff ff       	call   2ab <KDFCLOMUL2+0x4f>
     2af:	83 c4 10             	add    esp,0x10
     2b2:	83 ec 0c             	sub    esp,0xc
     2b5:	6a 01                	push   0x1
     2b7:	e8 fc ff ff ff       	call   2b8 <KDFCLOMUL2+0x5c>
     2bc:	83 ec 08             	sub    esp,0x8
     2bf:	ff 75 e8             	push   DWORD PTR [ebp-0x18]
     2c2:	8d 83 c8 00 00 00    	lea    eax,[ebx+0xc8]
     2c8:	50                   	push   eax
     2c9:	e8 fc ff ff ff       	call   2ca <KDFCLOMUL2+0x6e>
     2ce:	83 c4 10             	add    esp,0x10
     2d1:	83 ec 08             	sub    esp,0x8
     2d4:	ff 75 ec             	push   DWORD PTR [ebp-0x14]
     2d7:	8d 83 f4 00 00 00    	lea    eax,[ebx+0xf4]
     2dd:	50                   	push   eax
     2de:	e8 fc ff ff ff       	call   2df <KDFCLOMUL2+0x83>
     2e3:	83 c4 10             	add    esp,0x10
     2e6:	83 ec 0c             	sub    esp,0xc
     2e9:	6a 00                	push   0x0
     2eb:	e8 fc ff ff ff       	call   2ec <KDFCLOMUL2+0x90>
     2f0:	83 c4 10             	add    esp,0x10
     2f3:	83 ec 0c             	sub    esp,0xc
     2f6:	50                   	push   eax
     2f7:	e8 fc ff ff ff       	call   2f8 <KDFCLOMUL2+0x9c>
     2fc:	83 c4 10             	add    esp,0x10
     2ff:	e8 fc ff ff ff       	call   300 <KDFCLOMUL2+0xa4>
     304:	89 45 e4             	mov    DWORD PTR [ebp-0x1c],eax
     307:	83 ec 08             	sub    esp,0x8
     30a:	ff 75 10             	push   DWORD PTR [ebp+0x10]
     30d:	ff 75 0c             	push   DWORD PTR [ebp+0xc]
     310:	e8 fc ff ff ff       	call   311 <KDFCLOMUL2+0xb5>
     315:	83 c4 10             	add    esp,0x10
     318:	89 45 e0             	mov    DWORD PTR [ebp-0x20],eax
     31b:	c1 6d e0 10          	shr    DWORD PTR [ebp-0x20],0x10
     31f:	81 4d e0 00 40 00 00 	or     DWORD PTR [ebp-0x20],0x4000
     326:	8b 45 ec             	mov    eax,DWORD PTR [ebp-0x14]
     329:	c1 e8 05             	shr    eax,0x5
     32c:	0f af 45 e0          	imul   eax,DWORD PTR [ebp-0x20]
     330:	89 c2                	mov    edx,eax
     332:	8b 45 18             	mov    eax,DWORD PTR [ebp+0x18]
     335:	c1 e8 05             	shr    eax,0x5
     338:	01 d0                	add    eax,edx
     33a:	83 ec 08             	sub    esp,0x8
     33d:	50                   	push   eax
     33e:	8d 83 20 01 00 00    	lea    eax,[ebx+0x120]
     344:	50                   	push   eax
     345:	e8 fc ff ff ff       	call   346 <KDFCLOMUL2+0xea>
     34a:	83 c4 10             	add    esp,0x10
     34d:	8b 45 08             	mov    eax,DWORD PTR [ebp+0x8]
     350:	8b 50 14             	mov    edx,DWORD PTR [eax+0x14]
     353:	8b 45 08             	mov    eax,DWORD PTR [ebp+0x8]
     356:	8b 40 10             	mov    eax,DWORD PTR [eax+0x10]
     359:	83 ec 04             	sub    esp,0x4
     35c:	52                   	push   edx
     35d:	6a 00                	push   0x0
     35f:	50                   	push   eax
     360:	e8 fc ff ff ff       	call   361 <KDFCLOMUL2+0x105>
     365:	83 c4 10             	add    esp,0x10
     368:	8b 45 08             	mov    eax,DWORD PTR [ebp+0x8]
     36b:	8b 40 10             	mov    eax,DWORD PTR [eax+0x10]
     36e:	83 ec 0c             	sub    esp,0xc
     371:	50                   	push   eax
     372:	e8 fc ff ff ff       	call   373 <KDFCLOMUL2+0x117>
     377:	83 c4 10             	add    esp,0x10
     37a:	8b 45 08             	mov    eax,DWORD PTR [ebp+0x8]
     37d:	8b 40 10             	mov    eax,DWORD PTR [eax+0x10]
     380:	83 ec 04             	sub    esp,0x4
     383:	ff 75 10             	push   DWORD PTR [ebp+0x10]
     386:	ff 75 0c             	push   DWORD PTR [ebp+0xc]
     389:	50                   	push   eax
     38a:	e8 fc ff ff ff       	call   38b <KDFCLOMUL2+0x12f>
     38f:	83 c4 10             	add    esp,0x10
     392:	8b 45 08             	mov    eax,DWORD PTR [ebp+0x8]
     395:	8b 40 10             	mov    eax,DWORD PTR [eax+0x10]
     398:	83 ec 0c             	sub    esp,0xc
     39b:	50                   	push   eax
     39c:	e8 fc ff ff ff       	call   39d <KDFCLOMUL2+0x141>
     3a1:	83 c4 10             	add    esp,0x10
     3a4:	c7 45 f4 00 00 00 00 	mov    DWORD PTR [ebp-0xc],0x0
     3ab:	eb 24                	jmp    3d1 <KDFCLOMUL2+0x175>
     3ad:	8b 45 08             	mov    eax,DWORD PTR [ebp+0x8]
     3b0:	8b 40 10             	mov    eax,DWORD PTR [eax+0x10]
     3b3:	8d 50 6c             	lea    edx,[eax+0x6c]
     3b6:	8b 4d e8             	mov    ecx,DWORD PTR [ebp-0x18]
     3b9:	8b 45 f4             	mov    eax,DWORD PTR [ebp-0xc]
     3bc:	01 c8                	add    eax,ecx
     3be:	83 ec 04             	sub    esp,0x4
     3c1:	6a 20                	push   0x20
     3c3:	52                   	push   edx
     3c4:	50                   	push   eax
     3c5:	e8 fc ff ff ff       	call   3c6 <KDFCLOMUL2+0x16a>
     3ca:	83 c4 10             	add    esp,0x10
     3cd:	83 45 f4 20          	add    DWORD PTR [ebp-0xc],0x20
     3d1:	8b 45 f4             	mov    eax,DWORD PTR [ebp-0xc]
     3d4:	3b 45 ec             	cmp    eax,DWORD PTR [ebp-0x14]
     3d7:	72 d4                	jb     3ad <KDFCLOMUL2+0x151>
     3d9:	c7 45 f4 00 00 00 00 	mov    DWORD PTR [ebp-0xc],0x0
     3e0:	eb 63                	jmp    445 <KDFCLOMUL2+0x1e9>
     3e2:	c7 45 f0 00 00 00 00 	mov    DWORD PTR [ebp-0x10],0x0
     3e9:	eb 1c                	jmp    407 <KDFCLOMUL2+0x1ab>
     3eb:	8b 45 08             	mov    eax,DWORD PTR [ebp+0x8]
     3ee:	8b 40 10             	mov    eax,DWORD PTR [eax+0x10]
     3f1:	83 ec 04             	sub    esp,0x4
     3f4:	ff 75 10             	push   DWORD PTR [ebp+0x10]
     3f7:	ff 75 0c             	push   DWORD PTR [ebp+0xc]
     3fa:	50                   	push   eax
     3fb:	e8 fc ff ff ff       	call   3fc <KDFCLOMUL2+0x1a0>
     400:	83 c4 10             	add    esp,0x10
     403:	83 45 f0 01          	add    DWORD PTR [ebp-0x10],0x1
     407:	8b 45 f0             	mov    eax,DWORD PTR [ebp-0x10]
     40a:	3b 45 e0             	cmp    eax,DWORD PTR [ebp-0x20]
     40d:	72 dc                	jb     3eb <KDFCLOMUL2+0x18f>
     40f:	8b 45 08             	mov    eax,DWORD PTR [ebp+0x8]
     412:	8b 40 10             	mov    eax,DWORD PTR [eax+0x10]
     415:	83 ec 0c             	sub    esp,0xc
     418:	50                   	push   eax
     419:	e8 fc ff ff ff       	call   41a <KDFCLOMUL2+0x1be>
     41e:	83 c4 10             	add    esp,0x10
     421:	8b 45 08             	mov    eax,DWORD PTR [ebp+0x8]
     424:	8b 40 10             	mov    eax,DWORD PTR [eax+0x10]
     427:	8d 50 6c             	lea    edx,[eax+0x6c]
     42a:	8b 4d e8             	mov    ecx,DWORD PTR [ebp-0x18]
     42d:	8b 45 f4             	mov    eax,DWORD PTR [ebp-0xc]
     430:	01 c8                	add    eax,ecx
     432:	83 ec 04             	sub    esp,0x4
     435:	6a 20                	push   0x20
     437:	52                   	push   edx
     438:	50                   	push   eax
     439:	e8 fc ff ff ff       	call   43a <KDFCLOMUL2+0x1de>
     43e:	83 c4 10             	add    esp,0x10
     441:	83 45 f4 20          	add    DWORD PTR [ebp-0xc],0x20
     445:	8b 45 f4             	mov    eax,DWORD PTR [ebp-0xc]
     448:	3b 45 ec             	cmp    eax,DWORD PTR [ebp-0x14]
     44b:	72 95                	jb     3e2 <KDFCLOMUL2+0x186>
     44d:	8b 45 08             	mov    eax,DWORD PTR [ebp+0x8]
     450:	8b 50 14             	mov    edx,DWORD PTR [eax+0x14]
     453:	8b 45 08             	mov    eax,DWORD PTR [ebp+0x8]
     456:	8b 40 10             	mov    eax,DWORD PTR [eax+0x10]
     459:	83 ec 04             	sub    esp,0x4
     45c:	52                   	push   edx
     45d:	6a 00                	push   0x0
     45f:	50                   	push   eax
     460:	e8 fc ff ff ff       	call   461 <KDFCLOMUL2+0x205>
     465:	83 c4 10             	add    esp,0x10
     468:	8b 45 08             	mov    eax,DWORD PTR [ebp+0x8]
     46b:	8b 40 10             	mov    eax,DWORD PTR [eax+0x10]
     46e:	83 ec 0c             	sub    esp,0xc
     471:	50                   	push   eax
     472:	e8 fc ff ff ff       	call   473 <KDFCLOMUL2+0x217>
     477:	83 c4 10             	add    esp,0x10
     47a:	c7 45 f4 00 00 00 00 	mov    DWORD PTR [ebp-0xc],0x0
     481:	eb 65                	jmp    4e8 <KDFCLOMUL2+0x28c>
     483:	8b 45 08             	mov    eax,DWORD PTR [ebp+0x8]
     486:	8b 40 10             	mov    eax,DWORD PTR [eax+0x10]
     489:	83 ec 04             	sub    esp,0x4
     48c:	ff 75 ec             	push   DWORD PTR [ebp-0x14]
     48f:	ff 75 e8             	push   DWORD PTR [ebp-0x18]
     492:	50                   	push   eax
     493:	e8 fc ff ff ff       	call   494 <KDFCLOMUL2+0x238>
     498:	83 c4 10             	add    esp,0x10
     49b:	8b 45 08             	mov    eax,DWORD PTR [ebp+0x8]
     49e:	8b 40 10             	mov    eax,DWORD PTR [eax+0x10]
     4a1:	83 ec 0c             	sub    esp,0xc
     4a4:	50                   	push   eax
     4a5:	e8 fc ff ff ff       	call   4a6 <KDFCLOMUL2+0x24a>
     4aa:	83 c4 10             	add    esp,0x10
     4ad:	8b 45 18             	mov    eax,DWORD PTR [ebp+0x18]
     4b0:	2b 45 f4             	sub    eax,DWORD PTR [ebp-0xc]
     4b3:	89 45 f0             	mov    DWORD PTR [ebp-0x10],eax
     4b6:	83 7d f0 20          	cmp    DWORD PTR [ebp-0x10],0x20
     4ba:	76 07                	jbe    4c3 <KDFCLOMUL2+0x267>
     4bc:	c7 45 f0 20 00 00 00 	mov    DWORD PTR [ebp-0x10],0x20
     4c3:	8b 45 08             	mov    eax,DWORD PTR [ebp+0x8]
     4c6:	8b 40 10             	mov    eax,DWORD PTR [eax+0x10]
     4c9:	8d 50 6c             	lea    edx,[eax+0x6c]
     4cc:	8b 4d 14             	mov    ecx,DWORD PTR [ebp+0x14]
     4cf:	8b 45 f4             	mov    eax,DWORD PTR [ebp-0xc]
     4d2:	01 c8                	add    eax,ecx
     4d4:	83 ec 04             	sub    esp,0x4
     4d7:	ff 75 f0             	push   DWORD PTR [ebp-0x10]
     4da:	52                   	push   edx
     4db:	50                   	push   eax
     4dc:	e8 fc ff ff ff       	call   4dd <KDFCLOMUL2+0x281>
     4e1:	83 c4 10             	add    esp,0x10
     4e4:	83 45 f4 20          	add    DWORD PTR [ebp-0xc],0x20
     4e8:	8b 45 f4             	mov    eax,DWORD PTR [ebp-0xc]
     4eb:	3b 45 18             	cmp    eax,DWORD PTR [ebp+0x18]
     4ee:	72 93                	jb     483 <KDFCLOMUL2+0x227>
     4f0:	e8 fc ff ff ff       	call   4f1 <KDFCLOMUL2+0x295>
     4f5:	2b 45 e4             	sub    eax,DWORD PTR [ebp-0x1c]
     4f8:	89 45 d4             	mov    DWORD PTR [ebp-0x2c],eax
     4fb:	db 45 d4             	fild   DWORD PTR [ebp-0x2c]
     4fe:	dd 83 40 0e 00 00    	fld    QWORD PTR [ebx+0xe40]
     504:	de f9                	fdivp  st(1),st
     506:	83 ec 04             	sub    esp,0x4
     509:	8d 64 24 f8          	lea    esp,[esp-0x8]
     50d:	dd 1c 24             	fstp   QWORD PTR [esp]
     510:	8d 83 4c 01 00 00    	lea    eax,[ebx+0x14c]
     516:	50                   	push   eax
     517:	e8 fc ff ff ff       	call   518 <KDFCLOMUL2+0x2bc>
     51c:	83 c4 10             	add    esp,0x10
     51f:	83 ec 0c             	sub    esp,0xc
     522:	8d 83 78 01 00 00    	lea    eax,[ebx+0x178]
     528:	50                   	push   eax
     529:	e8 fc ff ff ff       	call   52a <KDFCLOMUL2+0x2ce>
     52e:	83 c4 10             	add    esp,0x10
     531:	83 ec 04             	sub    esp,0x4
     534:	ff 75 ec             	push   DWORD PTR [ebp-0x14]
     537:	ff 75 e8             	push   DWORD PTR [ebp-0x18]
     53a:	6a 01                	push   0x1
     53c:	e8 fc ff ff ff       	call   53d <KDFCLOMUL2+0x2e1>
     541:	83 c4 10             	add    esp,0x10
     544:	8b 45 08             	mov    eax,DWORD PTR [ebp+0x8]
     547:	8b 50 14             	mov    edx,DWORD PTR [eax+0x14]
     54a:	8b 45 08             	mov    eax,DWORD PTR [ebp+0x8]
     54d:	8b 40 10             	mov    eax,DWORD PTR [eax+0x10]
     550:	83 ec 04             	sub    esp,0x4
     553:	52                   	push   edx
     554:	6a 00                	push   0x0
     556:	50                   	push   eax
     557:	e8 fc ff ff ff       	call   558 <KDFCLOMUL2+0x2fc>
     55c:	83 c4 10             	add    esp,0x10
     55f:	83 ec 04             	sub    esp,0x4
     562:	ff 75 ec             	push   DWORD PTR [ebp-0x14]
     565:	6a 00                	push   0x0
     567:	ff 75 e8             	push   DWORD PTR [ebp-0x18]
     56a:	e8 fc ff ff ff       	call   56b <KDFCLOMUL2+0x30f>
     56f:	83 c4 10             	add    esp,0x10
     572:	83 ec 0c             	sub    esp,0xc
     575:	ff 75 e8             	push   DWORD PTR [ebp-0x18]
     578:	e8 fc ff ff ff       	call   579 <KDFCLOMUL2+0x31d>
     57d:	83 c4 10             	add    esp,0x10
     580:	c7 45 e8 00 00 00 00 	mov    DWORD PTR [ebp-0x18],0x0
     587:	90                   	nop
     588:	8b 5d fc             	mov    ebx,DWORD PTR [ebp-0x4]
     58b:	c9                   	leave  
     58c:	c3                   	ret    

0000058d <KDFCLOMUL>:
     58d:	55                   	push   ebp
     58e:	89 e5                	mov    ebp,esp
     590:	53                   	push   ebx
     591:	83 ec 34             	sub    esp,0x34
     594:	e8 fc ff ff ff       	call   595 <KDFCLOMUL+0x8>
     599:	81 c3 02 00 00 00    	add    ebx,0x2
     59f:	c7 45 e8 00 00 00 00 	mov    DWORD PTR [ebp-0x18],0x0
     5a6:	83 ec 0c             	sub    esp,0xc
     5a9:	6a 00                	push   0x0
     5ab:	e8 fc ff ff ff       	call   5ac <KDFCLOMUL+0x1f>
     5b0:	83 c4 10             	add    esp,0x10
     5b3:	83 ec 0c             	sub    esp,0xc
     5b6:	50                   	push   eax
     5b7:	e8 fc ff ff ff       	call   5b8 <KDFCLOMUL+0x2b>
     5bc:	83 c4 10             	add    esp,0x10
     5bf:	e8 fc ff ff ff       	call   5c0 <KDFCLOMUL+0x33>
     5c4:	89 45 e4             	mov    DWORD PTR [ebp-0x1c],eax
     5c7:	c7 45 f4 01 00 00 00 	mov    DWORD PTR [ebp-0xc],0x1
     5ce:	eb 33                	jmp    603 <KDFCLOMUL+0x76>
     5d0:	83 ec 08             	sub    esp,0x8
     5d3:	ff 75 f4             	push   DWORD PTR [ebp-0xc]
     5d6:	ff 75 0c             	push   DWORD PTR [ebp+0xc]
     5d9:	e8 fc ff ff ff       	call   5da <KDFCLOMUL+0x4d>
     5de:	83 c4 10             	add    esp,0x10
     5e1:	83 c0 01             	add    eax,0x1
     5e4:	31 45 e8             	xor    DWORD PTR [ebp-0x18],eax
     5e7:	8b 55 10             	mov    edx,DWORD PTR [ebp+0x10]
     5ea:	8b 45 18             	mov    eax,DWORD PTR [ebp+0x18]
     5ed:	01 c2                	add    edx,eax
     5ef:	8b 45 f4             	mov    eax,DWORD PTR [ebp-0xc]
     5f2:	01 c2                	add    edx,eax
     5f4:	8b 45 e8             	mov    eax,DWORD PTR [ebp-0x18]
     5f7:	29 d0                	sub    eax,edx
     5f9:	83 e8 01             	sub    eax,0x1
     5fc:	89 45 e8             	mov    DWORD PTR [ebp-0x18],eax
     5ff:	83 45 f4 01          	add    DWORD PTR [ebp-0xc],0x1
     603:	8b 45 f4             	mov    eax,DWORD PTR [ebp-0xc]
     606:	3b 45 10             	cmp    eax,DWORD PTR [ebp+0x10]
     609:	76 c5                	jbe    5d0 <KDFCLOMUL+0x43>
     60b:	83 ec 08             	sub    esp,0x8
     60e:	ff 75 10             	push   DWORD PTR [ebp+0x10]
     611:	ff 75 0c             	push   DWORD PTR [ebp+0xc]
     614:	e8 fc ff ff ff       	call   615 <KDFCLOMUL+0x88>
     619:	83 c4 10             	add    esp,0x10
     61c:	21 45 e8             	and    DWORD PTR [ebp-0x18],eax
     61f:	c1 6d e8 12          	shr    DWORD PTR [ebp-0x18],0x12
     623:	81 4d e8 00 40 00 00 	or     DWORD PTR [ebp-0x18],0x4000
     62a:	83 ec 08             	sub    esp,0x8
     62d:	ff 75 e8             	push   DWORD PTR [ebp-0x18]
     630:	8d 83 20 01 00 00    	lea    eax,[ebx+0x120]
     636:	50                   	push   eax
     637:	e8 fc ff ff ff       	call   638 <KDFCLOMUL+0xab>
     63c:	83 c4 10             	add    esp,0x10
     63f:	8b 45 08             	mov    eax,DWORD PTR [ebp+0x8]
     642:	8b 40 10             	mov    eax,DWORD PTR [eax+0x10]
     645:	83 ec 0c             	sub    esp,0xc
     648:	50                   	push   eax
     649:	e8 fc ff ff ff       	call   64a <KDFCLOMUL+0xbd>
     64e:	83 c4 10             	add    esp,0x10
     651:	c7 45 ec 00 00 00 00 	mov    DWORD PTR [ebp-0x14],0x0
     658:	8b 45 ec             	mov    eax,DWORD PTR [ebp-0x14]
     65b:	89 45 f4             	mov    DWORD PTR [ebp-0xc],eax
     65e:	eb 6f                	jmp    6cf <KDFCLOMUL+0x142>
     660:	c7 45 f0 00 00 00 00 	mov    DWORD PTR [ebp-0x10],0x0
     667:	eb 1c                	jmp    685 <KDFCLOMUL+0xf8>
     669:	8b 45 08             	mov    eax,DWORD PTR [ebp+0x8]
     66c:	8b 40 10             	mov    eax,DWORD PTR [eax+0x10]
     66f:	83 ec 04             	sub    esp,0x4
     672:	ff 75 10             	push   DWORD PTR [ebp+0x10]
     675:	ff 75 0c             	push   DWORD PTR [ebp+0xc]
     678:	50                   	push   eax
     679:	e8 fc ff ff ff       	call   67a <KDFCLOMUL+0xed>
     67e:	83 c4 10             	add    esp,0x10
     681:	83 45 f0 01          	add    DWORD PTR [ebp-0x10],0x1
     685:	8b 45 f0             	mov    eax,DWORD PTR [ebp-0x10]
     688:	3b 45 e8             	cmp    eax,DWORD PTR [ebp-0x18]
     68b:	72 dc                	jb     669 <KDFCLOMUL+0xdc>
     68d:	8b 45 08             	mov    eax,DWORD PTR [ebp+0x8]
     690:	8b 40 10             	mov    eax,DWORD PTR [eax+0x10]
     693:	83 ec 0c             	sub    esp,0xc
     696:	50                   	push   eax
     697:	e8 fc ff ff ff       	call   698 <KDFCLOMUL+0x10b>
     69c:	83 c4 10             	add    esp,0x10
     69f:	83 7d ec 1f          	cmp    DWORD PTR [ebp-0x14],0x1f
     6a3:	76 07                	jbe    6ac <KDFCLOMUL+0x11f>
     6a5:	c7 45 ec 00 00 00 00 	mov    DWORD PTR [ebp-0x14],0x0
     6ac:	8b 45 08             	mov    eax,DWORD PTR [ebp+0x8]
     6af:	8b 48 10             	mov    ecx,DWORD PTR [eax+0x10]
     6b2:	8b 55 14             	mov    edx,DWORD PTR [ebp+0x14]
     6b5:	8b 45 f4             	mov    eax,DWORD PTR [ebp-0xc]
     6b8:	01 c2                	add    edx,eax
     6ba:	8b 45 ec             	mov    eax,DWORD PTR [ebp-0x14]
     6bd:	01 c8                	add    eax,ecx
     6bf:	83 c0 6c             	add    eax,0x6c
     6c2:	0f b6 00             	movzx  eax,BYTE PTR [eax]
     6c5:	88 02                	mov    BYTE PTR [edx],al
     6c7:	83 45 f4 01          	add    DWORD PTR [ebp-0xc],0x1
     6cb:	83 45 ec 01          	add    DWORD PTR [ebp-0x14],0x1
     6cf:	8b 45 f4             	mov    eax,DWORD PTR [ebp-0xc]
     6d2:	3b 45 18             	cmp    eax,DWORD PTR [ebp+0x18]
     6d5:	72 89                	jb     660 <KDFCLOMUL+0xd3>
     6d7:	e8 fc ff ff ff       	call   6d8 <KDFCLOMUL+0x14b>
     6dc:	2b 45 e4             	sub    eax,DWORD PTR [ebp-0x1c]
     6df:	89 45 d4             	mov    DWORD PTR [ebp-0x2c],eax
     6e2:	db 45 d4             	fild   DWORD PTR [ebp-0x2c]
     6e5:	dd 83 40 0e 00 00    	fld    QWORD PTR [ebx+0xe40]
     6eb:	de f9                	fdivp  st(1),st
     6ed:	83 ec 04             	sub    esp,0x4
     6f0:	8d 64 24 f8          	lea    esp,[esp-0x8]
     6f4:	dd 1c 24             	fstp   QWORD PTR [esp]
     6f7:	8d 83 4c 01 00 00    	lea    eax,[ebx+0x14c]
     6fd:	50                   	push   eax
     6fe:	e8 fc ff ff ff       	call   6ff <KDFCLOMUL+0x172>
     703:	83 c4 10             	add    esp,0x10
     706:	8b 45 08             	mov    eax,DWORD PTR [ebp+0x8]
     709:	8b 50 14             	mov    edx,DWORD PTR [eax+0x14]
     70c:	8b 45 08             	mov    eax,DWORD PTR [ebp+0x8]
     70f:	8b 40 10             	mov    eax,DWORD PTR [eax+0x10]
     712:	83 ec 04             	sub    esp,0x4
     715:	52                   	push   edx
     716:	6a 00                	push   0x0
     718:	50                   	push   eax
     719:	e8 fc ff ff ff       	call   71a <KDFCLOMUL+0x18d>
     71e:	83 c4 10             	add    esp,0x10
     721:	90                   	nop
     722:	8b 5d fc             	mov    ebx,DWORD PTR [ebp-0x4]
     725:	c9                   	leave  
     726:	c3                   	ret    

00000727 <operation_variant>:
     727:	55                   	push   ebp
     728:	89 e5                	mov    ebp,esp
     72a:	e8 fc ff ff ff       	call   72b <operation_variant+0x4>
     72f:	05 01 00 00 00       	add    eax,0x1
     734:	83 7d 08 00          	cmp    DWORD PTR [ebp+0x8],0x0
     738:	0f 95 c0             	setne  al
     73b:	0f b6 c0             	movzx  eax,al
     73e:	5d                   	pop    ebp
     73f:	c3                   	ret    

00000740 <size_of_file>:
     740:	55                   	push   ebp
     741:	89 e5                	mov    ebp,esp
     743:	53                   	push   ebx
     744:	83 ec 14             	sub    esp,0x14
     747:	e8 fc ff ff ff       	call   748 <size_of_file+0x8>
     74c:	81 c3 02 00 00 00    	add    ebx,0x2
     752:	83 7d 08 00          	cmp    DWORD PTR [ebp+0x8],0x0
     756:	75 0c                	jne    764 <size_of_file+0x24>
     758:	b8 ff ff ff ff       	mov    eax,0xffffffff
     75d:	ba ff ff ff ff       	mov    edx,0xffffffff
     762:	eb 5c                	jmp    7c0 <size_of_file+0x80>
     764:	6a 02                	push   0x2
     766:	6a 00                	push   0x0
     768:	6a 00                	push   0x0
     76a:	ff 75 08             	push   DWORD PTR [ebp+0x8]
     76d:	e8 fc ff ff ff       	call   76e <size_of_file+0x2e>
     772:	83 c4 10             	add    esp,0x10
     775:	85 c0                	test   eax,eax
     777:	74 0c                	je     785 <size_of_file+0x45>
     779:	b8 ff ff ff ff       	mov    eax,0xffffffff
     77e:	ba ff ff ff ff       	mov    edx,0xffffffff
     783:	eb 3b                	jmp    7c0 <size_of_file+0x80>
     785:	83 ec 0c             	sub    esp,0xc
     788:	ff 75 08             	push   DWORD PTR [ebp+0x8]
     78b:	e8 fc ff ff ff       	call   78c <size_of_file+0x4c>
     790:	83 c4 10             	add    esp,0x10
     793:	89 45 f0             	mov    DWORD PTR [ebp-0x10],eax
     796:	89 55 f4             	mov    DWORD PTR [ebp-0xc],edx
     799:	6a 00                	push   0x0
     79b:	6a 00                	push   0x0
     79d:	6a 00                	push   0x0
     79f:	ff 75 08             	push   DWORD PTR [ebp+0x8]
     7a2:	e8 fc ff ff ff       	call   7a3 <size_of_file+0x63>
     7a7:	83 c4 10             	add    esp,0x10
     7aa:	85 c0                	test   eax,eax
     7ac:	74 0c                	je     7ba <size_of_file+0x7a>
     7ae:	b8 ff ff ff ff       	mov    eax,0xffffffff
     7b3:	ba ff ff ff ff       	mov    edx,0xffffffff
     7b8:	eb 06                	jmp    7c0 <size_of_file+0x80>
     7ba:	8b 45 f0             	mov    eax,DWORD PTR [ebp-0x10]
     7bd:	8b 55 f4             	mov    edx,DWORD PTR [ebp-0xc]
     7c0:	8b 5d fc             	mov    ebx,DWORD PTR [ebp-0x4]
     7c3:	c9                   	leave  
     7c4:	c3                   	ret    

000007c5 <cipher_free>:
     7c5:	55                   	push   ebp
     7c6:	89 e5                	mov    ebp,esp
     7c8:	53                   	push   ebx
     7c9:	83 ec 04             	sub    esp,0x4
     7cc:	e8 fc ff ff ff       	call   7cd <cipher_free+0x8>
     7d1:	81 c3 02 00 00 00    	add    ebx,0x2
     7d7:	83 ec 04             	sub    esp,0x4
     7da:	ff 75 0c             	push   DWORD PTR [ebp+0xc]
     7dd:	6a 00                	push   0x0
     7df:	ff 75 08             	push   DWORD PTR [ebp+0x8]
     7e2:	e8 fc ff ff ff       	call   7e3 <cipher_free+0x1e>
     7e7:	83 c4 10             	add    esp,0x10
     7ea:	83 ec 0c             	sub    esp,0xc
     7ed:	ff 75 08             	push   DWORD PTR [ebp+0x8]
     7f0:	e8 fc ff ff ff       	call   7f1 <cipher_free+0x2c>
     7f5:	83 c4 10             	add    esp,0x10
     7f8:	90                   	nop
     7f9:	8b 5d fc             	mov    ebx,DWORD PTR [ebp-0x4]
     7fc:	c9                   	leave  
     7fd:	c3                   	ret    

000007fe <hmac_sha256_uf>:
     7fe:	55                   	push   ebp
     7ff:	89 e5                	mov    ebp,esp
     801:	53                   	push   ebx
     802:	83 ec 14             	sub    esp,0x14
     805:	e8 fc ff ff ff       	call   806 <hmac_sha256_uf+0x8>
     80a:	81 c3 02 00 00 00    	add    ebx,0x2
     810:	c7 45 f0 60 00 00 00 	mov    DWORD PTR [ebp-0x10],0x60
     817:	83 ec 0c             	sub    esp,0xc
     81a:	ff 75 f0             	push   DWORD PTR [ebp-0x10]
     81d:	e8 fc ff ff ff       	call   81e <hmac_sha256_uf+0x20>
     822:	83 c4 10             	add    esp,0x10
     825:	89 45 ec             	mov    DWORD PTR [ebp-0x14],eax
     828:	83 7d ec 00          	cmp    DWORD PTR [ebp-0x14],0x0
     82c:	75 26                	jne    854 <hmac_sha256_uf+0x56>
     82e:	8b 83 00 00 00 00    	mov    eax,DWORD PTR [ebx+0x0]
     834:	8b 00                	mov    eax,DWORD PTR [eax]
     836:	50                   	push   eax
     837:	6a 1c                	push   0x1c
     839:	6a 01                	push   0x1
     83b:	8d 83 aa 00 00 00    	lea    eax,[ebx+0xaa]
     841:	50                   	push   eax
     842:	e8 fc ff ff ff       	call   843 <hmac_sha256_uf+0x45>
     847:	83 c4 10             	add    esp,0x10
     84a:	83 ec 0c             	sub    esp,0xc
     84d:	6a 01                	push   0x1
     84f:	e8 fc ff ff ff       	call   850 <hmac_sha256_uf+0x52>
     854:	8b 45 08             	mov    eax,DWORD PTR [ebp+0x8]
     857:	8b 40 24             	mov    eax,DWORD PTR [eax+0x24]
     85a:	ba 20 00 00 00       	mov    edx,0x20
     85f:	83 f8 20             	cmp    eax,0x20
     862:	0f 47 c2             	cmova  eax,edx
     865:	89 45 e8             	mov    DWORD PTR [ebp-0x18],eax
     868:	8b 45 08             	mov    eax,DWORD PTR [ebp+0x8]
     86b:	8b 40 10             	mov    eax,DWORD PTR [eax+0x10]
     86e:	8d 50 6c             	lea    edx,[eax+0x6c]
     871:	8b 45 ec             	mov    eax,DWORD PTR [ebp-0x14]
     874:	83 ec 04             	sub    esp,0x4
     877:	6a 20                	push   0x20
     879:	52                   	push   edx
     87a:	50                   	push   eax
     87b:	e8 fc ff ff ff       	call   87c <hmac_sha256_uf+0x7e>
     880:	83 c4 10             	add    esp,0x10
     883:	8b 45 08             	mov    eax,DWORD PTR [ebp+0x8]
     886:	8b 40 20             	mov    eax,DWORD PTR [eax+0x20]
     889:	8b 55 ec             	mov    edx,DWORD PTR [ebp-0x14]
     88c:	83 c2 20             	add    edx,0x20
     88f:	83 ec 04             	sub    esp,0x4
     892:	ff 75 e8             	push   DWORD PTR [ebp-0x18]
     895:	50                   	push   eax
     896:	52                   	push   edx
     897:	e8 fc ff ff ff       	call   898 <hmac_sha256_uf+0x9a>
     89c:	83 c4 10             	add    esp,0x10
     89f:	8b 45 08             	mov    eax,DWORD PTR [ebp+0x8]
     8a2:	8b 40 20             	mov    eax,DWORD PTR [eax+0x20]
     8a5:	8b 55 ec             	mov    edx,DWORD PTR [ebp-0x14]
     8a8:	83 c2 40             	add    edx,0x40
     8ab:	83 ec 04             	sub    esp,0x4
     8ae:	ff 75 e8             	push   DWORD PTR [ebp-0x18]
     8b1:	50                   	push   eax
     8b2:	52                   	push   edx
     8b3:	e8 fc ff ff ff       	call   8b4 <hmac_sha256_uf+0xb6>
     8b8:	83 c4 10             	add    esp,0x10
     8bb:	8b 45 e8             	mov    eax,DWORD PTR [ebp-0x18]
     8be:	89 45 f4             	mov    DWORD PTR [ebp-0xc],eax
     8c1:	eb 20                	jmp    8e3 <hmac_sha256_uf+0xe5>
     8c3:	8b 55 ec             	mov    edx,DWORD PTR [ebp-0x14]
     8c6:	8b 45 f4             	mov    eax,DWORD PTR [ebp-0xc]
     8c9:	01 d0                	add    eax,edx
     8cb:	83 c0 20             	add    eax,0x20
     8ce:	c6 00 00             	mov    BYTE PTR [eax],0x0
     8d1:	8b 55 ec             	mov    edx,DWORD PTR [ebp-0x14]
     8d4:	8b 45 f4             	mov    eax,DWORD PTR [ebp-0xc]
     8d7:	01 d0                	add    eax,edx
     8d9:	83 c0 40             	add    eax,0x40
     8dc:	c6 00 00             	mov    BYTE PTR [eax],0x0
     8df:	83 45 f4 01          	add    DWORD PTR [ebp-0xc],0x1
     8e3:	83 7d f4 1f          	cmp    DWORD PTR [ebp-0xc],0x1f
     8e7:	76 da                	jbe    8c3 <hmac_sha256_uf+0xc5>
     8e9:	c7 45 f4 00 00 00 00 	mov    DWORD PTR [ebp-0xc],0x0
     8f0:	eb 44                	jmp    936 <hmac_sha256_uf+0x138>
     8f2:	8b 55 ec             	mov    edx,DWORD PTR [ebp-0x14]
     8f5:	8b 45 f4             	mov    eax,DWORD PTR [ebp-0xc]
     8f8:	01 d0                	add    eax,edx
     8fa:	83 c0 20             	add    eax,0x20
     8fd:	0f b6 00             	movzx  eax,BYTE PTR [eax]
     900:	83 f0 55             	xor    eax,0x55
     903:	89 c2                	mov    edx,eax
     905:	8b 4d ec             	mov    ecx,DWORD PTR [ebp-0x14]
     908:	8b 45 f4             	mov    eax,DWORD PTR [ebp-0xc]
     90b:	01 c8                	add    eax,ecx
     90d:	83 c0 20             	add    eax,0x20
     910:	88 10                	mov    BYTE PTR [eax],dl
     912:	8b 55 ec             	mov    edx,DWORD PTR [ebp-0x14]
     915:	8b 45 f4             	mov    eax,DWORD PTR [ebp-0xc]
     918:	01 d0                	add    eax,edx
     91a:	83 c0 40             	add    eax,0x40
     91d:	0f b6 00             	movzx  eax,BYTE PTR [eax]
     920:	83 f0 66             	xor    eax,0x66
     923:	89 c2                	mov    edx,eax
     925:	8b 4d ec             	mov    ecx,DWORD PTR [ebp-0x14]
     928:	8b 45 f4             	mov    eax,DWORD PTR [ebp-0xc]
     92b:	01 c8                	add    eax,ecx
     92d:	83 c0 40             	add    eax,0x40
     930:	88 10                	mov    BYTE PTR [eax],dl
     932:	83 45 f4 01          	add    DWORD PTR [ebp-0xc],0x1
     936:	83 7d f4 1f          	cmp    DWORD PTR [ebp-0xc],0x1f
     93a:	76 b6                	jbe    8f2 <hmac_sha256_uf+0xf4>
     93c:	83 ec 0c             	sub    esp,0xc
     93f:	8d 83 a0 01 00 00    	lea    eax,[ebx+0x1a0]
     945:	50                   	push   eax
     946:	e8 fc ff ff ff       	call   947 <hmac_sha256_uf+0x149>
     94b:	83 c4 10             	add    esp,0x10
     94e:	8b 45 ec             	mov    eax,DWORD PTR [ebp-0x14]
     951:	83 c0 20             	add    eax,0x20
     954:	83 ec 04             	sub    esp,0x4
     957:	6a 20                	push   0x20
     959:	50                   	push   eax
     95a:	6a 01                	push   0x1
     95c:	e8 fc ff ff ff       	call   95d <hmac_sha256_uf+0x15f>
     961:	83 c4 10             	add    esp,0x10
     964:	83 ec 0c             	sub    esp,0xc
     967:	8d 83 c4 01 00 00    	lea    eax,[ebx+0x1c4]
     96d:	50                   	push   eax
     96e:	e8 fc ff ff ff       	call   96f <hmac_sha256_uf+0x171>
     973:	83 c4 10             	add    esp,0x10
     976:	8b 45 ec             	mov    eax,DWORD PTR [ebp-0x14]
     979:	83 c0 40             	add    eax,0x40
     97c:	83 ec 04             	sub    esp,0x4
     97f:	6a 20                	push   0x20
     981:	50                   	push   eax
     982:	6a 01                	push   0x1
     984:	e8 fc ff ff ff       	call   985 <hmac_sha256_uf+0x187>
     989:	83 c4 10             	add    esp,0x10
     98c:	8b 45 08             	mov    eax,DWORD PTR [ebp+0x8]
     98f:	8b 50 14             	mov    edx,DWORD PTR [eax+0x14]
     992:	8b 45 08             	mov    eax,DWORD PTR [ebp+0x8]
     995:	8b 40 10             	mov    eax,DWORD PTR [eax+0x10]
     998:	83 ec 04             	sub    esp,0x4
     99b:	52                   	push   edx
     99c:	6a 00                	push   0x0
     99e:	50                   	push   eax
     99f:	e8 fc ff ff ff       	call   9a0 <hmac_sha256_uf+0x1a2>
     9a4:	83 c4 10             	add    esp,0x10
     9a7:	8b 45 08             	mov    eax,DWORD PTR [ebp+0x8]
     9aa:	8b 40 10             	mov    eax,DWORD PTR [eax+0x10]
     9ad:	83 ec 0c             	sub    esp,0xc
     9b0:	50                   	push   eax
     9b1:	e8 fc ff ff ff       	call   9b2 <hmac_sha256_uf+0x1b4>
     9b6:	83 c4 10             	add    esp,0x10
     9b9:	8b 45 ec             	mov    eax,DWORD PTR [ebp-0x14]
     9bc:	8d 50 20             	lea    edx,[eax+0x20]
     9bf:	8b 45 08             	mov    eax,DWORD PTR [ebp+0x8]
     9c2:	8b 40 10             	mov    eax,DWORD PTR [eax+0x10]
     9c5:	83 ec 04             	sub    esp,0x4
     9c8:	6a 20                	push   0x20
     9ca:	52                   	push   edx
     9cb:	50                   	push   eax
     9cc:	e8 fc ff ff ff       	call   9cd <hmac_sha256_uf+0x1cf>
     9d1:	83 c4 10             	add    esp,0x10
     9d4:	8b 55 ec             	mov    edx,DWORD PTR [ebp-0x14]
     9d7:	8b 45 08             	mov    eax,DWORD PTR [ebp+0x8]
     9da:	8b 40 10             	mov    eax,DWORD PTR [eax+0x10]
     9dd:	83 ec 04             	sub    esp,0x4
     9e0:	6a 20                	push   0x20
     9e2:	52                   	push   edx
     9e3:	50                   	push   eax
     9e4:	e8 fc ff ff ff       	call   9e5 <hmac_sha256_uf+0x1e7>
     9e9:	83 c4 10             	add    esp,0x10
     9ec:	8b 45 08             	mov    eax,DWORD PTR [ebp+0x8]
     9ef:	8b 40 10             	mov    eax,DWORD PTR [eax+0x10]
     9f2:	83 ec 0c             	sub    esp,0xc
     9f5:	50                   	push   eax
     9f6:	e8 fc ff ff ff       	call   9f7 <hmac_sha256_uf+0x1f9>
     9fb:	83 c4 10             	add    esp,0x10
     9fe:	8b 45 08             	mov    eax,DWORD PTR [ebp+0x8]
     a01:	8b 40 10             	mov    eax,DWORD PTR [eax+0x10]
     a04:	8d 50 6c             	lea    edx,[eax+0x6c]
     a07:	8b 45 ec             	mov    eax,DWORD PTR [ebp-0x14]
     a0a:	83 ec 04             	sub    esp,0x4
     a0d:	6a 20                	push   0x20
     a0f:	52                   	push   edx
     a10:	50                   	push   eax
     a11:	e8 fc ff ff ff       	call   a12 <hmac_sha256_uf+0x214>
     a16:	83 c4 10             	add    esp,0x10
     a19:	8b 45 08             	mov    eax,DWORD PTR [ebp+0x8]
     a1c:	8b 50 14             	mov    edx,DWORD PTR [eax+0x14]
     a1f:	8b 45 08             	mov    eax,DWORD PTR [ebp+0x8]
     a22:	8b 40 10             	mov    eax,DWORD PTR [eax+0x10]
     a25:	83 ec 04             	sub    esp,0x4
     a28:	52                   	push   edx
     a29:	6a 00                	push   0x0
     a2b:	50                   	push   eax
     a2c:	e8 fc ff ff ff       	call   a2d <hmac_sha256_uf+0x22f>
     a31:	83 c4 10             	add    esp,0x10
     a34:	8b 45 08             	mov    eax,DWORD PTR [ebp+0x8]
     a37:	8b 40 10             	mov    eax,DWORD PTR [eax+0x10]
     a3a:	83 ec 0c             	sub    esp,0xc
     a3d:	50                   	push   eax
     a3e:	e8 fc ff ff ff       	call   a3f <hmac_sha256_uf+0x241>
     a43:	83 c4 10             	add    esp,0x10
     a46:	8b 45 ec             	mov    eax,DWORD PTR [ebp-0x14]
     a49:	8d 50 40             	lea    edx,[eax+0x40]
     a4c:	8b 45 08             	mov    eax,DWORD PTR [ebp+0x8]
     a4f:	8b 40 10             	mov    eax,DWORD PTR [eax+0x10]
     a52:	83 ec 04             	sub    esp,0x4
     a55:	6a 20                	push   0x20
     a57:	52                   	push   edx
     a58:	50                   	push   eax
     a59:	e8 fc ff ff ff       	call   a5a <hmac_sha256_uf+0x25c>
     a5e:	83 c4 10             	add    esp,0x10
     a61:	8b 55 ec             	mov    edx,DWORD PTR [ebp-0x14]
     a64:	8b 45 08             	mov    eax,DWORD PTR [ebp+0x8]
     a67:	8b 40 10             	mov    eax,DWORD PTR [eax+0x10]
     a6a:	83 ec 04             	sub    esp,0x4
     a6d:	6a 20                	push   0x20
     a6f:	52                   	push   edx
     a70:	50                   	push   eax
     a71:	e8 fc ff ff ff       	call   a72 <hmac_sha256_uf+0x274>
     a76:	83 c4 10             	add    esp,0x10
     a79:	8b 45 08             	mov    eax,DWORD PTR [ebp+0x8]
     a7c:	8b 40 10             	mov    eax,DWORD PTR [eax+0x10]
     a7f:	83 ec 0c             	sub    esp,0xc
     a82:	50                   	push   eax
     a83:	e8 fc ff ff ff       	call   a84 <hmac_sha256_uf+0x286>
     a88:	83 c4 10             	add    esp,0x10
     a8b:	83 ec 04             	sub    esp,0x4
     a8e:	ff 75 f0             	push   DWORD PTR [ebp-0x10]
     a91:	6a 00                	push   0x0
     a93:	ff 75 ec             	push   DWORD PTR [ebp-0x14]
     a96:	e8 fc ff ff ff       	call   a97 <hmac_sha256_uf+0x299>
     a9b:	83 c4 10             	add    esp,0x10
     a9e:	83 ec 0c             	sub    esp,0xc
     aa1:	ff 75 ec             	push   DWORD PTR [ebp-0x14]
     aa4:	e8 fc ff ff ff       	call   aa5 <hmac_sha256_uf+0x2a7>
     aa9:	83 c4 10             	add    esp,0x10
     aac:	90                   	nop
     aad:	8b 5d fc             	mov    ebx,DWORD PTR [ebp-0x4]
     ab0:	c9                   	leave  
     ab1:	c3                   	ret    

00000ab2 <control_sum_buffer>:
     ab2:	55                   	push   ebp
     ab3:	89 e5                	mov    ebp,esp
     ab5:	53                   	push   ebx
     ab6:	83 ec 14             	sub    esp,0x14
     ab9:	e8 fc ff ff ff       	call   aba <control_sum_buffer+0x8>
     abe:	81 c3 02 00 00 00    	add    ebx,0x2
     ac4:	c7 45 f4 00 00 00 00 	mov    DWORD PTR [ebp-0xc],0x0
     acb:	8b 45 0c             	mov    eax,DWORD PTR [ebp+0xc]
     ace:	89 45 f0             	mov    DWORD PTR [ebp-0x10],eax
     ad1:	e9 8b 00 00 00       	jmp    b61 <control_sum_buffer+0xaf>
     ad6:	81 7d f0 ff 03 00 00 	cmp    DWORD PTR [ebp-0x10],0x3ff
     add:	77 3a                	ja     b19 <control_sum_buffer+0x67>
     adf:	8b 45 08             	mov    eax,DWORD PTR [ebp+0x8]
     ae2:	8b 80 44 00 00 01    	mov    eax,DWORD PTR [eax+0x1000044]
     ae8:	85 c0                	test   eax,eax
     aea:	74 0a                	je     af6 <control_sum_buffer+0x44>
     aec:	8b 45 08             	mov    eax,DWORD PTR [ebp+0x8]
     aef:	05 28 00 80 00       	add    eax,0x800028
     af4:	eb 06                	jmp    afc <control_sum_buffer+0x4a>
     af6:	8b 45 08             	mov    eax,DWORD PTR [ebp+0x8]
     af9:	83 c0 28             	add    eax,0x28
     afc:	8b 55 f4             	mov    edx,DWORD PTR [ebp-0xc]
     aff:	01 c2                	add    edx,eax
     b01:	8b 45 08             	mov    eax,DWORD PTR [ebp+0x8]
     b04:	8b 40 10             	mov    eax,DWORD PTR [eax+0x10]
     b07:	83 ec 04             	sub    esp,0x4
     b0a:	ff 75 f0             	push   DWORD PTR [ebp-0x10]
     b0d:	52                   	push   edx
     b0e:	50                   	push   eax
     b0f:	e8 fc ff ff ff       	call   b10 <control_sum_buffer+0x5e>
     b14:	83 c4 10             	add    esp,0x10
     b17:	eb 3a                	jmp    b53 <control_sum_buffer+0xa1>
     b19:	8b 45 08             	mov    eax,DWORD PTR [ebp+0x8]
     b1c:	8b 80 44 00 00 01    	mov    eax,DWORD PTR [eax+0x1000044]
     b22:	85 c0                	test   eax,eax
     b24:	74 0a                	je     b30 <control_sum_buffer+0x7e>
     b26:	8b 45 08             	mov    eax,DWORD PTR [ebp+0x8]
     b29:	05 28 00 80 00       	add    eax,0x800028
     b2e:	eb 06                	jmp    b36 <control_sum_buffer+0x84>
     b30:	8b 45 08             	mov    eax,DWORD PTR [ebp+0x8]
     b33:	83 c0 28             	add    eax,0x28
     b36:	8b 55 f4             	mov    edx,DWORD PTR [ebp-0xc]
     b39:	01 c2                	add    edx,eax
     b3b:	8b 45 08             	mov    eax,DWORD PTR [ebp+0x8]
     b3e:	8b 40 10             	mov    eax,DWORD PTR [eax+0x10]
     b41:	83 ec 04             	sub    esp,0x4
     b44:	68 00 04 00 00       	push   0x400
     b49:	52                   	push   edx
     b4a:	50                   	push   eax
     b4b:	e8 fc ff ff ff       	call   b4c <control_sum_buffer+0x9a>
     b50:	83 c4 10             	add    esp,0x10
     b53:	81 45 f4 00 04 00 00 	add    DWORD PTR [ebp-0xc],0x400
     b5a:	81 6d f0 00 04 00 00 	sub    DWORD PTR [ebp-0x10],0x400
     b61:	8b 45 f4             	mov    eax,DWORD PTR [ebp-0xc]
     b64:	3b 45 0c             	cmp    eax,DWORD PTR [ebp+0xc]
     b67:	0f 82 69 ff ff ff    	jb     ad6 <control_sum_buffer+0x24>
     b6d:	90                   	nop
     b6e:	90                   	nop
     b6f:	8b 5d fc             	mov    ebx,DWORD PTR [ebp-0x4]
     b72:	c9                   	leave  
     b73:	c3                   	ret    

00000b74 <close_in_out_files>:
     b74:	55                   	push   ebp
     b75:	89 e5                	mov    ebp,esp
     b77:	53                   	push   ebx
     b78:	83 ec 04             	sub    esp,0x4
     b7b:	e8 fc ff ff ff       	call   b7c <close_in_out_files+0x8>
     b80:	81 c3 02 00 00 00    	add    ebx,0x2
     b86:	83 ec 0c             	sub    esp,0xc
     b89:	ff 75 08             	push   DWORD PTR [ebp+0x8]
     b8c:	e8 fc ff ff ff       	call   b8d <close_in_out_files+0x19>
     b91:	83 c4 10             	add    esp,0x10
     b94:	83 f8 ff             	cmp    eax,0xffffffff
     b97:	75 15                	jne    bae <close_in_out_files+0x3a>
     b99:	83 ec 0c             	sub    esp,0xc
     b9c:	ff 75 0c             	push   DWORD PTR [ebp+0xc]
     b9f:	e8 fc ff ff ff       	call   ba0 <close_in_out_files+0x2c>
     ba4:	83 c4 10             	add    esp,0x10
     ba7:	b8 06 00 00 00       	mov    eax,0x6
     bac:	eb 1d                	jmp    bcb <close_in_out_files+0x57>
     bae:	83 ec 0c             	sub    esp,0xc
     bb1:	ff 75 0c             	push   DWORD PTR [ebp+0xc]
     bb4:	e8 fc ff ff ff       	call   bb5 <close_in_out_files+0x41>
     bb9:	83 c4 10             	add    esp,0x10
     bbc:	83 f8 ff             	cmp    eax,0xffffffff
     bbf:	75 07                	jne    bc8 <close_in_out_files+0x54>
     bc1:	b8 07 00 00 00       	mov    eax,0x7
     bc6:	eb 03                	jmp    bcb <close_in_out_files+0x57>
     bc8:	8b 45 10             	mov    eax,DWORD PTR [ebp+0x10]
     bcb:	8b 5d fc             	mov    ebx,DWORD PTR [ebp-0x4]
     bce:	c9                   	leave  
     bcf:	c3                   	ret    

00000bd0 <size_correct>:
     bd0:	55                   	push   ebp
     bd1:	89 e5                	mov    ebp,esp
     bd3:	57                   	push   edi
     bd4:	56                   	push   esi
     bd5:	53                   	push   ebx
     bd6:	83 ec 0c             	sub    esp,0xc
     bd9:	e8 fc ff ff ff       	call   bda <size_correct+0xa>
     bde:	81 c6 02 00 00 00    	add    esi,0x2
     be4:	8b 75 0c             	mov    esi,DWORD PTR [ebp+0xc]
     be7:	89 75 e8             	mov    DWORD PTR [ebp-0x18],esi
     bea:	8b 75 10             	mov    esi,DWORD PTR [ebp+0x10]
     bed:	89 75 ec             	mov    DWORD PTR [ebp-0x14],esi
     bf0:	8b 75 e8             	mov    esi,DWORD PTR [ebp-0x18]
     bf3:	83 f6 00             	xor    esi,0x0
     bf6:	89 f0                	mov    eax,esi
     bf8:	8b 75 ec             	mov    esi,DWORD PTR [ebp-0x14]
     bfb:	83 f6 00             	xor    esi,0x0
     bfe:	89 f2                	mov    edx,esi
     c00:	09 d0                	or     eax,edx
     c02:	85 c0                	test   eax,eax
     c04:	75 07                	jne    c0d <size_correct+0x3d>
     c06:	b8 03 00 00 00       	mov    eax,0x3
     c0b:	eb 69                	jmp    c76 <size_correct+0xa6>
     c0d:	8b 45 08             	mov    eax,DWORD PTR [ebp+0x8]
     c10:	8b 80 44 00 00 01    	mov    eax,DWORD PTR [eax+0x1000044]
     c16:	85 c0                	test   eax,eax
     c18:	75 38                	jne    c52 <size_correct+0x82>
     c1a:	8b 45 e8             	mov    eax,DWORD PTR [ebp-0x18]
     c1d:	8b 55 ec             	mov    edx,DWORD PTR [ebp-0x14]
     c20:	83 c0 20             	add    eax,0x20
     c23:	83 d2 00             	adc    edx,0x0
     c26:	8b 75 08             	mov    esi,DWORD PTR [ebp+0x8]
     c29:	8b 76 1c             	mov    esi,DWORD PTR [esi+0x1c]
     c2c:	bf 00 00 00 00       	mov    edi,0x0
     c31:	01 f0                	add    eax,esi
     c33:	11 fa                	adc    edx,edi
     c35:	89 c7                	mov    edi,eax
     c37:	83 f7 00             	xor    edi,0x0
     c3a:	89 f9                	mov    ecx,edi
     c3c:	89 d0                	mov    eax,edx
     c3e:	80 f4 00             	xor    ah,0x0
     c41:	89 c3                	mov    ebx,eax
     c43:	89 d8                	mov    eax,ebx
     c45:	09 c8                	or     eax,ecx
     c47:	85 c0                	test   eax,eax
     c49:	75 26                	jne    c71 <size_correct+0xa1>
     c4b:	b8 03 00 00 00       	mov    eax,0x3
     c50:	eb 24                	jmp    c76 <size_correct+0xa6>
     c52:	8b 45 08             	mov    eax,DWORD PTR [ebp+0x8]
     c55:	8b 40 1c             	mov    eax,DWORD PTR [eax+0x1c]
     c58:	83 c0 21             	add    eax,0x21
     c5b:	ba 00 00 00 00       	mov    edx,0x0
     c60:	8b 4d ec             	mov    ecx,DWORD PTR [ebp-0x14]
     c63:	39 45 e8             	cmp    DWORD PTR [ebp-0x18],eax
     c66:	19 d1                	sbb    ecx,edx
     c68:	7d 07                	jge    c71 <size_correct+0xa1>
     c6a:	b8 08 00 00 00       	mov    eax,0x8
     c6f:	eb 05                	jmp    c76 <size_correct+0xa6>
     c71:	b8 00 00 00 00       	mov    eax,0x0
     c76:	83 c4 0c             	add    esp,0xc
     c79:	5b                   	pop    ebx
     c7a:	5e                   	pop    esi
     c7b:	5f                   	pop    edi
     c7c:	5d                   	pop    ebp
     c7d:	c3                   	ret    

00000c7e <filecrypt>:
     c7e:	55                   	push   ebp
     c7f:	89 e5                	mov    ebp,esp
     c81:	57                   	push   edi
     c82:	56                   	push   esi
     c83:	53                   	push   ebx
     c84:	83 ec 7c             	sub    esp,0x7c
     c87:	e8 fc ff ff ff       	call   c88 <filecrypt+0xa>
     c8c:	81 c3 02 00 00 00    	add    ebx,0x2
     c92:	c7 45 cc 00 00 00 00 	mov    DWORD PTR [ebp-0x34],0x0
     c99:	c7 45 c8 00 00 00 00 	mov    DWORD PTR [ebp-0x38],0x0
     ca0:	c7 45 c4 00 00 00 00 	mov    DWORD PTR [ebp-0x3c],0x0
     ca7:	c7 45 e0 00 00 00 00 	mov    DWORD PTR [ebp-0x20],0x0
     cae:	c7 45 d8 00 00 00 00 	mov    DWORD PTR [ebp-0x28],0x0
     cb5:	c7 45 d0 00 00 00 00 	mov    DWORD PTR [ebp-0x30],0x0
     cbc:	c7 45 d4 00 00 00 00 	mov    DWORD PTR [ebp-0x2c],0x0
     cc3:	8b 93 00 00 00 00    	mov    edx,DWORD PTR [ebx+0x0]
     cc9:	8b 45 08             	mov    eax,DWORD PTR [ebp+0x8]
     ccc:	8b 00                	mov    eax,DWORD PTR [eax]
     cce:	83 ec 08             	sub    esp,0x8
     cd1:	52                   	push   edx
     cd2:	50                   	push   eax
     cd3:	e8 fc ff ff ff       	call   cd4 <filecrypt+0x56>
     cd8:	83 c4 10             	add    esp,0x10
     cdb:	89 45 cc             	mov    DWORD PTR [ebp-0x34],eax
     cde:	83 7d cc 00          	cmp    DWORD PTR [ebp-0x34],0x0
     ce2:	75 0a                	jne    cee <filecrypt+0x70>
     ce4:	b8 01 00 00 00       	mov    eax,0x1
     ce9:	e9 ad 08 00 00       	jmp    159b <.L89+0x3c6>
     cee:	83 ec 0c             	sub    esp,0xc
     cf1:	ff 75 cc             	push   DWORD PTR [ebp-0x34]
     cf4:	e8 47 fa ff ff       	call   740 <size_of_file>
     cf9:	83 c4 10             	add    esp,0x10
     cfc:	89 45 b8             	mov    DWORD PTR [ebp-0x48],eax
     cff:	89 55 bc             	mov    DWORD PTR [ebp-0x44],edx
     d02:	83 ec 04             	sub    esp,0x4
     d05:	ff 75 bc             	push   DWORD PTR [ebp-0x44]
     d08:	ff 75 b8             	push   DWORD PTR [ebp-0x48]
     d0b:	ff 75 08             	push   DWORD PTR [ebp+0x8]
     d0e:	e8 bd fe ff ff       	call   bd0 <size_correct>
     d13:	83 c4 10             	add    esp,0x10
     d16:	89 45 b4             	mov    DWORD PTR [ebp-0x4c],eax
     d19:	83 7d b4 00          	cmp    DWORD PTR [ebp-0x4c],0x0
     d1d:	74 25                	je     d44 <filecrypt+0xc6>
     d1f:	83 ec 0c             	sub    esp,0xc
     d22:	ff 75 cc             	push   DWORD PTR [ebp-0x34]
     d25:	e8 fc ff ff ff       	call   d26 <filecrypt+0xa8>
     d2a:	83 c4 10             	add    esp,0x10
     d2d:	83 f8 ff             	cmp    eax,0xffffffff
     d30:	75 0a                	jne    d3c <filecrypt+0xbe>
     d32:	b8 06 00 00 00       	mov    eax,0x6
     d37:	e9 5f 08 00 00       	jmp    159b <.L89+0x3c6>
     d3c:	8b 45 b4             	mov    eax,DWORD PTR [ebp-0x4c]
     d3f:	e9 57 08 00 00       	jmp    159b <.L89+0x3c6>
     d44:	c7 45 b4 00 00 00 00 	mov    DWORD PTR [ebp-0x4c],0x0
     d4b:	8b 93 00 00 00 00    	mov    edx,DWORD PTR [ebx+0x0]
     d51:	8b 45 08             	mov    eax,DWORD PTR [ebp+0x8]
     d54:	8b 40 04             	mov    eax,DWORD PTR [eax+0x4]
     d57:	83 ec 08             	sub    esp,0x8
     d5a:	52                   	push   edx
     d5b:	50                   	push   eax
     d5c:	e8 fc ff ff ff       	call   d5d <filecrypt+0xdf>
     d61:	83 c4 10             	add    esp,0x10
     d64:	89 45 c8             	mov    DWORD PTR [ebp-0x38],eax
     d67:	83 7d c8 00          	cmp    DWORD PTR [ebp-0x38],0x0
     d6b:	75 27                	jne    d94 <filecrypt+0x116>
     d6d:	83 ec 0c             	sub    esp,0xc
     d70:	ff 75 cc             	push   DWORD PTR [ebp-0x34]
     d73:	e8 fc ff ff ff       	call   d74 <filecrypt+0xf6>
     d78:	83 c4 10             	add    esp,0x10
     d7b:	83 f8 ff             	cmp    eax,0xffffffff
     d7e:	75 0a                	jne    d8a <filecrypt+0x10c>
     d80:	b8 06 00 00 00       	mov    eax,0x6
     d85:	e9 11 08 00 00       	jmp    159b <.L89+0x3c6>
     d8a:	b8 02 00 00 00       	mov    eax,0x2
     d8f:	e9 07 08 00 00       	jmp    159b <.L89+0x3c6>
     d94:	df 6d b8             	fild   QWORD PTR [ebp-0x48]
     d97:	dd 83 48 0e 00 00    	fld    QWORD PTR [ebx+0xe48]
     d9d:	de f9                	fdivp  st(1),st
     d9f:	dd 5d a8             	fstp   QWORD PTR [ebp-0x58]
     da2:	83 ec 08             	sub    esp,0x8
     da5:	ff 75 bc             	push   DWORD PTR [ebp-0x44]
     da8:	ff 75 b8             	push   DWORD PTR [ebp-0x48]
     dab:	e8 8d f3 ff ff       	call   13d <size_check>
     db0:	83 c4 10             	add    esp,0x10
     db3:	89 45 b4             	mov    DWORD PTR [ebp-0x4c],eax
     db6:	df 6d b8             	fild   QWORD PTR [ebp-0x48]
     db9:	83 ec 04             	sub    esp,0x4
     dbc:	8d 64 24 f8          	lea    esp,[esp-0x8]
     dc0:	dd 1c 24             	fstp   QWORD PTR [esp]
     dc3:	ff 75 b4             	push   DWORD PTR [ebp-0x4c]
     dc6:	e8 48 f4 ff ff       	call   213 <sizetodoubleprint>
     dcb:	83 c4 10             	add    esp,0x10
     dce:	dd 5d a0             	fstp   QWORD PTR [ebp-0x60]
     dd1:	8b 45 b4             	mov    eax,DWORD PTR [ebp-0x4c]
     dd4:	8b 84 83 0c 00 00 00 	mov    eax,DWORD PTR [ebx+eax*4+0xc]
     ddb:	50                   	push   eax
     ddc:	ff 75 a4             	push   DWORD PTR [ebp-0x5c]
     ddf:	ff 75 a0             	push   DWORD PTR [ebp-0x60]
     de2:	8d 83 e8 01 00 00    	lea    eax,[ebx+0x1e8]
     de8:	50                   	push   eax
     de9:	e8 fc ff ff ff       	call   dea <filecrypt+0x16c>
     dee:	83 c4 10             	add    esp,0x10
     df1:	8b 45 08             	mov    eax,DWORD PTR [ebp+0x8]
     df4:	05 28 00 00 01       	add    eax,0x1000028
     df9:	83 ec 04             	sub    esp,0x4
     dfc:	6a 19                	push   0x19
     dfe:	6a 2e                	push   0x2e
     e00:	50                   	push   eax
     e01:	e8 fc ff ff ff       	call   e02 <filecrypt+0x184>
     e06:	83 c4 10             	add    esp,0x10
     e09:	8b 45 08             	mov    eax,DWORD PTR [ebp+0x8]
     e0c:	8b 40 10             	mov    eax,DWORD PTR [eax+0x10]
     e0f:	83 ec 0c             	sub    esp,0xc
     e12:	50                   	push   eax
     e13:	e8 fc ff ff ff       	call   e14 <filecrypt+0x196>
     e18:	83 c4 10             	add    esp,0x10
     e1b:	e9 10 06 00 00       	jmp    1430 <.L89+0x25b>
     e20:	8b 45 d0             	mov    eax,DWORD PTR [ebp-0x30]
     e23:	80 f4 00             	xor    ah,0x0
     e26:	89 45 88             	mov    DWORD PTR [ebp-0x78],eax
     e29:	8b 45 d4             	mov    eax,DWORD PTR [ebp-0x2c]
     e2c:	80 f4 00             	xor    ah,0x0
     e2f:	89 45 8c             	mov    DWORD PTR [ebp-0x74],eax
     e32:	8b 75 88             	mov    esi,DWORD PTR [ebp-0x78]
     e35:	8b 7d 8c             	mov    edi,DWORD PTR [ebp-0x74]
     e38:	89 f8                	mov    eax,edi
     e3a:	09 f0                	or     eax,esi
     e3c:	85 c0                	test   eax,eax
     e3e:	0f 85 75 02 00 00    	jne    10b9 <.L78+0x151>
     e44:	8b 45 08             	mov    eax,DWORD PTR [ebp+0x8]
     e47:	8b 40 1c             	mov    eax,DWORD PTR [eax+0x1c]
     e4a:	83 ec 08             	sub    esp,0x8
     e4d:	50                   	push   eax
     e4e:	8d 83 08 02 00 00    	lea    eax,[ebx+0x208]
     e54:	50                   	push   eax
     e55:	e8 fc ff ff ff       	call   e56 <filecrypt+0x1d8>
     e5a:	83 c4 10             	add    esp,0x10
     e5d:	8b 45 08             	mov    eax,DWORD PTR [ebp+0x8]
     e60:	8b 40 18             	mov    eax,DWORD PTR [eax+0x18]
     e63:	83 ec 08             	sub    esp,0x8
     e66:	50                   	push   eax
     e67:	8d 83 34 02 00 00    	lea    eax,[ebx+0x234]
     e6d:	50                   	push   eax
     e6e:	e8 fc ff ff ff       	call   e6f <filecrypt+0x1f1>
     e73:	83 c4 10             	add    esp,0x10
     e76:	8b 45 08             	mov    eax,DWORD PTR [ebp+0x8]
     e79:	8b 80 44 00 00 01    	mov    eax,DWORD PTR [eax+0x1000044]
     e7f:	85 c0                	test   eax,eax
     e81:	0f 85 90 01 00 00    	jne    1017 <.L78+0xaf>
     e87:	8b 45 08             	mov    eax,DWORD PTR [ebp+0x8]
     e8a:	8b 80 48 00 00 01    	mov    eax,DWORD PTR [eax+0x1000048]
     e90:	83 f8 04             	cmp    eax,0x4
     e93:	0f 87 f3 00 00 00    	ja     f8c <.L78+0x24>
     e99:	c1 e0 02             	shl    eax,0x2
     e9c:	8b 84 18 b8 03 00 00 	mov    eax,DWORD PTR [eax+ebx*1+0x3b8]
     ea3:	01 d8                	add    eax,ebx
     ea5:	ff e0                	jmp    eax

00000ea7 <.L83>:
     ea7:	8b 45 08             	mov    eax,DWORD PTR [ebp+0x8]
     eaa:	8d 88 28 00 80 00    	lea    ecx,[eax+0x800028]
     eb0:	8b 45 08             	mov    eax,DWORD PTR [ebp+0x8]
     eb3:	8b 50 18             	mov    edx,DWORD PTR [eax+0x18]
     eb6:	8b 83 00 00 00 00    	mov    eax,DWORD PTR [ebx+0x0]
     ebc:	83 ec 04             	sub    esp,0x4
     ebf:	51                   	push   ecx
     ec0:	52                   	push   edx
     ec1:	50                   	push   eax
     ec2:	e8 fc ff ff ff       	call   ec3 <.L83+0x1c>
     ec7:	83 c4 10             	add    esp,0x10
     eca:	e9 bd 00 00 00       	jmp    f8c <.L78+0x24>

00000ecf <.L82>:
     ecf:	8b 45 08             	mov    eax,DWORD PTR [ebp+0x8]
     ed2:	8d 88 28 00 80 00    	lea    ecx,[eax+0x800028]
     ed8:	8b 45 08             	mov    eax,DWORD PTR [ebp+0x8]
     edb:	8b 50 18             	mov    edx,DWORD PTR [eax+0x18]
     ede:	8b 83 04 00 00 00    	mov    eax,DWORD PTR [ebx+0x4]
     ee4:	83 ec 04             	sub    esp,0x4
     ee7:	51                   	push   ecx
     ee8:	52                   	push   edx
     ee9:	50                   	push   eax
     eea:	e8 fc ff ff ff       	call   eeb <.L82+0x1c>
     eef:	83 c4 10             	add    esp,0x10
     ef2:	e9 95 00 00 00       	jmp    f8c <.L78+0x24>

00000ef7 <.L81>:
     ef7:	8b 45 08             	mov    eax,DWORD PTR [ebp+0x8]
     efa:	8d 88 28 00 80 00    	lea    ecx,[eax+0x800028]
     f00:	8b 45 08             	mov    eax,DWORD PTR [ebp+0x8]
     f03:	8b 50 18             	mov    edx,DWORD PTR [eax+0x18]
     f06:	8b 83 08 00 00 00    	mov    eax,DWORD PTR [ebx+0x8]
     f0c:	83 ec 04             	sub    esp,0x4
     f0f:	51                   	push   ecx
     f10:	52                   	push   edx
     f11:	50                   	push   eax
     f12:	e8 fc ff ff ff       	call   f13 <.L81+0x1c>
     f17:	83 c4 10             	add    esp,0x10
     f1a:	eb 70                	jmp    f8c <.L78+0x24>

00000f1c <.L80>:
     f1c:	8b 45 08             	mov    eax,DWORD PTR [ebp+0x8]
     f1f:	8b 48 1c             	mov    ecx,DWORD PTR [eax+0x1c]
     f22:	8b 45 08             	mov    eax,DWORD PTR [ebp+0x8]
     f25:	8b 50 18             	mov    edx,DWORD PTR [eax+0x18]
     f28:	8b 45 08             	mov    eax,DWORD PTR [ebp+0x8]
     f2b:	05 28 00 80 00       	add    eax,0x800028
     f30:	83 ec 04             	sub    esp,0x4
     f33:	51                   	push   ecx
     f34:	52                   	push   edx
     f35:	50                   	push   eax
     f36:	e8 fc ff ff ff       	call   f37 <.L80+0x1b>
     f3b:	83 c4 10             	add    esp,0x10
     f3e:	8b 45 08             	mov    eax,DWORD PTR [ebp+0x8]
     f41:	05 28 00 80 00       	add    eax,0x800028
     f46:	8d 48 04             	lea    ecx,[eax+0x4]
     f49:	8b 45 08             	mov    eax,DWORD PTR [ebp+0x8]
     f4c:	8d 90 28 00 80 00    	lea    edx,[eax+0x800028]
     f52:	8b 83 0c 00 00 00    	mov    eax,DWORD PTR [ebx+0xc]
     f58:	83 ec 04             	sub    esp,0x4
     f5b:	51                   	push   ecx
     f5c:	52                   	push   edx
     f5d:	50                   	push   eax
     f5e:	e8 fc ff ff ff       	call   f5f <.L80+0x43>
     f63:	83 c4 10             	add    esp,0x10
     f66:	eb 24                	jmp    f8c <.L78+0x24>

00000f68 <.L78>:
     f68:	8b 45 08             	mov    eax,DWORD PTR [ebp+0x8]
     f6b:	8d 88 28 00 80 00    	lea    ecx,[eax+0x800028]
     f71:	8b 45 08             	mov    eax,DWORD PTR [ebp+0x8]
     f74:	8b 50 18             	mov    edx,DWORD PTR [eax+0x18]
     f77:	8b 83 10 00 00 00    	mov    eax,DWORD PTR [ebx+0x10]
     f7d:	83 ec 04             	sub    esp,0x4
     f80:	51                   	push   ecx
     f81:	52                   	push   edx
     f82:	50                   	push   eax
     f83:	e8 fc ff ff ff       	call   f84 <.L78+0x1c>
     f88:	83 c4 10             	add    esp,0x10
     f8b:	90                   	nop
     f8c:	8b 45 08             	mov    eax,DWORD PTR [ebp+0x8]
     f8f:	8b 50 1c             	mov    edx,DWORD PTR [eax+0x1c]
     f92:	8b 45 08             	mov    eax,DWORD PTR [ebp+0x8]
     f95:	8d 88 28 00 80 00    	lea    ecx,[eax+0x800028]
     f9b:	8b 45 08             	mov    eax,DWORD PTR [ebp+0x8]
     f9e:	8b 40 18             	mov    eax,DWORD PTR [eax+0x18]
     fa1:	83 ec 04             	sub    esp,0x4
     fa4:	52                   	push   edx
     fa5:	51                   	push   ecx
     fa6:	50                   	push   eax
     fa7:	e8 fc ff ff ff       	call   fa8 <.L78+0x40>
     fac:	83 c4 10             	add    esp,0x10
     faf:	8b 45 08             	mov    eax,DWORD PTR [ebp+0x8]
     fb2:	8b 40 18             	mov    eax,DWORD PTR [eax+0x18]
     fb5:	83 ec 08             	sub    esp,0x8
     fb8:	50                   	push   eax
     fb9:	8d 83 58 02 00 00    	lea    eax,[ebx+0x258]
     fbf:	50                   	push   eax
     fc0:	e8 fc ff ff ff       	call   fc1 <.L78+0x59>
     fc5:	83 c4 10             	add    esp,0x10
     fc8:	8b 45 08             	mov    eax,DWORD PTR [ebp+0x8]
     fcb:	8b 50 1c             	mov    edx,DWORD PTR [eax+0x1c]
     fce:	8b 45 08             	mov    eax,DWORD PTR [ebp+0x8]
     fd1:	8b 40 18             	mov    eax,DWORD PTR [eax+0x18]
     fd4:	ff 75 c8             	push   DWORD PTR [ebp-0x38]
     fd7:	52                   	push   edx
     fd8:	6a 01                	push   0x1
     fda:	50                   	push   eax
     fdb:	e8 fc ff ff ff       	call   fdc <.L78+0x74>
     fe0:	83 c4 10             	add    esp,0x10
     fe3:	89 c2                	mov    edx,eax
     fe5:	8b 45 08             	mov    eax,DWORD PTR [ebp+0x8]
     fe8:	8b 40 1c             	mov    eax,DWORD PTR [eax+0x1c]
     feb:	39 c2                	cmp    edx,eax
     fed:	74 18                	je     1007 <.L78+0x9f>
     fef:	83 ec 04             	sub    esp,0x4
     ff2:	6a 04                	push   0x4
     ff4:	ff 75 c8             	push   DWORD PTR [ebp-0x38]
     ff7:	ff 75 cc             	push   DWORD PTR [ebp-0x34]
     ffa:	e8 75 fb ff ff       	call   b74 <close_in_out_files>
     fff:	83 c4 10             	add    esp,0x10
    1002:	e9 94 05 00 00       	jmp    159b <.L89+0x3c6>
    1007:	83 ec 0c             	sub    esp,0xc
    100a:	ff 75 c8             	push   DWORD PTR [ebp-0x38]
    100d:	e8 fc ff ff ff       	call   100e <.L78+0xa6>
    1012:	83 c4 10             	add    esp,0x10
    1015:	eb 75                	jmp    108c <.L78+0x124>
    1017:	8b 45 08             	mov    eax,DWORD PTR [ebp+0x8]
    101a:	8b 80 44 00 00 01    	mov    eax,DWORD PTR [eax+0x1000044]
    1020:	3d de 00 00 00       	cmp    eax,0xde
    1025:	75 65                	jne    108c <.L78+0x124>
    1027:	8b 45 08             	mov    eax,DWORD PTR [ebp+0x8]
    102a:	8b 50 1c             	mov    edx,DWORD PTR [eax+0x1c]
    102d:	8b 45 08             	mov    eax,DWORD PTR [ebp+0x8]
    1030:	8b 40 18             	mov    eax,DWORD PTR [eax+0x18]
    1033:	ff 75 cc             	push   DWORD PTR [ebp-0x34]
    1036:	52                   	push   edx
    1037:	6a 01                	push   0x1
    1039:	50                   	push   eax
    103a:	e8 fc ff ff ff       	call   103b <.L78+0xd3>
    103f:	83 c4 10             	add    esp,0x10
    1042:	89 c2                	mov    edx,eax
    1044:	8b 45 08             	mov    eax,DWORD PTR [ebp+0x8]
    1047:	8b 40 1c             	mov    eax,DWORD PTR [eax+0x1c]
    104a:	39 c2                	cmp    edx,eax
    104c:	74 18                	je     1066 <.L78+0xfe>
    104e:	83 ec 04             	sub    esp,0x4
    1051:	6a 05                	push   0x5
    1053:	ff 75 c8             	push   DWORD PTR [ebp-0x38]
    1056:	ff 75 cc             	push   DWORD PTR [ebp-0x34]
    1059:	e8 16 fb ff ff       	call   b74 <close_in_out_files>
    105e:	83 c4 10             	add    esp,0x10
    1061:	e9 35 05 00 00       	jmp    159b <.L89+0x3c6>
    1066:	8b 45 08             	mov    eax,DWORD PTR [ebp+0x8]
    1069:	8b 40 1c             	mov    eax,DWORD PTR [eax+0x1c]
    106c:	99                   	cdq    
    106d:	01 45 d0             	add    DWORD PTR [ebp-0x30],eax
    1070:	11 55 d4             	adc    DWORD PTR [ebp-0x2c],edx
    1073:	8b 45 08             	mov    eax,DWORD PTR [ebp+0x8]
    1076:	8b 40 18             	mov    eax,DWORD PTR [eax+0x18]
    1079:	83 ec 08             	sub    esp,0x8
    107c:	50                   	push   eax
    107d:	8d 83 8c 02 00 00    	lea    eax,[ebx+0x28c]
    1083:	50                   	push   eax
    1084:	e8 fc ff ff ff       	call   1085 <.L78+0x11d>
    1089:	83 c4 10             	add    esp,0x10
    108c:	83 ec 0c             	sub    esp,0xc
    108f:	8d 83 bf 02 00 00    	lea    eax,[ebx+0x2bf]
    1095:	50                   	push   eax
    1096:	e8 fc ff ff ff       	call   1097 <.L78+0x12f>
    109b:	83 c4 10             	add    esp,0x10
    109e:	8b 45 08             	mov    eax,DWORD PTR [ebp+0x8]
    10a1:	8b 50 1c             	mov    edx,DWORD PTR [eax+0x1c]
    10a4:	8b 45 08             	mov    eax,DWORD PTR [ebp+0x8]
    10a7:	8b 40 18             	mov    eax,DWORD PTR [eax+0x18]
    10aa:	83 ec 04             	sub    esp,0x4
    10ad:	52                   	push   edx
    10ae:	50                   	push   eax
    10af:	6a 01                	push   0x1
    10b1:	e8 fc ff ff ff       	call   10b2 <.L78+0x14a>
    10b6:	83 c4 10             	add    esp,0x10
    10b9:	8b 45 08             	mov    eax,DWORD PTR [ebp+0x8]
    10bc:	83 c0 28             	add    eax,0x28
    10bf:	ff 75 cc             	push   DWORD PTR [ebp-0x34]
    10c2:	68 00 00 80 00       	push   0x800000
    10c7:	6a 01                	push   0x1
    10c9:	50                   	push   eax
    10ca:	e8 fc ff ff ff       	call   10cb <.L78+0x163>
    10cf:	83 c4 10             	add    esp,0x10
    10d2:	89 45 d8             	mov    DWORD PTR [ebp-0x28],eax
    10d5:	c7 45 dc 00 00 00 00 	mov    DWORD PTR [ebp-0x24],0x0
    10dc:	e9 92 01 00 00       	jmp    1273 <.L89+0x9e>
    10e1:	8b 45 08             	mov    eax,DWORD PTR [ebp+0x8]
    10e4:	8b 80 48 00 00 01    	mov    eax,DWORD PTR [eax+0x1000048]
    10ea:	83 f8 04             	cmp    eax,0x4
    10ed:	0f 87 0c 01 00 00    	ja     11ff <.L89+0x2a>
    10f3:	c1 e0 02             	shl    eax,0x2
    10f6:	8b 84 18 cc 03 00 00 	mov    eax,DWORD PTR [eax+ebx*1+0x3cc]
    10fd:	01 d8                	add    eax,ebx
    10ff:	ff e0                	jmp    eax

00001101 <.L94>:
    1101:	8b 45 08             	mov    eax,DWORD PTR [ebp+0x8]
    1104:	8d 90 28 00 80 00    	lea    edx,[eax+0x800028]
    110a:	8b 45 dc             	mov    eax,DWORD PTR [ebp-0x24]
    110d:	8d 0c 02             	lea    ecx,[edx+eax*1]
    1110:	8b 45 08             	mov    eax,DWORD PTR [ebp+0x8]
    1113:	8b 50 18             	mov    edx,DWORD PTR [eax+0x18]
    1116:	8b 83 00 00 00 00    	mov    eax,DWORD PTR [ebx+0x0]
    111c:	83 ec 04             	sub    esp,0x4
    111f:	51                   	push   ecx
    1120:	52                   	push   edx
    1121:	50                   	push   eax
    1122:	e8 fc ff ff ff       	call   1123 <.L94+0x22>
    1127:	83 c4 10             	add    esp,0x10
    112a:	e9 d0 00 00 00       	jmp    11ff <.L89+0x2a>

0000112f <.L93>:
    112f:	8b 45 08             	mov    eax,DWORD PTR [ebp+0x8]
    1132:	8d 90 28 00 80 00    	lea    edx,[eax+0x800028]
    1138:	8b 45 dc             	mov    eax,DWORD PTR [ebp-0x24]
    113b:	8d 0c 02             	lea    ecx,[edx+eax*1]
    113e:	8b 45 08             	mov    eax,DWORD PTR [ebp+0x8]
    1141:	8b 50 18             	mov    edx,DWORD PTR [eax+0x18]
    1144:	8b 83 04 00 00 00    	mov    eax,DWORD PTR [ebx+0x4]
    114a:	83 ec 04             	sub    esp,0x4
    114d:	51                   	push   ecx
    114e:	52                   	push   edx
    114f:	50                   	push   eax
    1150:	e8 fc ff ff ff       	call   1151 <.L93+0x22>
    1155:	83 c4 10             	add    esp,0x10
    1158:	e9 a2 00 00 00       	jmp    11ff <.L89+0x2a>

0000115d <.L92>:
    115d:	8b 45 08             	mov    eax,DWORD PTR [ebp+0x8]
    1160:	8d 90 28 00 80 00    	lea    edx,[eax+0x800028]
    1166:	8b 45 dc             	mov    eax,DWORD PTR [ebp-0x24]
    1169:	8d 0c 02             	lea    ecx,[edx+eax*1]
    116c:	8b 45 08             	mov    eax,DWORD PTR [ebp+0x8]
    116f:	8b 50 18             	mov    edx,DWORD PTR [eax+0x18]
    1172:	8b 83 08 00 00 00    	mov    eax,DWORD PTR [ebx+0x8]
    1178:	83 ec 04             	sub    esp,0x4
    117b:	51                   	push   ecx
    117c:	52                   	push   edx
    117d:	50                   	push   eax
    117e:	e8 fc ff ff ff       	call   117f <.L92+0x22>
    1183:	83 c4 10             	add    esp,0x10
    1186:	eb 77                	jmp    11ff <.L89+0x2a>

00001188 <.L91>:
    1188:	8b 45 08             	mov    eax,DWORD PTR [ebp+0x8]
    118b:	8b 40 18             	mov    eax,DWORD PTR [eax+0x18]
    118e:	8d 48 04             	lea    ecx,[eax+0x4]
    1191:	8b 45 08             	mov    eax,DWORD PTR [ebp+0x8]
    1194:	8b 50 18             	mov    edx,DWORD PTR [eax+0x18]
    1197:	8b 83 0c 00 00 00    	mov    eax,DWORD PTR [ebx+0xc]
    119d:	83 ec 04             	sub    esp,0x4
    11a0:	51                   	push   ecx
    11a1:	52                   	push   edx
    11a2:	50                   	push   eax
    11a3:	e8 fc ff ff ff       	call   11a4 <.L91+0x1c>
    11a8:	83 c4 10             	add    esp,0x10
    11ab:	8b 45 08             	mov    eax,DWORD PTR [ebp+0x8]
    11ae:	8b 70 1c             	mov    esi,DWORD PTR [eax+0x1c]
    11b1:	8b 45 08             	mov    eax,DWORD PTR [ebp+0x8]
    11b4:	8b 48 18             	mov    ecx,DWORD PTR [eax+0x18]
    11b7:	8b 45 08             	mov    eax,DWORD PTR [ebp+0x8]
    11ba:	8d 90 28 00 80 00    	lea    edx,[eax+0x800028]
    11c0:	8b 45 dc             	mov    eax,DWORD PTR [ebp-0x24]
    11c3:	01 d0                	add    eax,edx
    11c5:	83 ec 04             	sub    esp,0x4
    11c8:	56                   	push   esi
    11c9:	51                   	push   ecx
    11ca:	50                   	push   eax
    11cb:	e8 fc ff ff ff       	call   11cc <.L91+0x44>
    11d0:	83 c4 10             	add    esp,0x10
    11d3:	eb 2a                	jmp    11ff <.L89+0x2a>

000011d5 <.L89>:
    11d5:	8b 45 08             	mov    eax,DWORD PTR [ebp+0x8]
    11d8:	8d 90 28 00 80 00    	lea    edx,[eax+0x800028]
    11de:	8b 45 dc             	mov    eax,DWORD PTR [ebp-0x24]
    11e1:	8d 0c 02             	lea    ecx,[edx+eax*1]
    11e4:	8b 45 08             	mov    eax,DWORD PTR [ebp+0x8]
    11e7:	8b 50 18             	mov    edx,DWORD PTR [eax+0x18]
    11ea:	8b 83 10 00 00 00    	mov    eax,DWORD PTR [ebx+0x10]
    11f0:	83 ec 04             	sub    esp,0x4
    11f3:	51                   	push   ecx
    11f4:	52                   	push   edx
    11f5:	50                   	push   eax
    11f6:	e8 fc ff ff ff       	call   11f7 <.L89+0x22>
    11fb:	83 c4 10             	add    esp,0x10
    11fe:	90                   	nop
    11ff:	8b 45 08             	mov    eax,DWORD PTR [ebp+0x8]
    1202:	8b 70 1c             	mov    esi,DWORD PTR [eax+0x1c]
    1205:	8b 45 08             	mov    eax,DWORD PTR [ebp+0x8]
    1208:	8d 50 28             	lea    edx,[eax+0x28]
    120b:	8b 45 dc             	mov    eax,DWORD PTR [ebp-0x24]
    120e:	8d 0c 02             	lea    ecx,[edx+eax*1]
    1211:	8b 45 08             	mov    eax,DWORD PTR [ebp+0x8]
    1214:	8d 90 28 00 80 00    	lea    edx,[eax+0x800028]
    121a:	8b 45 dc             	mov    eax,DWORD PTR [ebp-0x24]
    121d:	01 d0                	add    eax,edx
    121f:	83 ec 04             	sub    esp,0x4
    1222:	56                   	push   esi
    1223:	51                   	push   ecx
    1224:	50                   	push   eax
    1225:	e8 fc ff ff ff       	call   1226 <.L89+0x51>
    122a:	83 c4 10             	add    esp,0x10
    122d:	8b 45 08             	mov    eax,DWORD PTR [ebp+0x8]
    1230:	8b 48 1c             	mov    ecx,DWORD PTR [eax+0x1c]
    1233:	8b 45 08             	mov    eax,DWORD PTR [ebp+0x8]
    1236:	8b 80 44 00 00 01    	mov    eax,DWORD PTR [eax+0x1000044]
    123c:	85 c0                	test   eax,eax
    123e:	74 08                	je     1248 <.L89+0x73>
    1240:	8b 45 08             	mov    eax,DWORD PTR [ebp+0x8]
    1243:	8d 50 28             	lea    edx,[eax+0x28]
    1246:	eb 09                	jmp    1251 <.L89+0x7c>
    1248:	8b 45 08             	mov    eax,DWORD PTR [ebp+0x8]
    124b:	8d 90 28 00 80 00    	lea    edx,[eax+0x800028]
    1251:	8b 45 dc             	mov    eax,DWORD PTR [ebp-0x24]
    1254:	01 c2                	add    edx,eax
    1256:	8b 45 08             	mov    eax,DWORD PTR [ebp+0x8]
    1259:	8b 40 18             	mov    eax,DWORD PTR [eax+0x18]
    125c:	83 ec 04             	sub    esp,0x4
    125f:	51                   	push   ecx
    1260:	52                   	push   edx
    1261:	50                   	push   eax
    1262:	e8 fc ff ff ff       	call   1263 <.L89+0x8e>
    1267:	83 c4 10             	add    esp,0x10
    126a:	8b 45 08             	mov    eax,DWORD PTR [ebp+0x8]
    126d:	8b 40 1c             	mov    eax,DWORD PTR [eax+0x1c]
    1270:	01 45 dc             	add    DWORD PTR [ebp-0x24],eax
    1273:	8b 45 dc             	mov    eax,DWORD PTR [ebp-0x24]
    1276:	3b 45 d8             	cmp    eax,DWORD PTR [ebp-0x28]
    1279:	0f 82 62 fe ff ff    	jb     10e1 <.L78+0x179>
    127f:	8b 45 d8             	mov    eax,DWORD PTR [ebp-0x28]
    1282:	99                   	cdq    
    1283:	01 45 d0             	add    DWORD PTR [ebp-0x30],eax
    1286:	11 55 d4             	adc    DWORD PTR [ebp-0x2c],edx
    1289:	df 6d d0             	fild   QWORD PTR [ebp-0x30]
    128c:	dc 75 a8             	fdiv   QWORD PTR [ebp-0x58]
    128f:	dd 83 50 0e 00 00    	fld    QWORD PTR [ebx+0xe50]
    1295:	de c1                	faddp  st(1),st
    1297:	d9 7d 96             	fnstcw WORD PTR [ebp-0x6a]
    129a:	0f b7 45 96          	movzx  eax,WORD PTR [ebp-0x6a]
    129e:	80 cc 0c             	or     ah,0xc
    12a1:	66 89 45 94          	mov    WORD PTR [ebp-0x6c],ax
    12a5:	d9 6d 94             	fldcw  WORD PTR [ebp-0x6c]
    12a8:	db 5d e4             	fistp  DWORD PTR [ebp-0x1c]
    12ab:	d9 6d 96             	fldcw  WORD PTR [ebp-0x6a]
    12ae:	83 7d e4 64          	cmp    DWORD PTR [ebp-0x1c],0x64
    12b2:	7e 07                	jle    12bb <.L89+0xe6>
    12b4:	c7 45 e4 64 00 00 00 	mov    DWORD PTR [ebp-0x1c],0x64
    12bb:	8b 45 d0             	mov    eax,DWORD PTR [ebp-0x30]
    12be:	8b 55 d4             	mov    edx,DWORD PTR [ebp-0x2c]
    12c1:	89 c7                	mov    edi,eax
    12c3:	33 7d b8             	xor    edi,DWORD PTR [ebp-0x48]
    12c6:	89 7d 80             	mov    DWORD PTR [ebp-0x80],edi
    12c9:	89 d0                	mov    eax,edx
    12cb:	33 45 bc             	xor    eax,DWORD PTR [ebp-0x44]
    12ce:	89 45 84             	mov    DWORD PTR [ebp-0x7c],eax
    12d1:	8b 75 80             	mov    esi,DWORD PTR [ebp-0x80]
    12d4:	8b 7d 84             	mov    edi,DWORD PTR [ebp-0x7c]
    12d7:	89 f8                	mov    eax,edi
    12d9:	09 f0                	or     eax,esi
    12db:	85 c0                	test   eax,eax
    12dd:	75 14                	jne    12f3 <.L89+0x11e>
    12df:	8b 45 08             	mov    eax,DWORD PTR [ebp+0x8]
    12e2:	8b 80 44 00 00 01    	mov    eax,DWORD PTR [eax+0x1000044]
    12e8:	3d de 00 00 00       	cmp    eax,0xde
    12ed:	75 04                	jne    12f3 <.L89+0x11e>
    12ef:	83 6d d8 20          	sub    DWORD PTR [ebp-0x28],0x20
    12f3:	83 ec 08             	sub    esp,0x8
    12f6:	ff 75 d8             	push   DWORD PTR [ebp-0x28]
    12f9:	ff 75 08             	push   DWORD PTR [ebp+0x8]
    12fc:	e8 b1 f7 ff ff       	call   ab2 <control_sum_buffer>
    1301:	83 c4 10             	add    esp,0x10
    1304:	8b 45 08             	mov    eax,DWORD PTR [ebp+0x8]
    1307:	05 28 00 80 00       	add    eax,0x800028
    130c:	ff 75 c8             	push   DWORD PTR [ebp-0x38]
    130f:	ff 75 d8             	push   DWORD PTR [ebp-0x28]
    1312:	6a 01                	push   0x1
    1314:	50                   	push   eax
    1315:	e8 fc ff ff ff       	call   1316 <.L89+0x141>
    131a:	83 c4 10             	add    esp,0x10
    131d:	39 45 d8             	cmp    DWORD PTR [ebp-0x28],eax
    1320:	74 18                	je     133a <.L89+0x165>
    1322:	83 ec 04             	sub    esp,0x4
    1325:	6a 04                	push   0x4
    1327:	ff 75 c8             	push   DWORD PTR [ebp-0x38]
    132a:	ff 75 cc             	push   DWORD PTR [ebp-0x34]
    132d:	e8 42 f8 ff ff       	call   b74 <close_in_out_files>
    1332:	83 c4 10             	add    esp,0x10
    1335:	e9 61 02 00 00       	jmp    159b <.L89+0x3c6>
    133a:	83 ec 0c             	sub    esp,0xc
    133d:	ff 75 c8             	push   DWORD PTR [ebp-0x38]
    1340:	e8 fc ff ff ff       	call   1341 <.L89+0x16c>
    1345:	83 c4 10             	add    esp,0x10
    1348:	8b 45 e4             	mov    eax,DWORD PTR [ebp-0x1c]
    134b:	3b 45 e0             	cmp    eax,DWORD PTR [ebp-0x20]
    134e:	0f 8e dc 00 00 00    	jle    1430 <.L89+0x25b>
    1354:	8b 45 e4             	mov    eax,DWORD PTR [ebp-0x1c]
    1357:	8d 50 03             	lea    edx,[eax+0x3]
    135a:	85 c0                	test   eax,eax
    135c:	0f 48 c2             	cmovs  eax,edx
    135f:	c1 f8 02             	sar    eax,0x2
    1362:	89 c2                	mov    edx,eax
    1364:	8b 45 08             	mov    eax,DWORD PTR [ebp+0x8]
    1367:	05 28 00 00 01       	add    eax,0x1000028
    136c:	83 ec 04             	sub    esp,0x4
    136f:	52                   	push   edx
    1370:	6a 23                	push   0x23
    1372:	50                   	push   eax
    1373:	e8 fc ff ff ff       	call   1374 <.L89+0x19f>
    1378:	83 c4 10             	add    esp,0x10
    137b:	83 ec 08             	sub    esp,0x8
    137e:	ff 75 d4             	push   DWORD PTR [ebp-0x2c]
    1381:	ff 75 d0             	push   DWORD PTR [ebp-0x30]
    1384:	e8 b4 ed ff ff       	call   13d <size_check>
    1389:	83 c4 10             	add    esp,0x10
    138c:	89 45 c4             	mov    DWORD PTR [ebp-0x3c],eax
    138f:	8b 45 b4             	mov    eax,DWORD PTR [ebp-0x4c]
    1392:	8b bc 83 0c 00 00 00 	mov    edi,DWORD PTR [ebx+eax*4+0xc]
    1399:	8b 45 c4             	mov    eax,DWORD PTR [ebp-0x3c]
    139c:	8b 84 83 0c 00 00 00 	mov    eax,DWORD PTR [ebx+eax*4+0xc]
    13a3:	89 45 90             	mov    DWORD PTR [ebp-0x70],eax
    13a6:	df 6d d0             	fild   QWORD PTR [ebp-0x30]
    13a9:	83 ec 04             	sub    esp,0x4
    13ac:	8d 64 24 f8          	lea    esp,[esp-0x8]
    13b0:	dd 1c 24             	fstp   QWORD PTR [esp]
    13b3:	ff 75 c4             	push   DWORD PTR [ebp-0x3c]
    13b6:	e8 58 ee ff ff       	call   213 <sizetodoubleprint>
    13bb:	83 c4 10             	add    esp,0x10
    13be:	dd 9d 78 ff ff ff    	fstp   QWORD PTR [ebp-0x88]
    13c4:	8b 45 08             	mov    eax,DWORD PTR [ebp+0x8]
    13c7:	8d b0 28 00 00 01    	lea    esi,[eax+0x1000028]
    13cd:	8b 45 08             	mov    eax,DWORD PTR [ebp+0x8]
    13d0:	8b 80 44 00 00 01    	mov    eax,DWORD PTR [eax+0x1000044]
    13d6:	83 ec 0c             	sub    esp,0xc
    13d9:	50                   	push   eax
    13da:	e8 48 f3 ff ff       	call   727 <operation_variant>
    13df:	83 c4 10             	add    esp,0x10
    13e2:	8b 84 83 20 00 00 00 	mov    eax,DWORD PTR [ebx+eax*4+0x20]
    13e9:	83 ec 08             	sub    esp,0x8
    13ec:	ff 75 e4             	push   DWORD PTR [ebp-0x1c]
    13ef:	57                   	push   edi
    13f0:	ff 75 a4             	push   DWORD PTR [ebp-0x5c]
    13f3:	ff 75 a0             	push   DWORD PTR [ebp-0x60]
    13f6:	ff 75 90             	push   DWORD PTR [ebp-0x70]
    13f9:	ff b5 7c ff ff ff    	push   DWORD PTR [ebp-0x84]
    13ff:	ff b5 78 ff ff ff    	push   DWORD PTR [ebp-0x88]
    1405:	56                   	push   esi
    1406:	50                   	push   eax
    1407:	8d 83 dc 02 00 00    	lea    eax,[ebx+0x2dc]
    140d:	50                   	push   eax
    140e:	e8 fc ff ff ff       	call   140f <.L89+0x23a>
    1413:	83 c4 30             	add    esp,0x30
    1416:	8b 83 00 00 00 00    	mov    eax,DWORD PTR [ebx+0x0]
    141c:	8b 00                	mov    eax,DWORD PTR [eax]
    141e:	83 ec 0c             	sub    esp,0xc
    1421:	50                   	push   eax
    1422:	e8 fc ff ff ff       	call   1423 <.L89+0x24e>
    1427:	83 c4 10             	add    esp,0x10
    142a:	8b 45 e4             	mov    eax,DWORD PTR [ebp-0x1c]
    142d:	89 45 e0             	mov    DWORD PTR [ebp-0x20],eax
    1430:	8b 45 d0             	mov    eax,DWORD PTR [ebp-0x30]
    1433:	8b 55 d4             	mov    edx,DWORD PTR [ebp-0x2c]
    1436:	3b 45 b8             	cmp    eax,DWORD PTR [ebp-0x48]
    1439:	89 d0                	mov    eax,edx
    143b:	1b 45 bc             	sbb    eax,DWORD PTR [ebp-0x44]
    143e:	0f 8c dc f9 ff ff    	jl     e20 <filecrypt+0x1a2>
    1444:	8b 83 00 00 00 00    	mov    eax,DWORD PTR [ebx+0x0]
    144a:	8b 00                	mov    eax,DWORD PTR [eax]
    144c:	83 ec 08             	sub    esp,0x8
    144f:	50                   	push   eax
    1450:	6a 0a                	push   0xa
    1452:	e8 fc ff ff ff       	call   1453 <.L89+0x27e>
    1457:	83 c4 10             	add    esp,0x10
    145a:	8b 45 08             	mov    eax,DWORD PTR [ebp+0x8]
    145d:	8b 40 10             	mov    eax,DWORD PTR [eax+0x10]
    1460:	83 ec 0c             	sub    esp,0xc
    1463:	50                   	push   eax
    1464:	e8 fc ff ff ff       	call   1465 <.L89+0x290>
    1469:	83 c4 10             	add    esp,0x10
    146c:	8b 45 08             	mov    eax,DWORD PTR [ebp+0x8]
    146f:	8b 00                	mov    eax,DWORD PTR [eax]
    1471:	83 ec 08             	sub    esp,0x8
    1474:	50                   	push   eax
    1475:	8d 83 08 03 00 00    	lea    eax,[ebx+0x308]
    147b:	50                   	push   eax
    147c:	e8 fc ff ff ff       	call   147d <.L89+0x2a8>
    1481:	83 c4 10             	add    esp,0x10
    1484:	8b 45 08             	mov    eax,DWORD PTR [ebp+0x8]
    1487:	8b 40 10             	mov    eax,DWORD PTR [eax+0x10]
    148a:	83 c0 6c             	add    eax,0x6c
    148d:	83 ec 04             	sub    esp,0x4
    1490:	6a 20                	push   0x20
    1492:	50                   	push   eax
    1493:	6a 01                	push   0x1
    1495:	e8 fc ff ff ff       	call   1496 <.L89+0x2c1>
    149a:	83 c4 10             	add    esp,0x10
    149d:	83 ec 0c             	sub    esp,0xc
    14a0:	ff 75 08             	push   DWORD PTR [ebp+0x8]
    14a3:	e8 56 f3 ff ff       	call   7fe <hmac_sha256_uf>
    14a8:	83 c4 10             	add    esp,0x10
    14ab:	8b 45 08             	mov    eax,DWORD PTR [ebp+0x8]
    14ae:	8b 80 44 00 00 01    	mov    eax,DWORD PTR [eax+0x1000044]
    14b4:	85 c0                	test   eax,eax
    14b6:	75 46                	jne    14fe <.L89+0x329>
    14b8:	8b 45 08             	mov    eax,DWORD PTR [ebp+0x8]
    14bb:	8b 40 10             	mov    eax,DWORD PTR [eax+0x10]
    14be:	83 c0 6c             	add    eax,0x6c
    14c1:	ff 75 c8             	push   DWORD PTR [ebp-0x38]
    14c4:	6a 20                	push   0x20
    14c6:	6a 01                	push   0x1
    14c8:	50                   	push   eax
    14c9:	e8 fc ff ff ff       	call   14ca <.L89+0x2f5>
    14ce:	83 c4 10             	add    esp,0x10
    14d1:	83 f8 20             	cmp    eax,0x20
    14d4:	74 18                	je     14ee <.L89+0x319>
    14d6:	83 ec 04             	sub    esp,0x4
    14d9:	6a 04                	push   0x4
    14db:	ff 75 c8             	push   DWORD PTR [ebp-0x38]
    14de:	ff 75 cc             	push   DWORD PTR [ebp-0x34]
    14e1:	e8 8e f6 ff ff       	call   b74 <close_in_out_files>
    14e6:	83 c4 10             	add    esp,0x10
    14e9:	e9 ad 00 00 00       	jmp    159b <.L89+0x3c6>
    14ee:	83 ec 0c             	sub    esp,0xc
    14f1:	ff 75 c8             	push   DWORD PTR [ebp-0x38]
    14f4:	e8 fc ff ff ff       	call   14f5 <.L89+0x320>
    14f9:	83 c4 10             	add    esp,0x10
    14fc:	eb 59                	jmp    1557 <.L89+0x382>
    14fe:	8b 45 08             	mov    eax,DWORD PTR [ebp+0x8]
    1501:	8b 40 10             	mov    eax,DWORD PTR [eax+0x10]
    1504:	8d 50 6c             	lea    edx,[eax+0x6c]
    1507:	8b 45 08             	mov    eax,DWORD PTR [ebp+0x8]
    150a:	8d 48 28             	lea    ecx,[eax+0x28]
    150d:	8b 45 d8             	mov    eax,DWORD PTR [ebp-0x28]
    1510:	01 c8                	add    eax,ecx
    1512:	83 ec 04             	sub    esp,0x4
    1515:	6a 20                	push   0x20
    1517:	52                   	push   edx
    1518:	50                   	push   eax
    1519:	e8 fc ff ff ff       	call   151a <.L89+0x345>
    151e:	83 c4 10             	add    esp,0x10
    1521:	85 c0                	test   eax,eax
    1523:	74 1a                	je     153f <.L89+0x36a>
    1525:	8b 45 08             	mov    eax,DWORD PTR [ebp+0x8]
    1528:	8b 00                	mov    eax,DWORD PTR [eax]
    152a:	83 ec 08             	sub    esp,0x8
    152d:	50                   	push   eax
    152e:	8d 83 34 03 00 00    	lea    eax,[ebx+0x334]
    1534:	50                   	push   eax
    1535:	e8 fc ff ff ff       	call   1536 <.L89+0x361>
    153a:	83 c4 10             	add    esp,0x10
    153d:	eb 18                	jmp    1557 <.L89+0x382>
    153f:	8b 45 08             	mov    eax,DWORD PTR [ebp+0x8]
    1542:	8b 00                	mov    eax,DWORD PTR [eax]
    1544:	83 ec 08             	sub    esp,0x8
    1547:	50                   	push   eax
    1548:	8d 83 68 03 00 00    	lea    eax,[ebx+0x368]
    154e:	50                   	push   eax
    154f:	e8 fc ff ff ff       	call   1550 <.L89+0x37b>
    1554:	83 c4 10             	add    esp,0x10
    1557:	8b 45 08             	mov    eax,DWORD PTR [ebp+0x8]
    155a:	8b 00                	mov    eax,DWORD PTR [eax]
    155c:	83 ec 08             	sub    esp,0x8
    155f:	50                   	push   eax
    1560:	8d 83 90 03 00 00    	lea    eax,[ebx+0x390]
    1566:	50                   	push   eax
    1567:	e8 fc ff ff ff       	call   1568 <.L89+0x393>
    156c:	83 c4 10             	add    esp,0x10
    156f:	8b 45 08             	mov    eax,DWORD PTR [ebp+0x8]
    1572:	8b 40 10             	mov    eax,DWORD PTR [eax+0x10]
    1575:	83 c0 6c             	add    eax,0x6c
    1578:	83 ec 04             	sub    esp,0x4
    157b:	6a 20                	push   0x20
    157d:	50                   	push   eax
    157e:	6a 01                	push   0x1
    1580:	e8 fc ff ff ff       	call   1581 <.L89+0x3ac>
    1585:	83 c4 10             	add    esp,0x10
    1588:	83 ec 04             	sub    esp,0x4
    158b:	6a 00                	push   0x0
    158d:	ff 75 c8             	push   DWORD PTR [ebp-0x38]
    1590:	ff 75 cc             	push   DWORD PTR [ebp-0x34]
    1593:	e8 dc f5 ff ff       	call   b74 <close_in_out_files>
    1598:	83 c4 10             	add    esp,0x10
    159b:	8d 65 f4             	lea    esp,[ebp-0xc]
    159e:	5b                   	pop    ebx
    159f:	5e                   	pop    esi
    15a0:	5f                   	pop    edi
    15a1:	5d                   	pop    ebp
    15a2:	c3                   	ret    

000015a3 <random_vector_init>:
    15a3:	55                   	push   ebp
    15a4:	89 e5                	mov    ebp,esp
    15a6:	56                   	push   esi
    15a7:	53                   	push   ebx
    15a8:	83 ec 20             	sub    esp,0x20
    15ab:	e8 fc ff ff ff       	call   15ac <random_vector_init+0x9>
    15b0:	81 c3 02 00 00 00    	add    ebx,0x2
    15b6:	c7 45 f0 08 01 00 00 	mov    DWORD PTR [ebp-0x10],0x108
    15bd:	8b 45 0c             	mov    eax,DWORD PTR [ebp+0xc]
    15c0:	89 45 ec             	mov    DWORD PTR [ebp-0x14],eax
    15c3:	c7 45 e8 00 00 00 00 	mov    DWORD PTR [ebp-0x18],0x0
    15ca:	c7 45 e4 00 00 00 00 	mov    DWORD PTR [ebp-0x1c],0x0
    15d1:	83 ec 0c             	sub    esp,0xc
    15d4:	ff 75 ec             	push   DWORD PTR [ebp-0x14]
    15d7:	e8 fc ff ff ff       	call   15d8 <random_vector_init+0x35>
    15dc:	83 c4 10             	add    esp,0x10
    15df:	89 45 e8             	mov    DWORD PTR [ebp-0x18],eax
    15e2:	83 ec 0c             	sub    esp,0xc
    15e5:	ff 75 f0             	push   DWORD PTR [ebp-0x10]
    15e8:	e8 fc ff ff ff       	call   15e9 <random_vector_init+0x46>
    15ed:	83 c4 10             	add    esp,0x10
    15f0:	89 45 e4             	mov    DWORD PTR [ebp-0x1c],eax
    15f3:	83 7d e4 00          	cmp    DWORD PTR [ebp-0x1c],0x0
    15f7:	74 06                	je     15ff <random_vector_init+0x5c>
    15f9:	83 7d e8 00          	cmp    DWORD PTR [ebp-0x18],0x0
    15fd:	75 42                	jne    1641 <random_vector_init+0x9e>
    15ff:	83 ec 0c             	sub    esp,0xc
    1602:	ff 75 e8             	push   DWORD PTR [ebp-0x18]
    1605:	e8 fc ff ff ff       	call   1606 <random_vector_init+0x63>
    160a:	83 c4 10             	add    esp,0x10
    160d:	83 ec 0c             	sub    esp,0xc
    1610:	ff 75 e4             	push   DWORD PTR [ebp-0x1c]
    1613:	e8 fc ff ff ff       	call   1614 <random_vector_init+0x71>
    1618:	83 c4 10             	add    esp,0x10
    161b:	8b 83 00 00 00 00    	mov    eax,DWORD PTR [ebx+0x0]
    1621:	8b 00                	mov    eax,DWORD PTR [eax]
    1623:	50                   	push   eax
    1624:	6a 1c                	push   0x1c
    1626:	6a 01                	push   0x1
    1628:	8d 83 aa 00 00 00    	lea    eax,[ebx+0xaa]
    162e:	50                   	push   eax
    162f:	e8 fc ff ff ff       	call   1630 <random_vector_init+0x8d>
    1634:	83 c4 10             	add    esp,0x10
    1637:	83 ec 0c             	sub    esp,0xc
    163a:	6a 01                	push   0x1
    163c:	e8 fc ff ff ff       	call   163d <random_vector_init+0x9a>
    1641:	c7 45 f4 00 00 00 00 	mov    DWORD PTR [ebp-0xc],0x0
    1648:	eb 2f                	jmp    1679 <random_vector_init+0xd6>
    164a:	83 ec 08             	sub    esp,0x8
    164d:	68 ff 00 00 00       	push   0xff
    1652:	6a 00                	push   0x0
    1654:	e8 fc ff ff ff       	call   1655 <random_vector_init+0xb2>
    1659:	83 c4 10             	add    esp,0x10
    165c:	89 c6                	mov    esi,eax
    165e:	8b 55 e8             	mov    edx,DWORD PTR [ebp-0x18]
    1661:	8b 45 f4             	mov    eax,DWORD PTR [ebp-0xc]
    1664:	01 d0                	add    eax,edx
    1666:	0f b6 10             	movzx  edx,BYTE PTR [eax]
    1669:	8b 4d e8             	mov    ecx,DWORD PTR [ebp-0x18]
    166c:	8b 45 f4             	mov    eax,DWORD PTR [ebp-0xc]
    166f:	01 c8                	add    eax,ecx
    1671:	31 f2                	xor    edx,esi
    1673:	88 10                	mov    BYTE PTR [eax],dl
    1675:	83 45 f4 01          	add    DWORD PTR [ebp-0xc],0x1
    1679:	8b 45 f4             	mov    eax,DWORD PTR [ebp-0xc]
    167c:	3b 45 ec             	cmp    eax,DWORD PTR [ebp-0x14]
    167f:	72 c9                	jb     164a <random_vector_init+0xa7>
    1681:	83 ec 04             	sub    esp,0x4
    1684:	ff 75 0c             	push   DWORD PTR [ebp+0xc]
    1687:	ff 75 08             	push   DWORD PTR [ebp+0x8]
    168a:	ff 75 e4             	push   DWORD PTR [ebp-0x1c]
    168d:	e8 fc ff ff ff       	call   168e <random_vector_init+0xeb>
    1692:	83 c4 10             	add    esp,0x10
    1695:	ff 75 0c             	push   DWORD PTR [ebp+0xc]
    1698:	ff 75 08             	push   DWORD PTR [ebp+0x8]
    169b:	ff 75 e8             	push   DWORD PTR [ebp-0x18]
    169e:	ff 75 e4             	push   DWORD PTR [ebp-0x1c]
    16a1:	e8 fc ff ff ff       	call   16a2 <random_vector_init+0xff>
    16a6:	83 c4 10             	add    esp,0x10
    16a9:	83 ec 04             	sub    esp,0x4
    16ac:	ff 75 ec             	push   DWORD PTR [ebp-0x14]
    16af:	6a 00                	push   0x0
    16b1:	ff 75 e8             	push   DWORD PTR [ebp-0x18]
    16b4:	e8 fc ff ff ff       	call   16b5 <random_vector_init+0x112>
    16b9:	83 c4 10             	add    esp,0x10
    16bc:	83 ec 04             	sub    esp,0x4
    16bf:	ff 75 f0             	push   DWORD PTR [ebp-0x10]
    16c2:	6a 00                	push   0x0
    16c4:	ff 75 e4             	push   DWORD PTR [ebp-0x1c]
    16c7:	e8 fc ff ff ff       	call   16c8 <random_vector_init+0x125>
    16cc:	83 c4 10             	add    esp,0x10
    16cf:	83 ec 0c             	sub    esp,0xc
    16d2:	ff 75 e8             	push   DWORD PTR [ebp-0x18]
    16d5:	e8 fc ff ff ff       	call   16d6 <random_vector_init+0x133>
    16da:	83 c4 10             	add    esp,0x10
    16dd:	83 ec 0c             	sub    esp,0xc
    16e0:	ff 75 e4             	push   DWORD PTR [ebp-0x1c]
    16e3:	e8 fc ff ff ff       	call   16e4 <random_vector_init+0x141>
    16e8:	83 c4 10             	add    esp,0x10
    16eb:	c7 45 e8 00 00 00 00 	mov    DWORD PTR [ebp-0x18],0x0
    16f2:	c7 45 e4 00 00 00 00 	mov    DWORD PTR [ebp-0x1c],0x0
    16f9:	c7 45 ec 00 00 00 00 	mov    DWORD PTR [ebp-0x14],0x0
    1700:	c7 45 f0 00 00 00 00 	mov    DWORD PTR [ebp-0x10],0x0
    1707:	90                   	nop
    1708:	8d 65 f8             	lea    esp,[ebp-0x8]
    170b:	5b                   	pop    ebx
    170c:	5e                   	pop    esi
    170d:	5d                   	pop    ebp
    170e:	c3                   	ret    

0000170f <vector_init>:
    170f:	55                   	push   ebp
    1710:	89 e5                	mov    ebp,esp
    1712:	56                   	push   esi
    1713:	53                   	push   ebx
    1714:	83 ec 10             	sub    esp,0x10
    1717:	e8 fc ff ff ff       	call   1718 <vector_init+0x9>
    171c:	81 c3 02 00 00 00    	add    ebx,0x2
    1722:	83 ec 08             	sub    esp,0x8
    1725:	8d 83 00 00 00 00    	lea    eax,[ebx+0x0]
    172b:	50                   	push   eax
    172c:	8d 83 e0 03 00 00    	lea    eax,[ebx+0x3e0]
    1732:	50                   	push   eax
    1733:	e8 fc ff ff ff       	call   1734 <vector_init+0x25>
    1738:	83 c4 10             	add    esp,0x10
    173b:	89 45 f0             	mov    DWORD PTR [ebp-0x10],eax
    173e:	83 7d f0 00          	cmp    DWORD PTR [ebp-0x10],0x0
    1742:	74 48                	je     178c <vector_init+0x7d>
    1744:	ff 75 f0             	push   DWORD PTR [ebp-0x10]
    1747:	ff 75 0c             	push   DWORD PTR [ebp+0xc]
    174a:	6a 01                	push   0x1
    174c:	ff 75 08             	push   DWORD PTR [ebp+0x8]
    174f:	e8 fc ff ff ff       	call   1750 <vector_init+0x41>
    1754:	83 c4 10             	add    esp,0x10
    1757:	83 ec 0c             	sub    esp,0xc
    175a:	ff 75 f0             	push   DWORD PTR [ebp-0x10]
    175d:	e8 fc ff ff ff       	call   175e <vector_init+0x4f>
    1762:	83 c4 10             	add    esp,0x10
    1765:	83 ec 0c             	sub    esp,0xc
    1768:	8d 83 f0 03 00 00    	lea    eax,[ebx+0x3f0]
    176e:	50                   	push   eax
    176f:	e8 fc ff ff ff       	call   1770 <vector_init+0x61>
    1774:	83 c4 10             	add    esp,0x10
    1777:	83 ec 04             	sub    esp,0x4
    177a:	ff 75 0c             	push   DWORD PTR [ebp+0xc]
    177d:	ff 75 08             	push   DWORD PTR [ebp+0x8]
    1780:	6a 01                	push   0x1
    1782:	e8 fc ff ff ff       	call   1783 <vector_init+0x74>
    1787:	83 c4 10             	add    esp,0x10
    178a:	eb 1c                	jmp    17a8 <vector_init+0x99>
    178c:	8b 83 00 00 00 00    	mov    eax,DWORD PTR [ebx+0x0]
    1792:	8b 00                	mov    eax,DWORD PTR [eax]
    1794:	50                   	push   eax
    1795:	6a 27                	push   0x27
    1797:	6a 01                	push   0x1
    1799:	8d 83 1c 04 00 00    	lea    eax,[ebx+0x41c]
    179f:	50                   	push   eax
    17a0:	e8 fc ff ff ff       	call   17a1 <vector_init+0x92>
    17a5:	83 c4 10             	add    esp,0x10
    17a8:	c7 45 f4 00 00 00 00 	mov    DWORD PTR [ebp-0xc],0x0
    17af:	eb 3d                	jmp    17ee <vector_init+0xdf>
    17b1:	8b 45 f4             	mov    eax,DWORD PTR [ebp-0xc]
    17b4:	89 c6                	mov    esi,eax
    17b6:	83 ec 08             	sub    esp,0x8
    17b9:	68 ff 00 00 00       	push   0xff
    17be:	6a 00                	push   0x0
    17c0:	e8 fc ff ff ff       	call   17c1 <vector_init+0xb2>
    17c5:	83 c4 10             	add    esp,0x10
    17c8:	31 f0                	xor    eax,esi
    17ca:	0f b6 d0             	movzx  edx,al
    17cd:	8b 4d 08             	mov    ecx,DWORD PTR [ebp+0x8]
    17d0:	8b 45 f4             	mov    eax,DWORD PTR [ebp-0xc]
    17d3:	01 c8                	add    eax,ecx
    17d5:	0f b6 00             	movzx  eax,BYTE PTR [eax]
    17d8:	89 c1                	mov    ecx,eax
    17da:	89 d0                	mov    eax,edx
    17dc:	31 c1                	xor    ecx,eax
    17de:	8b 55 08             	mov    edx,DWORD PTR [ebp+0x8]
    17e1:	8b 45 f4             	mov    eax,DWORD PTR [ebp-0xc]
    17e4:	01 d0                	add    eax,edx
    17e6:	89 ca                	mov    edx,ecx
    17e8:	88 10                	mov    BYTE PTR [eax],dl
    17ea:	83 45 f4 01          	add    DWORD PTR [ebp-0xc],0x1
    17ee:	8b 45 f4             	mov    eax,DWORD PTR [ebp-0xc]
    17f1:	3b 45 0c             	cmp    eax,DWORD PTR [ebp+0xc]
    17f4:	72 bb                	jb     17b1 <vector_init+0xa2>
    17f6:	83 ec 08             	sub    esp,0x8
    17f9:	ff 75 0c             	push   DWORD PTR [ebp+0xc]
    17fc:	ff 75 08             	push   DWORD PTR [ebp+0x8]
    17ff:	e8 9f fd ff ff       	call   15a3 <random_vector_init>
    1804:	83 c4 10             	add    esp,0x10
    1807:	90                   	nop
    1808:	8d 65 f8             	lea    esp,[ebp-0x8]
    180b:	5b                   	pop    ebx
    180c:	5e                   	pop    esi
    180d:	5d                   	pop    ebp
    180e:	c3                   	ret    

0000180f <cipher_init_memory>:
    180f:	55                   	push   ebp
    1810:	89 e5                	mov    ebp,esp
    1812:	56                   	push   esi
    1813:	53                   	push   ebx
    1814:	83 ec 10             	sub    esp,0x10
    1817:	e8 fc ff ff ff       	call   1818 <cipher_init_memory+0x9>
    181c:	81 c3 02 00 00 00    	add    ebx,0x2
    1822:	83 ec 08             	sub    esp,0x8
    1825:	6a 01                	push   0x1
    1827:	ff 75 0c             	push   DWORD PTR [ebp+0xc]
    182a:	e8 fc ff ff ff       	call   182b <cipher_init_memory+0x1c>
    182f:	83 c4 10             	add    esp,0x10
    1832:	89 45 f4             	mov    DWORD PTR [ebp-0xc],eax
    1835:	83 7d f4 00          	cmp    DWORD PTR [ebp-0xc],0x0
    1839:	75 0a                	jne    1845 <cipher_init_memory+0x36>
    183b:	b8 00 00 00 00       	mov    eax,0x0
    1840:	e9 18 01 00 00       	jmp    195d <.L120+0x38>
    1845:	8b 45 08             	mov    eax,DWORD PTR [ebp+0x8]
    1848:	8b 80 48 00 00 01    	mov    eax,DWORD PTR [eax+0x1000048]
    184e:	83 f8 04             	cmp    eax,0x4
    1851:	0f 87 03 01 00 00    	ja     195a <.L120+0x35>
    1857:	c1 e0 02             	shl    eax,0x2
    185a:	8b 84 18 44 04 00 00 	mov    eax,DWORD PTR [eax+ebx*1+0x444]
    1861:	01 d8                	add    eax,ebx
    1863:	ff e0                	jmp    eax

00001865 <.L125>:
    1865:	8b 45 f4             	mov    eax,DWORD PTR [ebp-0xc]
    1868:	89 83 00 00 00 00    	mov    DWORD PTR [ebx+0x0],eax
    186e:	8b 45 08             	mov    eax,DWORD PTR [ebp+0x8]
    1871:	8b 40 24             	mov    eax,DWORD PTR [eax+0x24]
    1874:	c1 e0 03             	shl    eax,0x3
    1877:	89 c1                	mov    ecx,eax
    1879:	8b 45 08             	mov    eax,DWORD PTR [ebp+0x8]
    187c:	8b 50 20             	mov    edx,DWORD PTR [eax+0x20]
    187f:	8b 83 00 00 00 00    	mov    eax,DWORD PTR [ebx+0x0]
    1885:	83 ec 04             	sub    esp,0x4
    1888:	51                   	push   ecx
    1889:	52                   	push   edx
    188a:	50                   	push   eax
    188b:	e8 fc ff ff ff       	call   188c <.L125+0x27>
    1890:	83 c4 10             	add    esp,0x10
    1893:	e9 c2 00 00 00       	jmp    195a <.L120+0x35>

00001898 <.L123>:
    1898:	8b 45 f4             	mov    eax,DWORD PTR [ebp-0xc]
    189b:	89 83 08 00 00 00    	mov    DWORD PTR [ebx+0x8],eax
    18a1:	8b 45 08             	mov    eax,DWORD PTR [ebp+0x8]
    18a4:	8b 40 24             	mov    eax,DWORD PTR [eax+0x24]
    18a7:	89 c1                	mov    ecx,eax
    18a9:	8b 45 08             	mov    eax,DWORD PTR [ebp+0x8]
    18ac:	8b 50 20             	mov    edx,DWORD PTR [eax+0x20]
    18af:	8b 83 08 00 00 00    	mov    eax,DWORD PTR [ebx+0x8]
    18b5:	83 ec 04             	sub    esp,0x4
    18b8:	51                   	push   ecx
    18b9:	52                   	push   edx
    18ba:	50                   	push   eax
    18bb:	e8 fc ff ff ff       	call   18bc <.L123+0x24>
    18c0:	83 c4 10             	add    esp,0x10
    18c3:	e9 92 00 00 00       	jmp    195a <.L120+0x35>

000018c8 <.L124>:
    18c8:	8b 45 f4             	mov    eax,DWORD PTR [ebp-0xc]
    18cb:	89 83 04 00 00 00    	mov    DWORD PTR [ebx+0x4],eax
    18d1:	8b 45 08             	mov    eax,DWORD PTR [ebp+0x8]
    18d4:	8b 50 20             	mov    edx,DWORD PTR [eax+0x20]
    18d7:	8b 45 08             	mov    eax,DWORD PTR [ebp+0x8]
    18da:	8b 40 24             	mov    eax,DWORD PTR [eax+0x24]
    18dd:	c1 e0 03             	shl    eax,0x3
    18e0:	89 c1                	mov    ecx,eax
    18e2:	8b 83 04 00 00 00    	mov    eax,DWORD PTR [ebx+0x4]
    18e8:	83 ec 04             	sub    esp,0x4
    18eb:	52                   	push   edx
    18ec:	51                   	push   ecx
    18ed:	50                   	push   eax
    18ee:	e8 fc ff ff ff       	call   18ef <.L124+0x27>
    18f3:	83 c4 10             	add    esp,0x10
    18f6:	eb 62                	jmp    195a <.L120+0x35>

000018f8 <.L122>:
    18f8:	8b 45 f4             	mov    eax,DWORD PTR [ebp-0xc]
    18fb:	89 83 0c 00 00 00    	mov    DWORD PTR [ebx+0xc],eax
    1901:	8b 45 08             	mov    eax,DWORD PTR [ebp+0x8]
    1904:	8b 40 24             	mov    eax,DWORD PTR [eax+0x24]
    1907:	89 c1                	mov    ecx,eax
    1909:	8b 45 08             	mov    eax,DWORD PTR [ebp+0x8]
    190c:	8b 50 20             	mov    edx,DWORD PTR [eax+0x20]
    190f:	8b 83 0c 00 00 00    	mov    eax,DWORD PTR [ebx+0xc]
    1915:	83 ec 04             	sub    esp,0x4
    1918:	51                   	push   ecx
    1919:	52                   	push   edx
    191a:	50                   	push   eax
    191b:	e8 fc ff ff ff       	call   191c <.L122+0x24>
    1920:	83 c4 10             	add    esp,0x10
    1923:	eb 35                	jmp    195a <.L120+0x35>

00001925 <.L120>:
    1925:	8b 45 f4             	mov    eax,DWORD PTR [ebp-0xc]
    1928:	89 83 10 00 00 00    	mov    DWORD PTR [ebx+0x10],eax
    192e:	8b 45 08             	mov    eax,DWORD PTR [ebp+0x8]
    1931:	8b 48 20             	mov    ecx,DWORD PTR [eax+0x20]
    1934:	8b 45 08             	mov    eax,DWORD PTR [ebp+0x8]
    1937:	8b 50 20             	mov    edx,DWORD PTR [eax+0x20]
    193a:	8b 45 08             	mov    eax,DWORD PTR [ebp+0x8]
    193d:	8b 40 24             	mov    eax,DWORD PTR [eax+0x24]
    1940:	8d 34 c5 00 00 00 00 	lea    esi,[eax*8+0x0]
    1947:	8b 83 10 00 00 00    	mov    eax,DWORD PTR [ebx+0x10]
    194d:	51                   	push   ecx
    194e:	52                   	push   edx
    194f:	56                   	push   esi
    1950:	50                   	push   eax
    1951:	e8 fc ff ff ff       	call   1952 <.L120+0x2d>
    1956:	83 c4 10             	add    esp,0x10
    1959:	90                   	nop
    195a:	8b 45 f4             	mov    eax,DWORD PTR [ebp-0xc]
    195d:	8d 65 f8             	lea    esp,[ebp-0x8]
    1960:	5b                   	pop    ebx
    1961:	5e                   	pop    esi
    1962:	5d                   	pop    ebp
    1963:	c3                   	ret    

00001964 <PRINT_OPERATION_STATUS>:
    1964:	55                   	push   ebp
    1965:	89 e5                	mov    ebp,esp
    1967:	56                   	push   esi
    1968:	53                   	push   ebx
    1969:	e8 fc ff ff ff       	call   196a <PRINT_OPERATION_STATUS+0x6>
    196e:	81 c3 02 00 00 00    	add    ebx,0x2
    1974:	83 7d 0c 08          	cmp    DWORD PTR [ebp+0xc],0x8
    1978:	0f 87 7d 01 00 00    	ja     1afb <.L128+0x22>
    197e:	8b 45 0c             	mov    eax,DWORD PTR [ebp+0xc]
    1981:	c1 e0 02             	shl    eax,0x2
    1984:	8b 84 18 a0 05 00 00 	mov    eax,DWORD PTR [eax+ebx*1+0x5a0]
    198b:	01 d8                	add    eax,ebx
    198d:	ff e0                	jmp    eax

0000198f <.L137>:
    198f:	8b 45 08             	mov    eax,DWORD PTR [ebp+0x8]
    1992:	8b 30                	mov    esi,DWORD PTR [eax]
    1994:	8b 45 08             	mov    eax,DWORD PTR [ebp+0x8]
    1997:	8b 80 44 00 00 01    	mov    eax,DWORD PTR [eax+0x1000044]
    199d:	50                   	push   eax
    199e:	e8 84 ed ff ff       	call   727 <operation_variant>
    19a3:	83 c4 04             	add    esp,0x4
    19a6:	8b 84 83 20 00 00 00 	mov    eax,DWORD PTR [ebx+eax*4+0x20]
    19ad:	83 ec 04             	sub    esp,0x4
    19b0:	56                   	push   esi
    19b1:	50                   	push   eax
    19b2:	8d 83 58 04 00 00    	lea    eax,[ebx+0x458]
    19b8:	50                   	push   eax
    19b9:	e8 fc ff ff ff       	call   19ba <.L137+0x2b>
    19be:	83 c4 10             	add    esp,0x10
    19c1:	e9 35 01 00 00       	jmp    1afb <.L128+0x22>

000019c6 <.L136>:
    19c6:	8b 45 08             	mov    eax,DWORD PTR [ebp+0x8]
    19c9:	8b 30                	mov    esi,DWORD PTR [eax]
    19cb:	8b 45 08             	mov    eax,DWORD PTR [ebp+0x8]
    19ce:	8b 80 44 00 00 01    	mov    eax,DWORD PTR [eax+0x1000044]
    19d4:	83 ec 0c             	sub    esp,0xc
    19d7:	50                   	push   eax
    19d8:	e8 4a ed ff ff       	call   727 <operation_variant>
    19dd:	83 c4 10             	add    esp,0x10
    19e0:	8b 94 83 20 00 00 00 	mov    edx,DWORD PTR [ebx+eax*4+0x20]
    19e7:	8b 83 00 00 00 00    	mov    eax,DWORD PTR [ebx+0x0]
    19ed:	8b 00                	mov    eax,DWORD PTR [eax]
    19ef:	56                   	push   esi
    19f0:	52                   	push   edx
    19f1:	8d 93 74 04 00 00    	lea    edx,[ebx+0x474]
    19f7:	52                   	push   edx
    19f8:	50                   	push   eax
    19f9:	e8 fc ff ff ff       	call   19fa <.L136+0x34>
    19fe:	83 c4 10             	add    esp,0x10
    1a01:	e9 f5 00 00 00       	jmp    1afb <.L128+0x22>

00001a06 <.L135>:
    1a06:	8b 45 08             	mov    eax,DWORD PTR [ebp+0x8]
    1a09:	8b 50 04             	mov    edx,DWORD PTR [eax+0x4]
    1a0c:	8b 83 00 00 00 00    	mov    eax,DWORD PTR [ebx+0x0]
    1a12:	8b 00                	mov    eax,DWORD PTR [eax]
    1a14:	83 ec 04             	sub    esp,0x4
    1a17:	52                   	push   edx
    1a18:	8d 93 98 04 00 00    	lea    edx,[ebx+0x498]
    1a1e:	52                   	push   edx
    1a1f:	50                   	push   eax
    1a20:	e8 fc ff ff ff       	call   1a21 <.L135+0x1b>
    1a25:	83 c4 10             	add    esp,0x10
    1a28:	e9 ce 00 00 00       	jmp    1afb <.L128+0x22>

00001a2d <.L134>:
    1a2d:	8b 45 08             	mov    eax,DWORD PTR [ebp+0x8]
    1a30:	8b 10                	mov    edx,DWORD PTR [eax]
    1a32:	8b 83 00 00 00 00    	mov    eax,DWORD PTR [ebx+0x0]
    1a38:	8b 00                	mov    eax,DWORD PTR [eax]
    1a3a:	83 ec 04             	sub    esp,0x4
    1a3d:	52                   	push   edx
    1a3e:	8d 93 bc 04 00 00    	lea    edx,[ebx+0x4bc]
    1a44:	52                   	push   edx
    1a45:	50                   	push   eax
    1a46:	e8 fc ff ff ff       	call   1a47 <.L134+0x1a>
    1a4b:	83 c4 10             	add    esp,0x10
    1a4e:	e9 a8 00 00 00       	jmp    1afb <.L128+0x22>

00001a53 <.L133>:
    1a53:	8b 45 08             	mov    eax,DWORD PTR [ebp+0x8]
    1a56:	8b 50 04             	mov    edx,DWORD PTR [eax+0x4]
    1a59:	8b 83 00 00 00 00    	mov    eax,DWORD PTR [ebx+0x0]
    1a5f:	8b 00                	mov    eax,DWORD PTR [eax]
    1a61:	83 ec 04             	sub    esp,0x4
    1a64:	52                   	push   edx
    1a65:	8d 93 ec 04 00 00    	lea    edx,[ebx+0x4ec]
    1a6b:	52                   	push   edx
    1a6c:	50                   	push   eax
    1a6d:	e8 fc ff ff ff       	call   1a6e <.L133+0x1b>
    1a72:	83 c4 10             	add    esp,0x10
    1a75:	e9 81 00 00 00       	jmp    1afb <.L128+0x22>

00001a7a <.L132>:
    1a7a:	8b 45 08             	mov    eax,DWORD PTR [ebp+0x8]
    1a7d:	8b 10                	mov    edx,DWORD PTR [eax]
    1a7f:	8b 83 00 00 00 00    	mov    eax,DWORD PTR [ebx+0x0]
    1a85:	8b 00                	mov    eax,DWORD PTR [eax]
    1a87:	83 ec 04             	sub    esp,0x4
    1a8a:	52                   	push   edx
    1a8b:	8d 93 0c 05 00 00    	lea    edx,[ebx+0x50c]
    1a91:	52                   	push   edx
    1a92:	50                   	push   eax
    1a93:	e8 fc ff ff ff       	call   1a94 <.L132+0x1a>
    1a98:	83 c4 10             	add    esp,0x10
    1a9b:	eb 5e                	jmp    1afb <.L128+0x22>

00001a9d <.L131>:
    1a9d:	8b 83 00 00 00 00    	mov    eax,DWORD PTR [ebx+0x0]
    1aa3:	8b 00                	mov    eax,DWORD PTR [eax]
    1aa5:	50                   	push   eax
    1aa6:	6a 1e                	push   0x1e
    1aa8:	6a 01                	push   0x1
    1aaa:	8d 83 30 05 00 00    	lea    eax,[ebx+0x530]
    1ab0:	50                   	push   eax
    1ab1:	e8 fc ff ff ff       	call   1ab2 <.L131+0x15>
    1ab6:	83 c4 10             	add    esp,0x10
    1ab9:	eb 40                	jmp    1afb <.L128+0x22>

00001abb <.L130>:
    1abb:	8b 83 00 00 00 00    	mov    eax,DWORD PTR [ebx+0x0]
    1ac1:	8b 00                	mov    eax,DWORD PTR [eax]
    1ac3:	50                   	push   eax
    1ac4:	6a 1f                	push   0x1f
    1ac6:	6a 01                	push   0x1
    1ac8:	8d 83 50 05 00 00    	lea    eax,[ebx+0x550]
    1ace:	50                   	push   eax
    1acf:	e8 fc ff ff ff       	call   1ad0 <.L130+0x15>
    1ad4:	83 c4 10             	add    esp,0x10
    1ad7:	eb 22                	jmp    1afb <.L128+0x22>

00001ad9 <.L128>:
    1ad9:	8b 45 08             	mov    eax,DWORD PTR [ebp+0x8]
    1adc:	8b 10                	mov    edx,DWORD PTR [eax]
    1ade:	8b 83 00 00 00 00    	mov    eax,DWORD PTR [ebx+0x0]
    1ae4:	8b 00                	mov    eax,DWORD PTR [eax]
    1ae6:	83 ec 04             	sub    esp,0x4
    1ae9:	52                   	push   edx
    1aea:	8d 93 70 05 00 00    	lea    edx,[ebx+0x570]
    1af0:	52                   	push   edx
    1af1:	50                   	push   eax
    1af2:	e8 fc ff ff ff       	call   1af3 <.L128+0x1a>
    1af7:	83 c4 10             	add    esp,0x10
    1afa:	90                   	nop
    1afb:	90                   	nop
    1afc:	8d 65 f8             	lea    esp,[ebp-0x8]
    1aff:	5b                   	pop    ebx
    1b00:	5e                   	pop    esi
    1b01:	5d                   	pop    ebp
    1b02:	c3                   	ret    

00001b03 <password_read>:
    1b03:	55                   	push   ebp
    1b04:	89 e5                	mov    ebp,esp
    1b06:	53                   	push   ebx
    1b07:	81 ec 84 00 00 00    	sub    esp,0x84
    1b0d:	e8 fc ff ff ff       	call   1b0e <password_read+0xb>
    1b12:	81 c3 02 00 00 00    	add    ebx,0x2
    1b18:	83 ec 08             	sub    esp,0x8
    1b1b:	8d 45 b8             	lea    eax,[ebp-0x48]
    1b1e:	50                   	push   eax
    1b1f:	6a 00                	push   0x0
    1b21:	e8 fc ff ff ff       	call   1b22 <password_read+0x1f>
    1b26:	83 c4 10             	add    esp,0x10
    1b29:	8b 45 b8             	mov    eax,DWORD PTR [ebp-0x48]
    1b2c:	89 85 7c ff ff ff    	mov    DWORD PTR [ebp-0x84],eax
    1b32:	8b 45 bc             	mov    eax,DWORD PTR [ebp-0x44]
    1b35:	89 45 80             	mov    DWORD PTR [ebp-0x80],eax
    1b38:	8b 45 c0             	mov    eax,DWORD PTR [ebp-0x40]
    1b3b:	89 45 84             	mov    DWORD PTR [ebp-0x7c],eax
    1b3e:	8b 45 c4             	mov    eax,DWORD PTR [ebp-0x3c]
    1b41:	89 45 88             	mov    DWORD PTR [ebp-0x78],eax
    1b44:	8b 45 c8             	mov    eax,DWORD PTR [ebp-0x38]
    1b47:	89 45 8c             	mov    DWORD PTR [ebp-0x74],eax
    1b4a:	8b 45 cc             	mov    eax,DWORD PTR [ebp-0x34]
    1b4d:	89 45 90             	mov    DWORD PTR [ebp-0x70],eax
    1b50:	8b 45 d0             	mov    eax,DWORD PTR [ebp-0x30]
    1b53:	89 45 94             	mov    DWORD PTR [ebp-0x6c],eax
    1b56:	8b 45 d4             	mov    eax,DWORD PTR [ebp-0x2c]
    1b59:	89 45 98             	mov    DWORD PTR [ebp-0x68],eax
    1b5c:	8b 45 d8             	mov    eax,DWORD PTR [ebp-0x28]
    1b5f:	89 45 9c             	mov    DWORD PTR [ebp-0x64],eax
    1b62:	8b 45 dc             	mov    eax,DWORD PTR [ebp-0x24]
    1b65:	89 45 a0             	mov    DWORD PTR [ebp-0x60],eax
    1b68:	8b 45 e0             	mov    eax,DWORD PTR [ebp-0x20]
    1b6b:	89 45 a4             	mov    DWORD PTR [ebp-0x5c],eax
    1b6e:	8b 45 e4             	mov    eax,DWORD PTR [ebp-0x1c]
    1b71:	89 45 a8             	mov    DWORD PTR [ebp-0x58],eax
    1b74:	8b 45 e8             	mov    eax,DWORD PTR [ebp-0x18]
    1b77:	89 45 ac             	mov    DWORD PTR [ebp-0x54],eax
    1b7a:	8b 45 ec             	mov    eax,DWORD PTR [ebp-0x14]
    1b7d:	89 45 b0             	mov    DWORD PTR [ebp-0x50],eax
    1b80:	8b 45 f0             	mov    eax,DWORD PTR [ebp-0x10]
    1b83:	89 45 b4             	mov    DWORD PTR [ebp-0x4c],eax
    1b86:	8b 45 c4             	mov    eax,DWORD PTR [ebp-0x3c]
    1b89:	83 e0 f7             	and    eax,0xfffffff7
    1b8c:	89 45 c4             	mov    DWORD PTR [ebp-0x3c],eax
    1b8f:	83 ec 04             	sub    esp,0x4
    1b92:	8d 45 b8             	lea    eax,[ebp-0x48]
    1b95:	50                   	push   eax
    1b96:	6a 00                	push   0x0
    1b98:	6a 00                	push   0x0
    1b9a:	e8 fc ff ff ff       	call   1b9b <password_read+0x98>
    1b9f:	83 c4 10             	add    esp,0x10
    1ba2:	83 ec 08             	sub    esp,0x8
    1ba5:	8d 45 b8             	lea    eax,[ebp-0x48]
    1ba8:	50                   	push   eax
    1ba9:	6a 00                	push   0x0
    1bab:	e8 fc ff ff ff       	call   1bac <password_read+0xa9>
    1bb0:	83 c4 10             	add    esp,0x10
    1bb3:	8b 83 00 00 00 00    	mov    eax,DWORD PTR [ebx+0x0]
    1bb9:	8b 00                	mov    eax,DWORD PTR [eax]
    1bbb:	83 ec 0c             	sub    esp,0xc
    1bbe:	50                   	push   eax
    1bbf:	e8 fc ff ff ff       	call   1bc0 <password_read+0xbd>
    1bc4:	83 c4 10             	add    esp,0x10
    1bc7:	8b 83 00 00 00 00    	mov    eax,DWORD PTR [ebx+0x0]
    1bcd:	8b 00                	mov    eax,DWORD PTR [eax]
    1bcf:	83 ec 0c             	sub    esp,0xc
    1bd2:	50                   	push   eax
    1bd3:	e8 fc ff ff ff       	call   1bd4 <password_read+0xd1>
    1bd8:	83 c4 10             	add    esp,0x10
    1bdb:	83 ec 0c             	sub    esp,0xc
    1bde:	8d 83 c4 05 00 00    	lea    eax,[ebx+0x5c4]
    1be4:	50                   	push   eax
    1be5:	e8 fc ff ff ff       	call   1be6 <password_read+0xe3>
    1bea:	83 c4 10             	add    esp,0x10
    1bed:	8b 83 00 00 00 00    	mov    eax,DWORD PTR [ebx+0x0]
    1bf3:	8b 10                	mov    edx,DWORD PTR [eax]
    1bf5:	8b 45 08             	mov    eax,DWORD PTR [ebp+0x8]
    1bf8:	8b 40 0c             	mov    eax,DWORD PTR [eax+0xc]
    1bfb:	89 c1                	mov    ecx,eax
    1bfd:	8b 45 08             	mov    eax,DWORD PTR [ebp+0x8]
    1c00:	8b 40 08             	mov    eax,DWORD PTR [eax+0x8]
    1c03:	83 ec 04             	sub    esp,0x4
    1c06:	52                   	push   edx
    1c07:	51                   	push   ecx
    1c08:	50                   	push   eax
    1c09:	e8 fc ff ff ff       	call   1c0a <password_read+0x107>
    1c0e:	83 c4 10             	add    esp,0x10
    1c11:	85 c0                	test   eax,eax
    1c13:	75 23                	jne    1c38 <password_read+0x135>
    1c15:	8b 83 00 00 00 00    	mov    eax,DWORD PTR [ebx+0x0]
    1c1b:	8b 00                	mov    eax,DWORD PTR [eax]
    1c1d:	50                   	push   eax
    1c1e:	6a 29                	push   0x29
    1c20:	6a 01                	push   0x1
    1c22:	8d 83 e8 05 00 00    	lea    eax,[ebx+0x5e8]
    1c28:	50                   	push   eax
    1c29:	e8 fc ff ff ff       	call   1c2a <password_read+0x127>
    1c2e:	83 c4 10             	add    esp,0x10
    1c31:	b8 03 00 00 00       	mov    eax,0x3
    1c36:	eb 6d                	jmp    1ca5 <password_read+0x1a2>
    1c38:	c7 45 f4 00 00 00 00 	mov    DWORD PTR [ebp-0xc],0x0
    1c3f:	eb 26                	jmp    1c67 <password_read+0x164>
    1c41:	8b 45 08             	mov    eax,DWORD PTR [ebp+0x8]
    1c44:	8b 50 08             	mov    edx,DWORD PTR [eax+0x8]
    1c47:	8b 45 f4             	mov    eax,DWORD PTR [ebp-0xc]
    1c4a:	01 d0                	add    eax,edx
    1c4c:	0f b6 00             	movzx  eax,BYTE PTR [eax]
    1c4f:	3c 0a                	cmp    al,0xa
    1c51:	75 10                	jne    1c63 <password_read+0x160>
    1c53:	8b 45 08             	mov    eax,DWORD PTR [ebp+0x8]
    1c56:	8b 50 08             	mov    edx,DWORD PTR [eax+0x8]
    1c59:	8b 45 f4             	mov    eax,DWORD PTR [ebp-0xc]
    1c5c:	01 d0                	add    eax,edx
    1c5e:	c6 00 00             	mov    BYTE PTR [eax],0x0
    1c61:	eb 11                	jmp    1c74 <password_read+0x171>
    1c63:	83 45 f4 01          	add    DWORD PTR [ebp-0xc],0x1
    1c67:	8b 45 08             	mov    eax,DWORD PTR [ebp+0x8]
    1c6a:	8b 50 0c             	mov    edx,DWORD PTR [eax+0xc]
    1c6d:	8b 45 f4             	mov    eax,DWORD PTR [ebp-0xc]
    1c70:	39 c2                	cmp    edx,eax
    1c72:	77 cd                	ja     1c41 <password_read+0x13e>
    1c74:	83 ec 04             	sub    esp,0x4
    1c77:	8d 85 7c ff ff ff    	lea    eax,[ebp-0x84]
    1c7d:	50                   	push   eax
    1c7e:	6a 00                	push   0x0
    1c80:	6a 00                	push   0x0
    1c82:	e8 fc ff ff ff       	call   1c83 <password_read+0x180>
    1c87:	83 c4 10             	add    esp,0x10
    1c8a:	8b 83 00 00 00 00    	mov    eax,DWORD PTR [ebx+0x0]
    1c90:	8b 00                	mov    eax,DWORD PTR [eax]
    1c92:	83 ec 08             	sub    esp,0x8
    1c95:	50                   	push   eax
    1c96:	6a 0a                	push   0xa
    1c98:	e8 fc ff ff ff       	call   1c99 <password_read+0x196>
    1c9d:	83 c4 10             	add    esp,0x10
    1ca0:	b8 00 00 00 00       	mov    eax,0x0
    1ca5:	8b 5d fc             	mov    ebx,DWORD PTR [ebp-0x4]
    1ca8:	c9                   	leave  
    1ca9:	c3                   	ret    

00001caa <INITIALIZED_GLOBAL_MEMORY>:
    1caa:	55                   	push   ebp
    1cab:	89 e5                	mov    ebp,esp
    1cad:	56                   	push   esi
    1cae:	53                   	push   ebx
    1caf:	e8 fc ff ff ff       	call   1cb0 <INITIALIZED_GLOBAL_MEMORY+0x6>
    1cb4:	81 c3 02 00 00 00    	add    ebx,0x2
    1cba:	83 ec 0c             	sub    esp,0xc
    1cbd:	ff 75 0c             	push   DWORD PTR [ebp+0xc]
    1cc0:	e8 fc ff ff ff       	call   1cc1 <INITIALIZED_GLOBAL_MEMORY+0x17>
    1cc5:	83 c4 10             	add    esp,0x10
    1cc8:	89 c2                	mov    edx,eax
    1cca:	8b 45 08             	mov    eax,DWORD PTR [ebp+0x8]
    1ccd:	89 10                	mov    DWORD PTR [eax],edx
    1ccf:	8b 45 08             	mov    eax,DWORD PTR [ebp+0x8]
    1cd2:	8b 00                	mov    eax,DWORD PTR [eax]
    1cd4:	85 c0                	test   eax,eax
    1cd6:	75 0a                	jne    1ce2 <INITIALIZED_GLOBAL_MEMORY+0x38>
    1cd8:	b8 01 00 00 00       	mov    eax,0x1
    1cdd:	e9 34 01 00 00       	jmp    1e16 <INITIALIZED_GLOBAL_MEMORY+0x16c>
    1ce2:	8b 45 08             	mov    eax,DWORD PTR [ebp+0x8]
    1ce5:	8b 00                	mov    eax,DWORD PTR [eax]
    1ce7:	83 ec 04             	sub    esp,0x4
    1cea:	ff 75 0c             	push   DWORD PTR [ebp+0xc]
    1ced:	6a 00                	push   0x0
    1cef:	50                   	push   eax
    1cf0:	e8 fc ff ff ff       	call   1cf1 <INITIALIZED_GLOBAL_MEMORY+0x47>
    1cf5:	83 c4 10             	add    esp,0x10
    1cf8:	8b 45 08             	mov    eax,DWORD PTR [ebp+0x8]
    1cfb:	8b 00                	mov    eax,DWORD PTR [eax]
    1cfd:	c7 00 00 00 00 00    	mov    DWORD PTR [eax],0x0
    1d03:	8b 45 08             	mov    eax,DWORD PTR [ebp+0x8]
    1d06:	8b 00                	mov    eax,DWORD PTR [eax]
    1d08:	c7 40 04 00 00 00 00 	mov    DWORD PTR [eax+0x4],0x0
    1d0f:	8b 45 08             	mov    eax,DWORD PTR [ebp+0x8]
    1d12:	8b 00                	mov    eax,DWORD PTR [eax]
    1d14:	c7 40 18 00 00 00 00 	mov    DWORD PTR [eax+0x18],0x0
    1d1b:	8b 45 08             	mov    eax,DWORD PTR [ebp+0x8]
    1d1e:	8b 00                	mov    eax,DWORD PTR [eax]
    1d20:	c7 40 20 00 00 00 00 	mov    DWORD PTR [eax+0x20],0x0
    1d27:	8b 45 08             	mov    eax,DWORD PTR [ebp+0x8]
    1d2a:	8b 00                	mov    eax,DWORD PTR [eax]
    1d2c:	c7 80 44 00 00 01 00 	mov    DWORD PTR [eax+0x1000044],0x0
    1d33:	00 00 00 
    1d36:	8b 45 08             	mov    eax,DWORD PTR [ebp+0x8]
    1d39:	8b 00                	mov    eax,DWORD PTR [eax]
    1d3b:	c7 80 48 00 00 01 00 	mov    DWORD PTR [eax+0x1000048],0x0
    1d42:	00 00 00 
    1d45:	8b 45 08             	mov    eax,DWORD PTR [ebp+0x8]
    1d48:	8b 00                	mov    eax,DWORD PTR [eax]
    1d4a:	c7 40 1c 00 00 00 00 	mov    DWORD PTR [eax+0x1c],0x0
    1d51:	8b 45 08             	mov    eax,DWORD PTR [ebp+0x8]
    1d54:	8b 00                	mov    eax,DWORD PTR [eax]
    1d56:	c7 40 24 00 00 00 00 	mov    DWORD PTR [eax+0x24],0x0
    1d5d:	8b 45 08             	mov    eax,DWORD PTR [ebp+0x8]
    1d60:	8b 00                	mov    eax,DWORD PTR [eax]
    1d62:	c7 40 0c 00 08 00 00 	mov    DWORD PTR [eax+0xc],0x800
    1d69:	8b 45 08             	mov    eax,DWORD PTR [ebp+0x8]
    1d6c:	8b 00                	mov    eax,DWORD PTR [eax]
    1d6e:	c7 40 14 8c 00 00 00 	mov    DWORD PTR [eax+0x14],0x8c
    1d75:	8b 45 08             	mov    eax,DWORD PTR [ebp+0x8]
    1d78:	8b 00                	mov    eax,DWORD PTR [eax]
    1d7a:	8b 40 0c             	mov    eax,DWORD PTR [eax+0xc]
    1d7d:	8b 55 08             	mov    edx,DWORD PTR [ebp+0x8]
    1d80:	8b 32                	mov    esi,DWORD PTR [edx]
    1d82:	83 ec 0c             	sub    esp,0xc
    1d85:	50                   	push   eax
    1d86:	e8 fc ff ff ff       	call   1d87 <INITIALIZED_GLOBAL_MEMORY+0xdd>
    1d8b:	83 c4 10             	add    esp,0x10
    1d8e:	89 46 08             	mov    DWORD PTR [esi+0x8],eax
    1d91:	8b 45 08             	mov    eax,DWORD PTR [ebp+0x8]
    1d94:	8b 00                	mov    eax,DWORD PTR [eax]
    1d96:	8b 40 08             	mov    eax,DWORD PTR [eax+0x8]
    1d99:	85 c0                	test   eax,eax
    1d9b:	75 07                	jne    1da4 <INITIALIZED_GLOBAL_MEMORY+0xfa>
    1d9d:	b8 02 00 00 00       	mov    eax,0x2
    1da2:	eb 72                	jmp    1e16 <INITIALIZED_GLOBAL_MEMORY+0x16c>
    1da4:	8b 45 08             	mov    eax,DWORD PTR [ebp+0x8]
    1da7:	8b 00                	mov    eax,DWORD PTR [eax]
    1da9:	8b 40 14             	mov    eax,DWORD PTR [eax+0x14]
    1dac:	8b 55 08             	mov    edx,DWORD PTR [ebp+0x8]
    1daf:	8b 32                	mov    esi,DWORD PTR [edx]
    1db1:	83 ec 0c             	sub    esp,0xc
    1db4:	50                   	push   eax
    1db5:	e8 fc ff ff ff       	call   1db6 <INITIALIZED_GLOBAL_MEMORY+0x10c>
    1dba:	83 c4 10             	add    esp,0x10
    1dbd:	89 46 10             	mov    DWORD PTR [esi+0x10],eax
    1dc0:	8b 45 08             	mov    eax,DWORD PTR [ebp+0x8]
    1dc3:	8b 00                	mov    eax,DWORD PTR [eax]
    1dc5:	8b 40 10             	mov    eax,DWORD PTR [eax+0x10]
    1dc8:	85 c0                	test   eax,eax
    1dca:	75 07                	jne    1dd3 <INITIALIZED_GLOBAL_MEMORY+0x129>
    1dcc:	b8 03 00 00 00       	mov    eax,0x3
    1dd1:	eb 43                	jmp    1e16 <INITIALIZED_GLOBAL_MEMORY+0x16c>
    1dd3:	8b 45 08             	mov    eax,DWORD PTR [ebp+0x8]
    1dd6:	8b 00                	mov    eax,DWORD PTR [eax]
    1dd8:	8b 50 0c             	mov    edx,DWORD PTR [eax+0xc]
    1ddb:	8b 45 08             	mov    eax,DWORD PTR [ebp+0x8]
    1dde:	8b 00                	mov    eax,DWORD PTR [eax]
    1de0:	8b 40 08             	mov    eax,DWORD PTR [eax+0x8]
    1de3:	83 ec 04             	sub    esp,0x4
    1de6:	52                   	push   edx
    1de7:	6a 00                	push   0x0
    1de9:	50                   	push   eax
    1dea:	e8 fc ff ff ff       	call   1deb <INITIALIZED_GLOBAL_MEMORY+0x141>
    1def:	83 c4 10             	add    esp,0x10
    1df2:	8b 45 08             	mov    eax,DWORD PTR [ebp+0x8]
    1df5:	8b 00                	mov    eax,DWORD PTR [eax]
    1df7:	8b 50 14             	mov    edx,DWORD PTR [eax+0x14]
    1dfa:	8b 45 08             	mov    eax,DWORD PTR [ebp+0x8]
    1dfd:	8b 00                	mov    eax,DWORD PTR [eax]
    1dff:	8b 40 10             	mov    eax,DWORD PTR [eax+0x10]
    1e02:	83 ec 04             	sub    esp,0x4
    1e05:	52                   	push   edx
    1e06:	6a 00                	push   0x0
    1e08:	50                   	push   eax
    1e09:	e8 fc ff ff ff       	call   1e0a <INITIALIZED_GLOBAL_MEMORY+0x160>
    1e0e:	83 c4 10             	add    esp,0x10
    1e11:	b8 00 00 00 00       	mov    eax,0x0
    1e16:	8d 65 f8             	lea    esp,[ebp-0x8]
    1e19:	5b                   	pop    ebx
    1e1a:	5e                   	pop    esi
    1e1b:	5d                   	pop    ebp
    1e1c:	c3                   	ret    

00001e1d <main>:
    1e1d:	8d 4c 24 04          	lea    ecx,[esp+0x4]
    1e21:	83 e4 f0             	and    esp,0xfffffff0
    1e24:	ff 71 fc             	push   DWORD PTR [ecx-0x4]
    1e27:	55                   	push   ebp
    1e28:	89 e5                	mov    ebp,esp
    1e2a:	57                   	push   edi
    1e2b:	56                   	push   esi
    1e2c:	53                   	push   ebx
    1e2d:	51                   	push   ecx
    1e2e:	83 ec 28             	sub    esp,0x28
    1e31:	e8 fc ff ff ff       	call   1e32 <main+0x15>
    1e36:	81 c3 02 00 00 00    	add    ebx,0x2
    1e3c:	89 ce                	mov    esi,ecx
    1e3e:	c7 45 dc 00 00 00 00 	mov    DWORD PTR [ebp-0x24],0x0
    1e45:	83 ec 0c             	sub    esp,0xc
    1e48:	6a 00                	push   0x0
    1e4a:	e8 fc ff ff ff       	call   1e4b <main+0x2e>
    1e4f:	83 c4 10             	add    esp,0x10
    1e52:	85 c0                	test   eax,eax
    1e54:	75 26                	jne    1e7c <main+0x5f>
    1e56:	8b 83 00 00 00 00    	mov    eax,DWORD PTR [ebx+0x0]
    1e5c:	8b 00                	mov    eax,DWORD PTR [eax]
    1e5e:	50                   	push   eax
    1e5f:	6a 12                	push   0x12
    1e61:	6a 01                	push   0x1
    1e63:	8d 83 12 06 00 00    	lea    eax,[ebx+0x612]
    1e69:	50                   	push   eax
    1e6a:	e8 fc ff ff ff       	call   1e6b <main+0x4e>
    1e6f:	83 c4 10             	add    esp,0x10
    1e72:	b8 01 00 00 00       	mov    eax,0x1
    1e77:	e9 c7 0f 00 00       	jmp    2e43 <.L213+0x241>
    1e7c:	c7 45 d8 4c 00 00 01 	mov    DWORD PTR [ebp-0x28],0x100004c
    1e83:	83 ec 08             	sub    esp,0x8
    1e86:	ff 75 d8             	push   DWORD PTR [ebp-0x28]
    1e89:	8d 45 c8             	lea    eax,[ebp-0x38]
    1e8c:	50                   	push   eax
    1e8d:	e8 fc ff ff ff       	call   1e8e <main+0x71>
    1e92:	83 c4 10             	add    esp,0x10
    1e95:	89 45 d4             	mov    DWORD PTR [ebp-0x2c],eax
    1e98:	83 7d d4 00          	cmp    DWORD PTR [ebp-0x2c],0x0
    1e9c:	74 36                	je     1ed4 <main+0xb7>
    1e9e:	8b 45 c8             	mov    eax,DWORD PTR [ebp-0x38]
    1ea1:	83 ec 08             	sub    esp,0x8
    1ea4:	ff 75 d8             	push   DWORD PTR [ebp-0x28]
    1ea7:	50                   	push   eax
    1ea8:	e8 53 e1 ff ff       	call   0 <free_global_memory>
    1ead:	83 c4 10             	add    esp,0x10
    1eb0:	8b 83 00 00 00 00    	mov    eax,DWORD PTR [ebx+0x0]
    1eb6:	8b 00                	mov    eax,DWORD PTR [eax]
    1eb8:	50                   	push   eax
    1eb9:	6a 1c                	push   0x1c
    1ebb:	6a 01                	push   0x1
    1ebd:	8d 83 aa 00 00 00    	lea    eax,[ebx+0xaa]
    1ec3:	50                   	push   eax
    1ec4:	e8 fc ff ff ff       	call   1ec5 <main+0xa8>
    1ec9:	83 c4 10             	add    esp,0x10
    1ecc:	8b 45 d4             	mov    eax,DWORD PTR [ebp-0x2c]
    1ecf:	e9 6f 0f 00 00       	jmp    2e43 <.L213+0x241>
    1ed4:	83 3e 01             	cmp    DWORD PTR [esi],0x1
    1ed7:	7e 71                	jle    1f4a <main+0x12d>
    1ed9:	83 3e 06             	cmp    DWORD PTR [esi],0x6
    1edc:	7f 6c                	jg     1f4a <main+0x12d>
    1ede:	c7 45 e4 01 00 00 00 	mov    DWORD PTR [ebp-0x1c],0x1
    1ee5:	eb 57                	jmp    1f3e <main+0x121>
    1ee7:	8b 45 e4             	mov    eax,DWORD PTR [ebp-0x1c]
    1eea:	8d 14 85 00 00 00 00 	lea    edx,[eax*4+0x0]
    1ef1:	8b 46 04             	mov    eax,DWORD PTR [esi+0x4]
    1ef4:	01 d0                	add    eax,edx
    1ef6:	8b 00                	mov    eax,DWORD PTR [eax]
    1ef8:	83 ec 08             	sub    esp,0x8
    1efb:	68 00 08 00 00       	push   0x800
    1f00:	50                   	push   eax
    1f01:	e8 fc ff ff ff       	call   1f02 <main+0xe5>
    1f06:	83 c4 10             	add    esp,0x10
    1f09:	3d 00 08 00 00       	cmp    eax,0x800
    1f0e:	75 2a                	jne    1f3a <main+0x11d>
    1f10:	8b 83 00 00 00 00    	mov    eax,DWORD PTR [ebx+0x0]
    1f16:	8b 00                	mov    eax,DWORD PTR [eax]
    1f18:	68 00 08 00 00       	push   0x800
    1f1d:	ff 75 e4             	push   DWORD PTR [ebp-0x1c]
    1f20:	8d 93 28 06 00 00    	lea    edx,[ebx+0x628]
    1f26:	52                   	push   edx
    1f27:	50                   	push   eax
    1f28:	e8 fc ff ff ff       	call   1f29 <main+0x10c>
    1f2d:	83 c4 10             	add    esp,0x10
    1f30:	b8 01 00 00 00       	mov    eax,0x1
    1f35:	e9 09 0f 00 00       	jmp    2e43 <.L213+0x241>
    1f3a:	83 45 e4 01          	add    DWORD PTR [ebp-0x1c],0x1
    1f3e:	8b 06                	mov    eax,DWORD PTR [esi]
    1f40:	83 e8 01             	sub    eax,0x1
    1f43:	39 45 e4             	cmp    DWORD PTR [ebp-0x1c],eax
    1f46:	7c 9f                	jl     1ee7 <main+0xca>
    1f48:	eb 31                	jmp    1f7b <main+0x15e>
    1f4a:	83 3e 01             	cmp    DWORD PTR [esi],0x1
    1f4d:	74 05                	je     1f54 <main+0x137>
    1f4f:	83 3e 06             	cmp    DWORD PTR [esi],0x6
    1f52:	7e 27                	jle    1f7b <main+0x15e>
    1f54:	8b 83 00 00 00 00    	mov    eax,DWORD PTR [ebx+0x0]
    1f5a:	8b 00                	mov    eax,DWORD PTR [eax]
    1f5c:	83 ec 04             	sub    esp,0x4
    1f5f:	ff 36                	push   DWORD PTR [esi]
    1f61:	8d 93 58 06 00 00    	lea    edx,[ebx+0x658]
    1f67:	52                   	push   edx
    1f68:	50                   	push   eax
    1f69:	e8 fc ff ff ff       	call   1f6a <main+0x14d>
    1f6e:	83 c4 10             	add    esp,0x10
    1f71:	b8 00 00 00 00       	mov    eax,0x0
    1f76:	e9 c8 0e 00 00       	jmp    2e43 <.L213+0x241>
    1f7b:	83 3e 02             	cmp    DWORD PTR [esi],0x2
    1f7e:	0f 85 e8 00 00 00    	jne    206c <main+0x24f>
    1f84:	8b 46 04             	mov    eax,DWORD PTR [esi+0x4]
    1f87:	83 c0 04             	add    eax,0x4
    1f8a:	8b 00                	mov    eax,DWORD PTR [eax]
    1f8c:	83 ec 08             	sub    esp,0x8
    1f8f:	8d 93 95 06 00 00    	lea    edx,[ebx+0x695]
    1f95:	52                   	push   edx
    1f96:	50                   	push   eax
    1f97:	e8 fc ff ff ff       	call   1f98 <main+0x17b>
    1f9c:	83 c4 10             	add    esp,0x10
    1f9f:	85 c0                	test   eax,eax
    1fa1:	74 1f                	je     1fc2 <main+0x1a5>
    1fa3:	8b 46 04             	mov    eax,DWORD PTR [esi+0x4]
    1fa6:	83 c0 04             	add    eax,0x4
    1fa9:	8b 00                	mov    eax,DWORD PTR [eax]
    1fab:	83 ec 08             	sub    esp,0x8
    1fae:	8d 93 98 06 00 00    	lea    edx,[ebx+0x698]
    1fb4:	52                   	push   edx
    1fb5:	50                   	push   eax
    1fb6:	e8 fc ff ff ff       	call   1fb7 <main+0x19a>
    1fbb:	83 c4 10             	add    esp,0x10
    1fbe:	85 c0                	test   eax,eax
    1fc0:	75 7c                	jne    203e <main+0x221>
    1fc2:	8b 83 00 00 00 00    	mov    eax,DWORD PTR [ebx+0x0]
    1fc8:	83 ec 0c             	sub    esp,0xc
    1fcb:	50                   	push   eax
    1fcc:	e8 fc ff ff ff       	call   1fcd <main+0x1b0>
    1fd1:	83 c4 10             	add    esp,0x10
    1fd4:	83 ec 0c             	sub    esp,0xc
    1fd7:	8d 83 a0 06 00 00    	lea    eax,[ebx+0x6a0]
    1fdd:	50                   	push   eax
    1fde:	e8 fc ff ff ff       	call   1fdf <main+0x1c2>
    1fe3:	83 c4 10             	add    esp,0x10
    1fe6:	83 ec 0c             	sub    esp,0xc
    1fe9:	8d 83 d0 06 00 00    	lea    eax,[ebx+0x6d0]
    1fef:	50                   	push   eax
    1ff0:	e8 fc ff ff ff       	call   1ff1 <main+0x1d4>
    1ff5:	83 c4 10             	add    esp,0x10
    1ff8:	83 ec 0c             	sub    esp,0xc
    1ffb:	8d 83 20 07 00 00    	lea    eax,[ebx+0x720]
    2001:	50                   	push   eax
    2002:	e8 fc ff ff ff       	call   2003 <main+0x1e6>
    2007:	83 c4 10             	add    esp,0x10
    200a:	83 ec 0c             	sub    esp,0xc
    200d:	8d 83 48 07 00 00    	lea    eax,[ebx+0x748]
    2013:	50                   	push   eax
    2014:	e8 fc ff ff ff       	call   2015 <main+0x1f8>
    2019:	83 c4 10             	add    esp,0x10
    201c:	8b 46 04             	mov    eax,DWORD PTR [esi+0x4]
    201f:	8b 00                	mov    eax,DWORD PTR [eax]
    2021:	83 ec 08             	sub    esp,0x8
    2024:	50                   	push   eax
    2025:	8d 83 88 07 00 00    	lea    eax,[ebx+0x788]
    202b:	50                   	push   eax
    202c:	e8 fc ff ff ff       	call   202d <main+0x210>
    2031:	83 c4 10             	add    esp,0x10
    2034:	b8 00 00 00 00       	mov    eax,0x0
    2039:	e9 05 0e 00 00       	jmp    2e43 <.L213+0x241>
    203e:	8b 46 04             	mov    eax,DWORD PTR [esi+0x4]
    2041:	83 c0 04             	add    eax,0x4
    2044:	8b 10                	mov    edx,DWORD PTR [eax]
    2046:	8b 83 00 00 00 00    	mov    eax,DWORD PTR [ebx+0x0]
    204c:	8b 00                	mov    eax,DWORD PTR [eax]
    204e:	83 ec 04             	sub    esp,0x4
    2051:	52                   	push   edx
    2052:	8d 93 dc 07 00 00    	lea    edx,[ebx+0x7dc]
    2058:	52                   	push   edx
    2059:	50                   	push   eax
    205a:	e8 fc ff ff ff       	call   205b <main+0x23e>
    205f:	83 c4 10             	add    esp,0x10
    2062:	b8 01 00 00 00       	mov    eax,0x1
    2067:	e9 d7 0d 00 00       	jmp    2e43 <.L213+0x241>
    206c:	83 3e 03             	cmp    DWORD PTR [esi],0x3
    206f:	7f 27                	jg     2098 <main+0x27b>
    2071:	8b 83 00 00 00 00    	mov    eax,DWORD PTR [ebx+0x0]
    2077:	8b 00                	mov    eax,DWORD PTR [eax]
    2079:	83 ec 04             	sub    esp,0x4
    207c:	ff 36                	push   DWORD PTR [esi]
    207e:	8d 93 58 06 00 00    	lea    edx,[ebx+0x658]
    2084:	52                   	push   edx
    2085:	50                   	push   eax
    2086:	e8 fc ff ff ff       	call   2087 <main+0x26a>
    208b:	83 c4 10             	add    esp,0x10
    208e:	b8 00 00 00 00       	mov    eax,0x0
    2093:	e9 ab 0d 00 00       	jmp    2e43 <.L213+0x241>
    2098:	8b 06                	mov    eax,DWORD PTR [esi]
    209a:	05 ff ff ff 3f       	add    eax,0x3fffffff
    209f:	8d 14 85 00 00 00 00 	lea    edx,[eax*4+0x0]
    20a6:	8b 46 04             	mov    eax,DWORD PTR [esi+0x4]
    20a9:	01 c2                	add    edx,eax
    20ab:	8b 45 c8             	mov    eax,DWORD PTR [ebp-0x38]
    20ae:	8b 12                	mov    edx,DWORD PTR [edx]
    20b0:	89 50 04             	mov    DWORD PTR [eax+0x4],edx
    20b3:	8b 06                	mov    eax,DWORD PTR [esi]
    20b5:	05 fe ff ff 3f       	add    eax,0x3ffffffe
    20ba:	8d 14 85 00 00 00 00 	lea    edx,[eax*4+0x0]
    20c1:	8b 46 04             	mov    eax,DWORD PTR [esi+0x4]
    20c4:	01 c2                	add    edx,eax
    20c6:	8b 45 c8             	mov    eax,DWORD PTR [ebp-0x38]
    20c9:	8b 12                	mov    edx,DWORD PTR [edx]
    20cb:	89 10                	mov    DWORD PTR [eax],edx
    20cd:	83 ec 04             	sub    esp,0x4
    20d0:	8d 83 12 08 00 00    	lea    eax,[ebx+0x812]
    20d6:	50                   	push   eax
    20d7:	8d 83 1b 08 00 00    	lea    eax,[ebx+0x81b]
    20dd:	50                   	push   eax
    20de:	8d 83 28 08 00 00    	lea    eax,[ebx+0x828]
    20e4:	50                   	push   eax
    20e5:	e8 fc ff ff ff       	call   20e6 <main+0x2c9>
    20ea:	83 c4 10             	add    esp,0x10
    20ed:	83 ec 08             	sub    esp,0x8
    20f0:	ff 75 d8             	push   DWORD PTR [ebp-0x28]
    20f3:	8d 83 54 08 00 00    	lea    eax,[ebx+0x854]
    20f9:	50                   	push   eax
    20fa:	e8 fc ff ff ff       	call   20fb <main+0x2de>
    20ff:	83 c4 10             	add    esp,0x10
    2102:	8b 45 c8             	mov    eax,DWORD PTR [ebp-0x38]
    2105:	83 ec 08             	sub    esp,0x8
    2108:	50                   	push   eax
    2109:	8d 83 80 08 00 00    	lea    eax,[ebx+0x880]
    210f:	50                   	push   eax
    2110:	e8 fc ff ff ff       	call   2111 <main+0x2f4>
    2115:	83 c4 10             	add    esp,0x10
    2118:	8b 45 c8             	mov    eax,DWORD PTR [ebp-0x38]
    211b:	8b 40 14             	mov    eax,DWORD PTR [eax+0x14]
    211e:	83 ec 08             	sub    esp,0x8
    2121:	50                   	push   eax
    2122:	8d 83 a8 08 00 00    	lea    eax,[ebx+0x8a8]
    2128:	50                   	push   eax
    2129:	e8 fc ff ff ff       	call   212a <main+0x30d>
    212e:	83 c4 10             	add    esp,0x10
    2131:	8b 45 c8             	mov    eax,DWORD PTR [ebp-0x38]
    2134:	8b 40 10             	mov    eax,DWORD PTR [eax+0x10]
    2137:	83 ec 08             	sub    esp,0x8
    213a:	50                   	push   eax
    213b:	8d 83 e0 08 00 00    	lea    eax,[ebx+0x8e0]
    2141:	50                   	push   eax
    2142:	e8 fc ff ff ff       	call   2143 <main+0x326>
    2147:	83 c4 10             	add    esp,0x10
    214a:	8b 45 c8             	mov    eax,DWORD PTR [ebp-0x38]
    214d:	8b 40 0c             	mov    eax,DWORD PTR [eax+0xc]
    2150:	83 ec 08             	sub    esp,0x8
    2153:	50                   	push   eax
    2154:	8d 83 10 09 00 00    	lea    eax,[ebx+0x910]
    215a:	50                   	push   eax
    215b:	e8 fc ff ff ff       	call   215c <main+0x33f>
    2160:	83 c4 10             	add    esp,0x10
    2163:	8b 45 c8             	mov    eax,DWORD PTR [ebp-0x38]
    2166:	8b 40 08             	mov    eax,DWORD PTR [eax+0x8]
    2169:	83 ec 08             	sub    esp,0x8
    216c:	50                   	push   eax
    216d:	8d 83 4c 09 00 00    	lea    eax,[ebx+0x94c]
    2173:	50                   	push   eax
    2174:	e8 fc ff ff ff       	call   2175 <main+0x358>
    2179:	83 c4 10             	add    esp,0x10
    217c:	8b 46 04             	mov    eax,DWORD PTR [esi+0x4]
    217f:	83 c0 04             	add    eax,0x4
    2182:	8b 00                	mov    eax,DWORD PTR [eax]
    2184:	83 ec 08             	sub    esp,0x8
    2187:	8d 93 88 09 00 00    	lea    edx,[ebx+0x988]
    218d:	52                   	push   edx
    218e:	50                   	push   eax
    218f:	e8 fc ff ff ff       	call   2190 <main+0x373>
    2194:	83 c4 10             	add    esp,0x10
    2197:	85 c0                	test   eax,eax
    2199:	74 1f                	je     21ba <main+0x39d>
    219b:	8b 46 04             	mov    eax,DWORD PTR [esi+0x4]
    219e:	83 c0 04             	add    eax,0x4
    21a1:	8b 00                	mov    eax,DWORD PTR [eax]
    21a3:	83 ec 08             	sub    esp,0x8
    21a6:	8d 93 8b 09 00 00    	lea    edx,[ebx+0x98b]
    21ac:	52                   	push   edx
    21ad:	50                   	push   eax
    21ae:	e8 fc ff ff ff       	call   21af <main+0x392>
    21b3:	83 c4 10             	add    esp,0x10
    21b6:	85 c0                	test   eax,eax
    21b8:	75 12                	jne    21cc <main+0x3af>
    21ba:	8b 45 c8             	mov    eax,DWORD PTR [ebp-0x38]
    21bd:	c7 80 48 00 00 01 03 	mov    DWORD PTR [eax+0x1000048],0x3
    21c4:	00 00 00 
    21c7:	e9 7d 01 00 00       	jmp    2349 <main+0x52c>
    21cc:	8b 46 04             	mov    eax,DWORD PTR [esi+0x4]
    21cf:	83 c0 04             	add    eax,0x4
    21d2:	8b 00                	mov    eax,DWORD PTR [eax]
    21d4:	83 ec 08             	sub    esp,0x8
    21d7:	8d 93 96 09 00 00    	lea    edx,[ebx+0x996]
    21dd:	52                   	push   edx
    21de:	50                   	push   eax
    21df:	e8 fc ff ff ff       	call   21e0 <main+0x3c3>
    21e4:	83 c4 10             	add    esp,0x10
    21e7:	85 c0                	test   eax,eax
    21e9:	74 1f                	je     220a <main+0x3ed>
    21eb:	8b 46 04             	mov    eax,DWORD PTR [esi+0x4]
    21ee:	83 c0 04             	add    eax,0x4
    21f1:	8b 00                	mov    eax,DWORD PTR [eax]
    21f3:	83 ec 08             	sub    esp,0x8
    21f6:	8d 93 99 09 00 00    	lea    edx,[ebx+0x999]
    21fc:	52                   	push   edx
    21fd:	50                   	push   eax
    21fe:	e8 fc ff ff ff       	call   21ff <main+0x3e2>
    2203:	83 c4 10             	add    esp,0x10
    2206:	85 c0                	test   eax,eax
    2208:	75 12                	jne    221c <main+0x3ff>
    220a:	8b 45 c8             	mov    eax,DWORD PTR [ebp-0x38]
    220d:	c7 80 48 00 00 01 04 	mov    DWORD PTR [eax+0x1000048],0x4
    2214:	00 00 00 
    2217:	e9 2d 01 00 00       	jmp    2349 <main+0x52c>
    221c:	8b 46 04             	mov    eax,DWORD PTR [esi+0x4]
    221f:	83 c0 04             	add    eax,0x4
    2222:	8b 00                	mov    eax,DWORD PTR [eax]
    2224:	83 ec 08             	sub    esp,0x8
    2227:	8d 93 a5 09 00 00    	lea    edx,[ebx+0x9a5]
    222d:	52                   	push   edx
    222e:	50                   	push   eax
    222f:	e8 fc ff ff ff       	call   2230 <main+0x413>
    2234:	83 c4 10             	add    esp,0x10
    2237:	85 c0                	test   eax,eax
    2239:	74 1f                	je     225a <main+0x43d>
    223b:	8b 46 04             	mov    eax,DWORD PTR [esi+0x4]
    223e:	83 c0 04             	add    eax,0x4
    2241:	8b 00                	mov    eax,DWORD PTR [eax]
    2243:	83 ec 08             	sub    esp,0x8
    2246:	8d 93 a8 09 00 00    	lea    edx,[ebx+0x9a8]
    224c:	52                   	push   edx
    224d:	50                   	push   eax
    224e:	e8 fc ff ff ff       	call   224f <main+0x432>
    2253:	83 c4 10             	add    esp,0x10
    2256:	85 c0                	test   eax,eax
    2258:	75 12                	jne    226c <main+0x44f>
    225a:	8b 45 c8             	mov    eax,DWORD PTR [ebp-0x38]
    225d:	c7 80 48 00 00 01 00 	mov    DWORD PTR [eax+0x1000048],0x0
    2264:	00 00 00 
    2267:	e9 dd 00 00 00       	jmp    2349 <main+0x52c>
    226c:	8b 46 04             	mov    eax,DWORD PTR [esi+0x4]
    226f:	83 c0 04             	add    eax,0x4
    2272:	8b 00                	mov    eax,DWORD PTR [eax]
    2274:	83 ec 08             	sub    esp,0x8
    2277:	8d 93 ae 09 00 00    	lea    edx,[ebx+0x9ae]
    227d:	52                   	push   edx
    227e:	50                   	push   eax
    227f:	e8 fc ff ff ff       	call   2280 <main+0x463>
    2284:	83 c4 10             	add    esp,0x10
    2287:	85 c0                	test   eax,eax
    2289:	74 1f                	je     22aa <main+0x48d>
    228b:	8b 46 04             	mov    eax,DWORD PTR [esi+0x4]
    228e:	83 c0 04             	add    eax,0x4
    2291:	8b 00                	mov    eax,DWORD PTR [eax]
    2293:	83 ec 08             	sub    esp,0x8
    2296:	8d 93 b1 09 00 00    	lea    edx,[ebx+0x9b1]
    229c:	52                   	push   edx
    229d:	50                   	push   eax
    229e:	e8 fc ff ff ff       	call   229f <main+0x482>
    22a3:	83 c4 10             	add    esp,0x10
    22a6:	85 c0                	test   eax,eax
    22a8:	75 12                	jne    22bc <main+0x49f>
    22aa:	8b 45 c8             	mov    eax,DWORD PTR [ebp-0x38]
    22ad:	c7 80 48 00 00 01 01 	mov    DWORD PTR [eax+0x1000048],0x1
    22b4:	00 00 00 
    22b7:	e9 8d 00 00 00       	jmp    2349 <main+0x52c>
    22bc:	8b 46 04             	mov    eax,DWORD PTR [esi+0x4]
    22bf:	83 c0 04             	add    eax,0x4
    22c2:	8b 00                	mov    eax,DWORD PTR [eax]
    22c4:	83 ec 08             	sub    esp,0x8
    22c7:	8d 93 bb 09 00 00    	lea    edx,[ebx+0x9bb]
    22cd:	52                   	push   edx
    22ce:	50                   	push   eax
    22cf:	e8 fc ff ff ff       	call   22d0 <main+0x4b3>
    22d4:	83 c4 10             	add    esp,0x10
    22d7:	85 c0                	test   eax,eax
    22d9:	74 1f                	je     22fa <main+0x4dd>
    22db:	8b 46 04             	mov    eax,DWORD PTR [esi+0x4]
    22de:	83 c0 04             	add    eax,0x4
    22e1:	8b 00                	mov    eax,DWORD PTR [eax]
    22e3:	83 ec 08             	sub    esp,0x8
    22e6:	8d 93 be 09 00 00    	lea    edx,[ebx+0x9be]
    22ec:	52                   	push   edx
    22ed:	50                   	push   eax
    22ee:	e8 fc ff ff ff       	call   22ef <main+0x4d2>
    22f3:	83 c4 10             	add    esp,0x10
    22f6:	85 c0                	test   eax,eax
    22f8:	75 0f                	jne    2309 <main+0x4ec>
    22fa:	8b 45 c8             	mov    eax,DWORD PTR [ebp-0x38]
    22fd:	c7 80 48 00 00 01 02 	mov    DWORD PTR [eax+0x1000048],0x2
    2304:	00 00 00 
    2307:	eb 40                	jmp    2349 <main+0x52c>
    2309:	8b 45 c8             	mov    eax,DWORD PTR [ebp-0x38]
    230c:	83 ec 08             	sub    esp,0x8
    230f:	ff 75 d8             	push   DWORD PTR [ebp-0x28]
    2312:	50                   	push   eax
    2313:	e8 e8 dc ff ff       	call   0 <free_global_memory>
    2318:	83 c4 10             	add    esp,0x10
    231b:	8b 46 04             	mov    eax,DWORD PTR [esi+0x4]
    231e:	83 c0 04             	add    eax,0x4
    2321:	8b 10                	mov    edx,DWORD PTR [eax]
    2323:	8b 83 00 00 00 00    	mov    eax,DWORD PTR [ebx+0x0]
    2329:	8b 00                	mov    eax,DWORD PTR [eax]
    232b:	83 ec 04             	sub    esp,0x4
    232e:	52                   	push   edx
    232f:	8d 93 c8 09 00 00    	lea    edx,[ebx+0x9c8]
    2335:	52                   	push   edx
    2336:	50                   	push   eax
    2337:	e8 fc ff ff ff       	call   2338 <main+0x51b>
    233c:	83 c4 10             	add    esp,0x10
    233f:	b8 01 00 00 00       	mov    eax,0x1
    2344:	e9 fa 0a 00 00       	jmp    2e43 <.L213+0x241>
    2349:	8b 46 04             	mov    eax,DWORD PTR [esi+0x4]
    234c:	83 c0 08             	add    eax,0x8
    234f:	8b 00                	mov    eax,DWORD PTR [eax]
    2351:	83 ec 08             	sub    esp,0x8
    2354:	8d 93 e9 09 00 00    	lea    edx,[ebx+0x9e9]
    235a:	52                   	push   edx
    235b:	50                   	push   eax
    235c:	e8 fc ff ff ff       	call   235d <main+0x540>
    2361:	83 c4 10             	add    esp,0x10
    2364:	85 c0                	test   eax,eax
    2366:	74 1f                	je     2387 <main+0x56a>
    2368:	8b 46 04             	mov    eax,DWORD PTR [esi+0x4]
    236b:	83 c0 08             	add    eax,0x8
    236e:	8b 00                	mov    eax,DWORD PTR [eax]
    2370:	83 ec 08             	sub    esp,0x8
    2373:	8d 93 ec 09 00 00    	lea    edx,[ebx+0x9ec]
    2379:	52                   	push   edx
    237a:	50                   	push   eax
    237b:	e8 fc ff ff ff       	call   237c <main+0x55f>
    2380:	83 c4 10             	add    esp,0x10
    2383:	85 c0                	test   eax,eax
    2385:	75 12                	jne    2399 <main+0x57c>
    2387:	8b 45 c8             	mov    eax,DWORD PTR [ebp-0x38]
    238a:	c7 80 44 00 00 01 00 	mov    DWORD PTR [eax+0x1000044],0x0
    2391:	00 00 00 
    2394:	e9 8d 00 00 00       	jmp    2426 <main+0x609>
    2399:	8b 46 04             	mov    eax,DWORD PTR [esi+0x4]
    239c:	83 c0 08             	add    eax,0x8
    239f:	8b 00                	mov    eax,DWORD PTR [eax]
    23a1:	83 ec 08             	sub    esp,0x8
    23a4:	8d 93 f6 09 00 00    	lea    edx,[ebx+0x9f6]
    23aa:	52                   	push   edx
    23ab:	50                   	push   eax
    23ac:	e8 fc ff ff ff       	call   23ad <main+0x590>
    23b1:	83 c4 10             	add    esp,0x10
    23b4:	85 c0                	test   eax,eax
    23b6:	74 1f                	je     23d7 <main+0x5ba>
    23b8:	8b 46 04             	mov    eax,DWORD PTR [esi+0x4]
    23bb:	83 c0 08             	add    eax,0x8
    23be:	8b 00                	mov    eax,DWORD PTR [eax]
    23c0:	83 ec 08             	sub    esp,0x8
    23c3:	8d 93 f9 09 00 00    	lea    edx,[ebx+0x9f9]
    23c9:	52                   	push   edx
    23ca:	50                   	push   eax
    23cb:	e8 fc ff ff ff       	call   23cc <main+0x5af>
    23d0:	83 c4 10             	add    esp,0x10
    23d3:	85 c0                	test   eax,eax
    23d5:	75 0f                	jne    23e6 <main+0x5c9>
    23d7:	8b 45 c8             	mov    eax,DWORD PTR [ebp-0x38]
    23da:	c7 80 44 00 00 01 de 	mov    DWORD PTR [eax+0x1000044],0xde
    23e1:	00 00 00 
    23e4:	eb 40                	jmp    2426 <main+0x609>
    23e6:	8b 45 c8             	mov    eax,DWORD PTR [ebp-0x38]
    23e9:	83 ec 08             	sub    esp,0x8
    23ec:	ff 75 d8             	push   DWORD PTR [ebp-0x28]
    23ef:	50                   	push   eax
    23f0:	e8 0b dc ff ff       	call   0 <free_global_memory>
    23f5:	83 c4 10             	add    esp,0x10
    23f8:	8b 46 04             	mov    eax,DWORD PTR [esi+0x4]
    23fb:	83 c0 08             	add    eax,0x8
    23fe:	8b 10                	mov    edx,DWORD PTR [eax]
    2400:	8b 83 00 00 00 00    	mov    eax,DWORD PTR [ebx+0x0]
    2406:	8b 00                	mov    eax,DWORD PTR [eax]
    2408:	83 ec 04             	sub    esp,0x4
    240b:	52                   	push   edx
    240c:	8d 93 04 0a 00 00    	lea    edx,[ebx+0xa04]
    2412:	52                   	push   edx
    2413:	50                   	push   eax
    2414:	e8 fc ff ff ff       	call   2415 <main+0x5f8>
    2419:	83 c4 10             	add    esp,0x10
    241c:	b8 01 00 00 00       	mov    eax,0x1
    2421:	e9 1d 0a 00 00       	jmp    2e43 <.L213+0x241>
    2426:	8b 45 c8             	mov    eax,DWORD PTR [ebp-0x38]
    2429:	8b 80 48 00 00 01    	mov    eax,DWORD PTR [eax+0x1000048]
    242f:	85 c0                	test   eax,eax
    2431:	74 20                	je     2453 <main+0x636>
    2433:	8b 45 c8             	mov    eax,DWORD PTR [ebp-0x38]
    2436:	8b 80 48 00 00 01    	mov    eax,DWORD PTR [eax+0x1000048]
    243c:	83 f8 01             	cmp    eax,0x1
    243f:	74 12                	je     2453 <main+0x636>
    2441:	8b 45 c8             	mov    eax,DWORD PTR [ebp-0x38]
    2444:	8b 80 48 00 00 01    	mov    eax,DWORD PTR [eax+0x1000048]
    244a:	83 f8 02             	cmp    eax,0x2
    244d:	0f 85 74 01 00 00    	jne    25c7 <main+0x7aa>
    2453:	8b 46 04             	mov    eax,DWORD PTR [esi+0x4]
    2456:	83 c0 0c             	add    eax,0xc
    2459:	8b 00                	mov    eax,DWORD PTR [eax]
    245b:	83 ec 08             	sub    esp,0x8
    245e:	8d 93 23 0a 00 00    	lea    edx,[ebx+0xa23]
    2464:	52                   	push   edx
    2465:	50                   	push   eax
    2466:	e8 fc ff ff ff       	call   2467 <main+0x64a>
    246b:	83 c4 10             	add    esp,0x10
    246e:	85 c0                	test   eax,eax
    2470:	74 1f                	je     2491 <main+0x674>
    2472:	8b 46 04             	mov    eax,DWORD PTR [esi+0x4]
    2475:	83 c0 0c             	add    eax,0xc
    2478:	8b 00                	mov    eax,DWORD PTR [eax]
    247a:	83 ec 08             	sub    esp,0x8
    247d:	8d 93 26 0a 00 00    	lea    edx,[ebx+0xa26]
    2483:	52                   	push   edx
    2484:	50                   	push   eax
    2485:	e8 fc ff ff ff       	call   2486 <main+0x669>
    248a:	83 c4 10             	add    esp,0x10
    248d:	85 c0                	test   eax,eax
    248f:	75 28                	jne    24b9 <main+0x69c>
    2491:	8b 45 c8             	mov    eax,DWORD PTR [ebp-0x38]
    2494:	8b 80 48 00 00 01    	mov    eax,DWORD PTR [eax+0x1000048]
    249a:	85 c0                	test   eax,eax
    249c:	75 0c                	jne    24aa <main+0x68d>
    249e:	8b 83 00 00 00 00    	mov    eax,DWORD PTR [ebx+0x0]
    24a4:	c7 00 0a 00 00 00    	mov    DWORD PTR [eax],0xa
    24aa:	8b 45 c8             	mov    eax,DWORD PTR [ebp-0x38]
    24ad:	c7 40 24 80 00 00 00 	mov    DWORD PTR [eax+0x24],0x80
    24b4:	e9 09 01 00 00       	jmp    25c2 <main+0x7a5>
    24b9:	8b 46 04             	mov    eax,DWORD PTR [esi+0x4]
    24bc:	83 c0 0c             	add    eax,0xc
    24bf:	8b 00                	mov    eax,DWORD PTR [eax]
    24c1:	83 ec 08             	sub    esp,0x8
    24c4:	8d 93 88 09 00 00    	lea    edx,[ebx+0x988]
    24ca:	52                   	push   edx
    24cb:	50                   	push   eax
    24cc:	e8 fc ff ff ff       	call   24cd <main+0x6b0>
    24d1:	83 c4 10             	add    esp,0x10
    24d4:	85 c0                	test   eax,eax
    24d6:	74 1f                	je     24f7 <main+0x6da>
    24d8:	8b 46 04             	mov    eax,DWORD PTR [esi+0x4]
    24db:	83 c0 0c             	add    eax,0xc
    24de:	8b 00                	mov    eax,DWORD PTR [eax]
    24e0:	83 ec 08             	sub    esp,0x8
    24e3:	8d 93 2c 0a 00 00    	lea    edx,[ebx+0xa2c]
    24e9:	52                   	push   edx
    24ea:	50                   	push   eax
    24eb:	e8 fc ff ff ff       	call   24ec <main+0x6cf>
    24f0:	83 c4 10             	add    esp,0x10
    24f3:	85 c0                	test   eax,eax
    24f5:	75 28                	jne    251f <main+0x702>
    24f7:	8b 45 c8             	mov    eax,DWORD PTR [ebp-0x38]
    24fa:	8b 80 48 00 00 01    	mov    eax,DWORD PTR [eax+0x1000048]
    2500:	85 c0                	test   eax,eax
    2502:	75 0c                	jne    2510 <main+0x6f3>
    2504:	8b 83 00 00 00 00    	mov    eax,DWORD PTR [ebx+0x0]
    250a:	c7 00 0c 00 00 00    	mov    DWORD PTR [eax],0xc
    2510:	8b 45 c8             	mov    eax,DWORD PTR [ebp-0x38]
    2513:	c7 40 24 c0 00 00 00 	mov    DWORD PTR [eax+0x24],0xc0
    251a:	e9 a3 00 00 00       	jmp    25c2 <main+0x7a5>
    251f:	8b 46 04             	mov    eax,DWORD PTR [esi+0x4]
    2522:	83 c0 0c             	add    eax,0xc
    2525:	8b 00                	mov    eax,DWORD PTR [eax]
    2527:	83 ec 08             	sub    esp,0x8
    252a:	8d 93 32 0a 00 00    	lea    edx,[ebx+0xa32]
    2530:	52                   	push   edx
    2531:	50                   	push   eax
    2532:	e8 fc ff ff ff       	call   2533 <main+0x716>
    2537:	83 c4 10             	add    esp,0x10
    253a:	85 c0                	test   eax,eax
    253c:	74 1f                	je     255d <main+0x740>
    253e:	8b 46 04             	mov    eax,DWORD PTR [esi+0x4]
    2541:	83 c0 0c             	add    eax,0xc
    2544:	8b 00                	mov    eax,DWORD PTR [eax]
    2546:	83 ec 08             	sub    esp,0x8
    2549:	8d 93 35 0a 00 00    	lea    edx,[ebx+0xa35]
    254f:	52                   	push   edx
    2550:	50                   	push   eax
    2551:	e8 fc ff ff ff       	call   2552 <main+0x735>
    2556:	83 c4 10             	add    esp,0x10
    2559:	85 c0                	test   eax,eax
    255b:	75 25                	jne    2582 <main+0x765>
    255d:	8b 45 c8             	mov    eax,DWORD PTR [ebp-0x38]
    2560:	8b 80 48 00 00 01    	mov    eax,DWORD PTR [eax+0x1000048]
    2566:	85 c0                	test   eax,eax
    2568:	75 0c                	jne    2576 <main+0x759>
    256a:	8b 83 00 00 00 00    	mov    eax,DWORD PTR [ebx+0x0]
    2570:	c7 00 0e 00 00 00    	mov    DWORD PTR [eax],0xe
    2576:	8b 45 c8             	mov    eax,DWORD PTR [ebp-0x38]
    2579:	c7 40 24 00 01 00 00 	mov    DWORD PTR [eax+0x24],0x100
    2580:	eb 40                	jmp    25c2 <main+0x7a5>
    2582:	8b 45 c8             	mov    eax,DWORD PTR [ebp-0x38]
    2585:	83 ec 08             	sub    esp,0x8
    2588:	ff 75 d8             	push   DWORD PTR [ebp-0x28]
    258b:	50                   	push   eax
    258c:	e8 6f da ff ff       	call   0 <free_global_memory>
    2591:	83 c4 10             	add    esp,0x10
    2594:	8b 46 04             	mov    eax,DWORD PTR [esi+0x4]
    2597:	83 c0 0c             	add    eax,0xc
    259a:	8b 10                	mov    edx,DWORD PTR [eax]
    259c:	8b 83 00 00 00 00    	mov    eax,DWORD PTR [ebx+0x0]
    25a2:	8b 00                	mov    eax,DWORD PTR [eax]
    25a4:	83 ec 04             	sub    esp,0x4
    25a7:	52                   	push   edx
    25a8:	8d 93 3c 0a 00 00    	lea    edx,[ebx+0xa3c]
    25ae:	52                   	push   edx
    25af:	50                   	push   eax
    25b0:	e8 fc ff ff ff       	call   25b1 <main+0x794>
    25b5:	83 c4 10             	add    esp,0x10
    25b8:	b8 01 00 00 00       	mov    eax,0x1
    25bd:	e9 81 08 00 00       	jmp    2e43 <.L213+0x241>
    25c2:	e9 53 01 00 00       	jmp    271a <main+0x8fd>
    25c7:	8b 45 c8             	mov    eax,DWORD PTR [ebp-0x38]
    25ca:	8b 80 48 00 00 01    	mov    eax,DWORD PTR [eax+0x1000048]
    25d0:	83 f8 03             	cmp    eax,0x3
    25d3:	75 0f                	jne    25e4 <main+0x7c7>
    25d5:	8b 45 c8             	mov    eax,DWORD PTR [ebp-0x38]
    25d8:	c7 40 24 c0 01 00 00 	mov    DWORD PTR [eax+0x24],0x1c0
    25df:	e9 36 01 00 00       	jmp    271a <main+0x8fd>
    25e4:	8b 45 c8             	mov    eax,DWORD PTR [ebp-0x38]
    25e7:	8b 80 48 00 00 01    	mov    eax,DWORD PTR [eax+0x1000048]
    25ed:	83 f8 04             	cmp    eax,0x4
    25f0:	0f 85 24 01 00 00    	jne    271a <main+0x8fd>
    25f6:	8b 46 04             	mov    eax,DWORD PTR [esi+0x4]
    25f9:	83 c0 0c             	add    eax,0xc
    25fc:	8b 00                	mov    eax,DWORD PTR [eax]
    25fe:	83 ec 08             	sub    esp,0x8
    2601:	8d 93 23 0a 00 00    	lea    edx,[ebx+0xa23]
    2607:	52                   	push   edx
    2608:	50                   	push   eax
    2609:	e8 fc ff ff ff       	call   260a <main+0x7ed>
    260e:	83 c4 10             	add    esp,0x10
    2611:	85 c0                	test   eax,eax
    2613:	74 1f                	je     2634 <main+0x817>
    2615:	8b 46 04             	mov    eax,DWORD PTR [esi+0x4]
    2618:	83 c0 0c             	add    eax,0xc
    261b:	8b 00                	mov    eax,DWORD PTR [eax]
    261d:	83 ec 08             	sub    esp,0x8
    2620:	8d 93 35 0a 00 00    	lea    edx,[ebx+0xa35]
    2626:	52                   	push   edx
    2627:	50                   	push   eax
    2628:	e8 fc ff ff ff       	call   2629 <main+0x80c>
    262d:	83 c4 10             	add    esp,0x10
    2630:	85 c0                	test   eax,eax
    2632:	75 0f                	jne    2643 <main+0x826>
    2634:	8b 45 c8             	mov    eax,DWORD PTR [ebp-0x38]
    2637:	c7 40 24 00 01 00 00 	mov    DWORD PTR [eax+0x24],0x100
    263e:	e9 d7 00 00 00       	jmp    271a <main+0x8fd>
    2643:	8b 46 04             	mov    eax,DWORD PTR [esi+0x4]
    2646:	83 c0 0c             	add    eax,0xc
    2649:	8b 00                	mov    eax,DWORD PTR [eax]
    264b:	83 ec 08             	sub    esp,0x8
    264e:	8d 93 88 09 00 00    	lea    edx,[ebx+0x988]
    2654:	52                   	push   edx
    2655:	50                   	push   eax
    2656:	e8 fc ff ff ff       	call   2657 <main+0x83a>
    265b:	83 c4 10             	add    esp,0x10
    265e:	85 c0                	test   eax,eax
    2660:	74 1f                	je     2681 <main+0x864>
    2662:	8b 46 04             	mov    eax,DWORD PTR [esi+0x4]
    2665:	83 c0 0c             	add    eax,0xc
    2668:	8b 00                	mov    eax,DWORD PTR [eax]
    266a:	83 ec 08             	sub    esp,0x8
    266d:	8d 93 5c 0a 00 00    	lea    edx,[ebx+0xa5c]
    2673:	52                   	push   edx
    2674:	50                   	push   eax
    2675:	e8 fc ff ff ff       	call   2676 <main+0x859>
    267a:	83 c4 10             	add    esp,0x10
    267d:	85 c0                	test   eax,eax
    267f:	75 0f                	jne    2690 <main+0x873>
    2681:	8b 45 c8             	mov    eax,DWORD PTR [ebp-0x38]
    2684:	c7 40 24 00 02 00 00 	mov    DWORD PTR [eax+0x24],0x200
    268b:	e9 8a 00 00 00       	jmp    271a <main+0x8fd>
    2690:	8b 46 04             	mov    eax,DWORD PTR [esi+0x4]
    2693:	83 c0 0c             	add    eax,0xc
    2696:	8b 00                	mov    eax,DWORD PTR [eax]
    2698:	83 ec 08             	sub    esp,0x8
    269b:	8d 93 32 0a 00 00    	lea    edx,[ebx+0xa32]
    26a1:	52                   	push   edx
    26a2:	50                   	push   eax
    26a3:	e8 fc ff ff ff       	call   26a4 <main+0x887>
    26a8:	83 c4 10             	add    esp,0x10
    26ab:	85 c0                	test   eax,eax
    26ad:	74 1f                	je     26ce <main+0x8b1>
    26af:	8b 46 04             	mov    eax,DWORD PTR [esi+0x4]
    26b2:	83 c0 0c             	add    eax,0xc
    26b5:	8b 00                	mov    eax,DWORD PTR [eax]
    26b7:	83 ec 08             	sub    esp,0x8
    26ba:	8d 93 62 0a 00 00    	lea    edx,[ebx+0xa62]
    26c0:	52                   	push   edx
    26c1:	50                   	push   eax
    26c2:	e8 fc ff ff ff       	call   26c3 <main+0x8a6>
    26c7:	83 c4 10             	add    esp,0x10
    26ca:	85 c0                	test   eax,eax
    26cc:	75 0c                	jne    26da <main+0x8bd>
    26ce:	8b 45 c8             	mov    eax,DWORD PTR [ebp-0x38]
    26d1:	c7 40 24 00 04 00 00 	mov    DWORD PTR [eax+0x24],0x400
    26d8:	eb 40                	jmp    271a <main+0x8fd>
    26da:	8b 45 c8             	mov    eax,DWORD PTR [ebp-0x38]
    26dd:	83 ec 08             	sub    esp,0x8
    26e0:	ff 75 d8             	push   DWORD PTR [ebp-0x28]
    26e3:	50                   	push   eax
    26e4:	e8 17 d9 ff ff       	call   0 <free_global_memory>
    26e9:	83 c4 10             	add    esp,0x10
    26ec:	8b 46 04             	mov    eax,DWORD PTR [esi+0x4]
    26ef:	83 c0 0c             	add    eax,0xc
    26f2:	8b 10                	mov    edx,DWORD PTR [eax]
    26f4:	8b 83 00 00 00 00    	mov    eax,DWORD PTR [ebx+0x0]
    26fa:	8b 00                	mov    eax,DWORD PTR [eax]
    26fc:	83 ec 04             	sub    esp,0x4
    26ff:	52                   	push   edx
    2700:	8d 93 3c 0a 00 00    	lea    edx,[ebx+0xa3c]
    2706:	52                   	push   edx
    2707:	50                   	push   eax
    2708:	e8 fc ff ff ff       	call   2709 <main+0x8ec>
    270d:	83 c4 10             	add    esp,0x10
    2710:	b8 01 00 00 00       	mov    eax,0x1
    2715:	e9 29 07 00 00       	jmp    2e43 <.L213+0x241>
    271a:	8b 45 c8             	mov    eax,DWORD PTR [ebp-0x38]
    271d:	83 ec 0c             	sub    esp,0xc
    2720:	50                   	push   eax
    2721:	e8 fc ff ff ff       	call   2722 <main+0x905>
    2726:	83 c4 10             	add    esp,0x10
    2729:	85 c0                	test   eax,eax
    272b:	74 1c                	je     2749 <main+0x92c>
    272d:	8b 45 c8             	mov    eax,DWORD PTR [ebp-0x38]
    2730:	83 ec 08             	sub    esp,0x8
    2733:	ff 75 d8             	push   DWORD PTR [ebp-0x28]
    2736:	50                   	push   eax
    2737:	e8 c4 d8 ff ff       	call   0 <free_global_memory>
    273c:	83 c4 10             	add    esp,0x10
    273f:	b8 01 00 00 00       	mov    eax,0x1
    2744:	e9 fa 06 00 00       	jmp    2e43 <.L213+0x241>
    2749:	8b 45 c8             	mov    eax,DWORD PTR [ebp-0x38]
    274c:	8b 50 04             	mov    edx,DWORD PTR [eax+0x4]
    274f:	8b 45 c8             	mov    eax,DWORD PTR [ebp-0x38]
    2752:	8b 00                	mov    eax,DWORD PTR [eax]
    2754:	83 ec 08             	sub    esp,0x8
    2757:	52                   	push   edx
    2758:	50                   	push   eax
    2759:	e8 fc ff ff ff       	call   275a <main+0x93d>
    275e:	83 c4 10             	add    esp,0x10
    2761:	85 c0                	test   eax,eax
    2763:	75 38                	jne    279d <main+0x980>
    2765:	8b 45 c8             	mov    eax,DWORD PTR [ebp-0x38]
    2768:	83 ec 08             	sub    esp,0x8
    276b:	ff 75 d8             	push   DWORD PTR [ebp-0x28]
    276e:	50                   	push   eax
    276f:	e8 8c d8 ff ff       	call   0 <free_global_memory>
    2774:	83 c4 10             	add    esp,0x10
    2777:	8b 83 00 00 00 00    	mov    eax,DWORD PTR [ebx+0x0]
    277d:	8b 00                	mov    eax,DWORD PTR [eax]
    277f:	50                   	push   eax
    2780:	6a 28                	push   0x28
    2782:	6a 01                	push   0x1
    2784:	8d 83 6c 0a 00 00    	lea    eax,[ebx+0xa6c]
    278a:	50                   	push   eax
    278b:	e8 fc ff ff ff       	call   278c <main+0x96f>
    2790:	83 c4 10             	add    esp,0x10
    2793:	b8 01 00 00 00       	mov    eax,0x1
    2798:	e9 a6 06 00 00       	jmp    2e43 <.L213+0x241>
    279d:	8b 45 c8             	mov    eax,DWORD PTR [ebp-0x38]
    27a0:	8b 50 08             	mov    edx,DWORD PTR [eax+0x8]
    27a3:	8b 45 c8             	mov    eax,DWORD PTR [ebp-0x38]
    27a6:	8b 40 04             	mov    eax,DWORD PTR [eax+0x4]
    27a9:	83 ec 08             	sub    esp,0x8
    27ac:	52                   	push   edx
    27ad:	50                   	push   eax
    27ae:	e8 fc ff ff ff       	call   27af <main+0x992>
    27b3:	83 c4 10             	add    esp,0x10
    27b6:	85 c0                	test   eax,eax
    27b8:	75 38                	jne    27f2 <main+0x9d5>
    27ba:	8b 45 c8             	mov    eax,DWORD PTR [ebp-0x38]
    27bd:	83 ec 08             	sub    esp,0x8
    27c0:	ff 75 d8             	push   DWORD PTR [ebp-0x28]
    27c3:	50                   	push   eax
    27c4:	e8 37 d8 ff ff       	call   0 <free_global_memory>
    27c9:	83 c4 10             	add    esp,0x10
    27cc:	8b 83 00 00 00 00    	mov    eax,DWORD PTR [ebx+0x0]
    27d2:	8b 00                	mov    eax,DWORD PTR [eax]
    27d4:	50                   	push   eax
    27d5:	6a 2a                	push   0x2a
    27d7:	6a 01                	push   0x1
    27d9:	8d 83 98 0a 00 00    	lea    eax,[ebx+0xa98]
    27df:	50                   	push   eax
    27e0:	e8 fc ff ff ff       	call   27e1 <main+0x9c4>
    27e5:	83 c4 10             	add    esp,0x10
    27e8:	b8 01 00 00 00       	mov    eax,0x1
    27ed:	e9 51 06 00 00       	jmp    2e43 <.L213+0x241>
    27f2:	8b 45 c8             	mov    eax,DWORD PTR [ebp-0x38]
    27f5:	8b 50 08             	mov    edx,DWORD PTR [eax+0x8]
    27f8:	8b 45 c8             	mov    eax,DWORD PTR [ebp-0x38]
    27fb:	8b 00                	mov    eax,DWORD PTR [eax]
    27fd:	83 ec 08             	sub    esp,0x8
    2800:	52                   	push   edx
    2801:	50                   	push   eax
    2802:	e8 fc ff ff ff       	call   2803 <main+0x9e6>
    2807:	83 c4 10             	add    esp,0x10
    280a:	85 c0                	test   eax,eax
    280c:	75 38                	jne    2846 <main+0xa29>
    280e:	8b 45 c8             	mov    eax,DWORD PTR [ebp-0x38]
    2811:	83 ec 08             	sub    esp,0x8
    2814:	ff 75 d8             	push   DWORD PTR [ebp-0x28]
    2817:	50                   	push   eax
    2818:	e8 e3 d7 ff ff       	call   0 <free_global_memory>
    281d:	83 c4 10             	add    esp,0x10
    2820:	8b 83 00 00 00 00    	mov    eax,DWORD PTR [ebx+0x0]
    2826:	8b 00                	mov    eax,DWORD PTR [eax]
    2828:	50                   	push   eax
    2829:	6a 29                	push   0x29
    282b:	6a 01                	push   0x1
    282d:	8d 83 c4 0a 00 00    	lea    eax,[ebx+0xac4]
    2833:	50                   	push   eax
    2834:	e8 fc ff ff ff       	call   2835 <main+0xa18>
    2839:	83 c4 10             	add    esp,0x10
    283c:	b8 01 00 00 00       	mov    eax,0x1
    2841:	e9 fd 05 00 00       	jmp    2e43 <.L213+0x241>
    2846:	8b 45 c8             	mov    eax,DWORD PTR [ebp-0x38]
    2849:	8b 00                	mov    eax,DWORD PTR [eax]
    284b:	83 ec 08             	sub    esp,0x8
    284e:	50                   	push   eax
    284f:	8d 83 f0 0a 00 00    	lea    eax,[ebx+0xaf0]
    2855:	50                   	push   eax
    2856:	e8 fc ff ff ff       	call   2857 <main+0xa3a>
    285b:	83 c4 10             	add    esp,0x10
    285e:	8b 45 c8             	mov    eax,DWORD PTR [ebp-0x38]
    2861:	8b 40 04             	mov    eax,DWORD PTR [eax+0x4]
    2864:	83 ec 08             	sub    esp,0x8
    2867:	50                   	push   eax
    2868:	8d 83 14 0b 00 00    	lea    eax,[ebx+0xb14]
    286e:	50                   	push   eax
    286f:	e8 fc ff ff ff       	call   2870 <main+0xa53>
    2874:	83 c4 10             	add    esp,0x10
    2877:	8b 45 c8             	mov    eax,DWORD PTR [ebp-0x38]
    287a:	8b 40 08             	mov    eax,DWORD PTR [eax+0x8]
    287d:	83 ec 08             	sub    esp,0x8
    2880:	50                   	push   eax
    2881:	8d 83 38 0b 00 00    	lea    eax,[ebx+0xb38]
    2887:	50                   	push   eax
    2888:	e8 fc ff ff ff       	call   2889 <main+0xa6c>
    288d:	83 c4 10             	add    esp,0x10
    2890:	8b 45 c8             	mov    eax,DWORD PTR [ebp-0x38]
    2893:	8b 80 48 00 00 01    	mov    eax,DWORD PTR [eax+0x1000048]
    2899:	8b 84 83 28 00 00 00 	mov    eax,DWORD PTR [ebx+eax*4+0x28]
    28a0:	83 ec 08             	sub    esp,0x8
    28a3:	50                   	push   eax
    28a4:	8d 83 59 0b 00 00    	lea    eax,[ebx+0xb59]
    28aa:	50                   	push   eax
    28ab:	e8 fc ff ff ff       	call   28ac <main+0xa8f>
    28b0:	83 c4 10             	add    esp,0x10
    28b3:	83 ec 0c             	sub    esp,0xc
    28b6:	8d 83 70 0b 00 00    	lea    eax,[ebx+0xb70]
    28bc:	50                   	push   eax
    28bd:	e8 fc ff ff ff       	call   28be <main+0xaa1>
    28c2:	83 c4 10             	add    esp,0x10
    28c5:	8b 45 c8             	mov    eax,DWORD PTR [ebp-0x38]
    28c8:	8b 40 24             	mov    eax,DWORD PTR [eax+0x24]
    28cb:	83 ec 08             	sub    esp,0x8
    28ce:	50                   	push   eax
    28cf:	8d 83 9c 0b 00 00    	lea    eax,[ebx+0xb9c]
    28d5:	50                   	push   eax
    28d6:	e8 fc ff ff ff       	call   28d7 <main+0xaba>
    28db:	83 c4 10             	add    esp,0x10
    28de:	8b 45 c8             	mov    eax,DWORD PTR [ebp-0x38]
    28e1:	8b 80 44 00 00 01    	mov    eax,DWORD PTR [eax+0x1000044]
    28e7:	85 c0                	test   eax,eax
    28e9:	0f 95 c0             	setne  al
    28ec:	0f b6 c0             	movzx  eax,al
    28ef:	8b 84 83 20 00 00 00 	mov    eax,DWORD PTR [ebx+eax*4+0x20]
    28f6:	83 ec 08             	sub    esp,0x8
    28f9:	50                   	push   eax
    28fa:	8d 83 b9 0b 00 00    	lea    eax,[ebx+0xbb9]
    2900:	50                   	push   eax
    2901:	e8 fc ff ff ff       	call   2902 <main+0xae5>
    2906:	83 c4 10             	add    esp,0x10
    2909:	8b 45 c8             	mov    eax,DWORD PTR [ebp-0x38]
    290c:	8b 50 24             	mov    edx,DWORD PTR [eax+0x24]
    290f:	8b 45 c8             	mov    eax,DWORD PTR [ebp-0x38]
    2912:	c1 ea 03             	shr    edx,0x3
    2915:	89 50 24             	mov    DWORD PTR [eax+0x24],edx
    2918:	8b 45 c8             	mov    eax,DWORD PTR [ebp-0x38]
    291b:	8b 40 24             	mov    eax,DWORD PTR [eax+0x24]
    291e:	8b 75 c8             	mov    esi,DWORD PTR [ebp-0x38]
    2921:	83 ec 08             	sub    esp,0x8
    2924:	6a 01                	push   0x1
    2926:	50                   	push   eax
    2927:	e8 fc ff ff ff       	call   2928 <main+0xb0b>
    292c:	83 c4 10             	add    esp,0x10
    292f:	89 46 20             	mov    DWORD PTR [esi+0x20],eax
    2932:	8b 45 c8             	mov    eax,DWORD PTR [ebp-0x38]
    2935:	8b 40 20             	mov    eax,DWORD PTR [eax+0x20]
    2938:	85 c0                	test   eax,eax
    293a:	75 38                	jne    2974 <main+0xb57>
    293c:	8b 45 c8             	mov    eax,DWORD PTR [ebp-0x38]
    293f:	83 ec 08             	sub    esp,0x8
    2942:	ff 75 d8             	push   DWORD PTR [ebp-0x28]
    2945:	50                   	push   eax
    2946:	e8 b5 d6 ff ff       	call   0 <free_global_memory>
    294b:	83 c4 10             	add    esp,0x10
    294e:	8b 83 00 00 00 00    	mov    eax,DWORD PTR [ebx+0x0]
    2954:	8b 00                	mov    eax,DWORD PTR [eax]
    2956:	50                   	push   eax
    2957:	6a 1c                	push   0x1c
    2959:	6a 01                	push   0x1
    295b:	8d 83 aa 00 00 00    	lea    eax,[ebx+0xaa]
    2961:	50                   	push   eax
    2962:	e8 fc ff ff ff       	call   2963 <main+0xb46>
    2967:	83 c4 10             	add    esp,0x10
    296a:	b8 01 00 00 00       	mov    eax,0x1
    296f:	e9 cf 04 00 00       	jmp    2e43 <.L213+0x241>
    2974:	8b 45 c8             	mov    eax,DWORD PTR [ebp-0x38]
    2977:	8b 40 24             	mov    eax,DWORD PTR [eax+0x24]
    297a:	83 ec 08             	sub    esp,0x8
    297d:	50                   	push   eax
    297e:	8d 83 d0 0b 00 00    	lea    eax,[ebx+0xbd0]
    2984:	50                   	push   eax
    2985:	e8 fc ff ff ff       	call   2986 <main+0xb69>
    298a:	83 c4 10             	add    esp,0x10
    298d:	8b 45 c8             	mov    eax,DWORD PTR [ebp-0x38]
    2990:	8b 40 20             	mov    eax,DWORD PTR [eax+0x20]
    2993:	83 ec 08             	sub    esp,0x8
    2996:	50                   	push   eax
    2997:	8d 83 f8 0b 00 00    	lea    eax,[ebx+0xbf8]
    299d:	50                   	push   eax
    299e:	e8 fc ff ff ff       	call   299f <main+0xb82>
    29a3:	83 c4 10             	add    esp,0x10
    29a6:	8b 45 c8             	mov    eax,DWORD PTR [ebp-0x38]
    29a9:	8b 48 24             	mov    ecx,DWORD PTR [eax+0x24]
    29ac:	8b 45 c8             	mov    eax,DWORD PTR [ebp-0x38]
    29af:	8b 50 20             	mov    edx,DWORD PTR [eax+0x20]
    29b2:	8b 45 c8             	mov    eax,DWORD PTR [ebp-0x38]
    29b5:	8b 40 08             	mov    eax,DWORD PTR [eax+0x8]
    29b8:	83 ec 04             	sub    esp,0x4
    29bb:	51                   	push   ecx
    29bc:	52                   	push   edx
    29bd:	50                   	push   eax
    29be:	e8 fc ff ff ff       	call   29bf <main+0xba2>
    29c3:	83 c4 10             	add    esp,0x10
    29c6:	89 45 e0             	mov    DWORD PTR [ebp-0x20],eax
    29c9:	8b 45 c8             	mov    eax,DWORD PTR [ebp-0x38]
    29cc:	8b 40 24             	mov    eax,DWORD PTR [eax+0x24]
    29cf:	39 45 e0             	cmp    DWORD PTR [ebp-0x20],eax
    29d2:	75 1e                	jne    29f2 <main+0xbd5>
    29d4:	8b 45 c8             	mov    eax,DWORD PTR [ebp-0x38]
    29d7:	8b 40 08             	mov    eax,DWORD PTR [eax+0x8]
    29da:	83 ec 08             	sub    esp,0x8
    29dd:	50                   	push   eax
    29de:	8d 83 1c 0c 00 00    	lea    eax,[ebx+0xc1c]
    29e4:	50                   	push   eax
    29e5:	e8 fc ff ff ff       	call   29e6 <main+0xbc9>
    29ea:	83 c4 10             	add    esp,0x10
    29ed:	e9 27 01 00 00       	jmp    2b19 <main+0xcfc>
    29f2:	83 7d e0 00          	cmp    DWORD PTR [ebp-0x20],0x0
    29f6:	7e 43                	jle    2a3b <main+0xc1e>
    29f8:	8b 45 c8             	mov    eax,DWORD PTR [ebp-0x38]
    29fb:	8b 40 24             	mov    eax,DWORD PTR [eax+0x24]
    29fe:	39 45 e0             	cmp    DWORD PTR [ebp-0x20],eax
    2a01:	7d 38                	jge    2a3b <main+0xc1e>
    2a03:	8b 45 c8             	mov    eax,DWORD PTR [ebp-0x38]
    2a06:	8b 40 24             	mov    eax,DWORD PTR [eax+0x24]
    2a09:	83 ec 04             	sub    esp,0x4
    2a0c:	50                   	push   eax
    2a0d:	ff 75 e0             	push   DWORD PTR [ebp-0x20]
    2a10:	8d 83 40 0c 00 00    	lea    eax,[ebx+0xc40]
    2a16:	50                   	push   eax
    2a17:	e8 fc ff ff ff       	call   2a18 <main+0xbfb>
    2a1c:	83 c4 10             	add    esp,0x10
    2a1f:	8b 45 c8             	mov    eax,DWORD PTR [ebp-0x38]
    2a22:	83 ec 08             	sub    esp,0x8
    2a25:	ff 75 d8             	push   DWORD PTR [ebp-0x28]
    2a28:	50                   	push   eax
    2a29:	e8 d2 d5 ff ff       	call   0 <free_global_memory>
    2a2e:	83 c4 10             	add    esp,0x10
    2a31:	b8 01 00 00 00       	mov    eax,0x1
    2a36:	e9 08 04 00 00       	jmp    2e43 <.L213+0x241>
    2a3b:	83 7d e0 00          	cmp    DWORD PTR [ebp-0x20],0x0
    2a3f:	74 0a                	je     2a4b <main+0xc2e>
    2a41:	83 7d e0 ff          	cmp    DWORD PTR [ebp-0x20],0xffffffff
    2a45:	0f 85 ce 00 00 00    	jne    2b19 <main+0xcfc>
    2a4b:	8b 45 c8             	mov    eax,DWORD PTR [ebp-0x38]
    2a4e:	8b 40 08             	mov    eax,DWORD PTR [eax+0x8]
    2a51:	83 ec 08             	sub    esp,0x8
    2a54:	68 00 01 00 00       	push   0x100
    2a59:	50                   	push   eax
    2a5a:	e8 fc ff ff ff       	call   2a5b <main+0xc3e>
    2a5f:	83 c4 10             	add    esp,0x10
    2a62:	89 45 e0             	mov    DWORD PTR [ebp-0x20],eax
    2a65:	83 7d e0 07          	cmp    DWORD PTR [ebp-0x20],0x7
    2a69:	7e 74                	jle    2adf <main+0xcc2>
    2a6b:	81 7d e0 00 01 00 00 	cmp    DWORD PTR [ebp-0x20],0x100
    2a72:	7f 6b                	jg     2adf <main+0xcc2>
    2a74:	8b 45 c8             	mov    eax,DWORD PTR [ebp-0x38]
    2a77:	8b 78 24             	mov    edi,DWORD PTR [eax+0x24]
    2a7a:	8b 45 c8             	mov    eax,DWORD PTR [ebp-0x38]
    2a7d:	8b 70 20             	mov    esi,DWORD PTR [eax+0x20]
    2a80:	8b 4d e0             	mov    ecx,DWORD PTR [ebp-0x20]
    2a83:	8b 45 c8             	mov    eax,DWORD PTR [ebp-0x38]
    2a86:	8b 50 08             	mov    edx,DWORD PTR [eax+0x8]
    2a89:	8b 45 c8             	mov    eax,DWORD PTR [ebp-0x38]
    2a8c:	83 ec 0c             	sub    esp,0xc
    2a8f:	57                   	push   edi
    2a90:	56                   	push   esi
    2a91:	51                   	push   ecx
    2a92:	52                   	push   edx
    2a93:	50                   	push   eax
    2a94:	e8 f4 da ff ff       	call   58d <KDFCLOMUL>
    2a99:	83 c4 20             	add    esp,0x20
    2a9c:	8b 45 c8             	mov    eax,DWORD PTR [ebp-0x38]
    2a9f:	8b 50 0c             	mov    edx,DWORD PTR [eax+0xc]
    2aa2:	8b 45 c8             	mov    eax,DWORD PTR [ebp-0x38]
    2aa5:	8b 40 08             	mov    eax,DWORD PTR [eax+0x8]
    2aa8:	83 ec 04             	sub    esp,0x4
    2aab:	52                   	push   edx
    2aac:	6a 00                	push   0x0
    2aae:	50                   	push   eax
    2aaf:	e8 fc ff ff ff       	call   2ab0 <main+0xc93>
    2ab4:	83 c4 10             	add    esp,0x10
    2ab7:	8b 45 c8             	mov    eax,DWORD PTR [ebp-0x38]
    2aba:	c7 40 08 00 00 00 00 	mov    DWORD PTR [eax+0x8],0x0
    2ac1:	8b 45 c8             	mov    eax,DWORD PTR [ebp-0x38]
    2ac4:	c7 40 0c 00 00 00 00 	mov    DWORD PTR [eax+0xc],0x0
    2acb:	83 ec 0c             	sub    esp,0xc
    2ace:	8d 83 74 0c 00 00    	lea    eax,[ebx+0xc74]
    2ad4:	50                   	push   eax
    2ad5:	e8 fc ff ff ff       	call   2ad6 <main+0xcb9>
    2ada:	83 c4 10             	add    esp,0x10
    2add:	eb 3a                	jmp    2b19 <main+0xcfc>
    2adf:	8b 45 c8             	mov    eax,DWORD PTR [ebp-0x38]
    2ae2:	83 ec 08             	sub    esp,0x8
    2ae5:	ff 75 d8             	push   DWORD PTR [ebp-0x28]
    2ae8:	50                   	push   eax
    2ae9:	e8 12 d5 ff ff       	call   0 <free_global_memory>
    2aee:	83 c4 10             	add    esp,0x10
    2af1:	8b 83 00 00 00 00    	mov    eax,DWORD PTR [ebx+0x0]
    2af7:	8b 00                	mov    eax,DWORD PTR [eax]
    2af9:	83 ec 04             	sub    esp,0x4
    2afc:	ff 75 e0             	push   DWORD PTR [ebp-0x20]
    2aff:	8d 93 9c 0c 00 00    	lea    edx,[ebx+0xc9c]
    2b05:	52                   	push   edx
    2b06:	50                   	push   eax
    2b07:	e8 fc ff ff ff       	call   2b08 <main+0xceb>
    2b0c:	83 c4 10             	add    esp,0x10
    2b0f:	b8 01 00 00 00       	mov    eax,0x1
    2b14:	e9 2a 03 00 00       	jmp    2e43 <.L213+0x241>
    2b19:	8b 45 c8             	mov    eax,DWORD PTR [ebp-0x38]
    2b1c:	8b 40 24             	mov    eax,DWORD PTR [eax+0x24]
    2b1f:	c1 e0 03             	shl    eax,0x3
    2b22:	83 ec 08             	sub    esp,0x8
    2b25:	50                   	push   eax
    2b26:	8d 83 d4 0c 00 00    	lea    eax,[ebx+0xcd4]
    2b2c:	50                   	push   eax
    2b2d:	e8 fc ff ff ff       	call   2b2e <main+0xd11>
    2b32:	83 c4 10             	add    esp,0x10
    2b35:	83 ec 08             	sub    esp,0x8
    2b38:	ff 75 e0             	push   DWORD PTR [ebp-0x20]
    2b3b:	8d 83 fc 0c 00 00    	lea    eax,[ebx+0xcfc]
    2b41:	50                   	push   eax
    2b42:	e8 fc ff ff ff       	call   2b43 <main+0xd26>
    2b47:	83 c4 10             	add    esp,0x10
    2b4a:	8b 45 c8             	mov    eax,DWORD PTR [ebp-0x38]
    2b4d:	8b 40 20             	mov    eax,DWORD PTR [eax+0x20]
    2b50:	83 ec 08             	sub    esp,0x8
    2b53:	50                   	push   eax
    2b54:	8d 83 28 0d 00 00    	lea    eax,[ebx+0xd28]
    2b5a:	50                   	push   eax
    2b5b:	e8 fc ff ff ff       	call   2b5c <main+0xd3f>
    2b60:	83 c4 10             	add    esp,0x10
    2b63:	83 ec 0c             	sub    esp,0xc
    2b66:	8d 83 59 0d 00 00    	lea    eax,[ebx+0xd59]
    2b6c:	50                   	push   eax
    2b6d:	e8 fc ff ff ff       	call   2b6e <main+0xd51>
    2b72:	83 c4 10             	add    esp,0x10
    2b75:	8b 45 c8             	mov    eax,DWORD PTR [ebp-0x38]
    2b78:	8b 50 24             	mov    edx,DWORD PTR [eax+0x24]
    2b7b:	8b 45 c8             	mov    eax,DWORD PTR [ebp-0x38]
    2b7e:	8b 40 20             	mov    eax,DWORD PTR [eax+0x20]
    2b81:	83 ec 04             	sub    esp,0x4
    2b84:	52                   	push   edx
    2b85:	50                   	push   eax
    2b86:	6a 01                	push   0x1
    2b88:	e8 fc ff ff ff       	call   2b89 <main+0xd6c>
    2b8d:	83 c4 10             	add    esp,0x10
    2b90:	8b 45 c8             	mov    eax,DWORD PTR [ebp-0x38]
    2b93:	8b 80 48 00 00 01    	mov    eax,DWORD PTR [eax+0x1000048]
    2b99:	83 f8 04             	cmp    eax,0x4
    2b9c:	77 78                	ja     2c16 <.L213+0x14>
    2b9e:	c1 e0 02             	shl    eax,0x2
    2ba1:	8b 84 18 2c 0e 00 00 	mov    eax,DWORD PTR [eax+ebx*1+0xe2c]
    2ba8:	01 d8                	add    eax,ebx
    2baa:	ff e0                	jmp    eax

00002bac <.L218>:
    2bac:	8b 45 c8             	mov    eax,DWORD PTR [ebp-0x38]
    2baf:	c7 40 1c 10 00 00 00 	mov    DWORD PTR [eax+0x1c],0x10
    2bb6:	8b 83 00 00 00 00    	mov    eax,DWORD PTR [ebx+0x0]
    2bbc:	8b 00                	mov    eax,DWORD PTR [eax]
    2bbe:	83 c0 01             	add    eax,0x1
    2bc1:	c1 e0 04             	shl    eax,0x4
    2bc4:	89 45 dc             	mov    DWORD PTR [ebp-0x24],eax
    2bc7:	eb 4d                	jmp    2c16 <.L213+0x14>

00002bc9 <.L217>:
    2bc9:	8b 45 c8             	mov    eax,DWORD PTR [ebp-0x38]
    2bcc:	c7 40 1c 10 00 00 00 	mov    DWORD PTR [eax+0x1c],0x10
    2bd3:	c7 45 dc 54 06 00 00 	mov    DWORD PTR [ebp-0x24],0x654
    2bda:	eb 3a                	jmp    2c16 <.L213+0x14>

00002bdc <.L216>:
    2bdc:	8b 45 c8             	mov    eax,DWORD PTR [ebp-0x38]
    2bdf:	c7 40 1c 10 00 00 00 	mov    DWORD PTR [eax+0x1c],0x10
    2be6:	c7 45 dc a4 10 00 00 	mov    DWORD PTR [ebp-0x24],0x10a4
    2bed:	eb 27                	jmp    2c16 <.L213+0x14>

00002bef <.L215>:
    2bef:	8b 45 c8             	mov    eax,DWORD PTR [ebp-0x38]
    2bf2:	c7 40 1c 08 00 00 00 	mov    DWORD PTR [eax+0x1c],0x8
    2bf9:	c7 45 dc 48 10 00 00 	mov    DWORD PTR [ebp-0x24],0x1048
    2c00:	eb 14                	jmp    2c16 <.L213+0x14>

00002c02 <.L213>:
    2c02:	8b 55 c8             	mov    edx,DWORD PTR [ebp-0x38]
    2c05:	8b 45 c8             	mov    eax,DWORD PTR [ebp-0x38]
    2c08:	8b 52 24             	mov    edx,DWORD PTR [edx+0x24]
    2c0b:	89 50 1c             	mov    DWORD PTR [eax+0x1c],edx
    2c0e:	c7 45 dc a8 00 00 00 	mov    DWORD PTR [ebp-0x24],0xa8
    2c15:	90                   	nop
    2c16:	8b 45 c8             	mov    eax,DWORD PTR [ebp-0x38]
    2c19:	8b 40 1c             	mov    eax,DWORD PTR [eax+0x1c]
    2c1c:	8b 75 c8             	mov    esi,DWORD PTR [ebp-0x38]
    2c1f:	83 ec 08             	sub    esp,0x8
    2c22:	6a 01                	push   0x1
    2c24:	50                   	push   eax
    2c25:	e8 fc ff ff ff       	call   2c26 <.L213+0x24>
    2c2a:	83 c4 10             	add    esp,0x10
    2c2d:	89 46 18             	mov    DWORD PTR [esi+0x18],eax
    2c30:	8b 45 c8             	mov    eax,DWORD PTR [ebp-0x38]
    2c33:	8b 40 18             	mov    eax,DWORD PTR [eax+0x18]
    2c36:	85 c0                	test   eax,eax
    2c38:	75 38                	jne    2c72 <.L213+0x70>
    2c3a:	8b 45 c8             	mov    eax,DWORD PTR [ebp-0x38]
    2c3d:	83 ec 08             	sub    esp,0x8
    2c40:	ff 75 d8             	push   DWORD PTR [ebp-0x28]
    2c43:	50                   	push   eax
    2c44:	e8 b7 d3 ff ff       	call   0 <free_global_memory>
    2c49:	83 c4 10             	add    esp,0x10
    2c4c:	8b 83 00 00 00 00    	mov    eax,DWORD PTR [ebx+0x0]
    2c52:	8b 00                	mov    eax,DWORD PTR [eax]
    2c54:	50                   	push   eax
    2c55:	6a 1c                	push   0x1c
    2c57:	6a 01                	push   0x1
    2c59:	8d 83 aa 00 00 00    	lea    eax,[ebx+0xaa]
    2c5f:	50                   	push   eax
    2c60:	e8 fc ff ff ff       	call   2c61 <.L213+0x5f>
    2c65:	83 c4 10             	add    esp,0x10
    2c68:	b8 01 00 00 00       	mov    eax,0x1
    2c6d:	e9 d1 01 00 00       	jmp    2e43 <.L213+0x241>
    2c72:	8b 45 c8             	mov    eax,DWORD PTR [ebp-0x38]
    2c75:	8b 80 44 00 00 01    	mov    eax,DWORD PTR [eax+0x1000044]
    2c7b:	85 c0                	test   eax,eax
    2c7d:	75 77                	jne    2cf6 <.L213+0xf4>
    2c7f:	83 ec 08             	sub    esp,0x8
    2c82:	ff 75 d0             	push   DWORD PTR [ebp-0x30]
    2c85:	8d 83 76 0d 00 00    	lea    eax,[ebx+0xd76]
    2c8b:	50                   	push   eax
    2c8c:	e8 fc ff ff ff       	call   2c8d <.L213+0x8b>
    2c91:	83 c4 10             	add    esp,0x10
    2c94:	83 ec 0c             	sub    esp,0xc
    2c97:	6a 00                	push   0x0
    2c99:	e8 fc ff ff ff       	call   2c9a <.L213+0x98>
    2c9e:	83 c4 10             	add    esp,0x10
    2ca1:	89 c2                	mov    edx,eax
    2ca3:	8b 45 d0             	mov    eax,DWORD PTR [ebp-0x30]
    2ca6:	01 d0                	add    eax,edx
    2ca8:	83 ec 0c             	sub    esp,0xc
    2cab:	50                   	push   eax
    2cac:	e8 fc ff ff ff       	call   2cad <.L213+0xab>
    2cb1:	83 c4 10             	add    esp,0x10
    2cb4:	83 ec 08             	sub    esp,0x8
    2cb7:	6a ff                	push   0xffffffff
    2cb9:	6a 00                	push   0x0
    2cbb:	e8 fc ff ff ff       	call   2cbc <.L213+0xba>
    2cc0:	83 c4 10             	add    esp,0x10
    2cc3:	89 c2                	mov    edx,eax
    2cc5:	8b 45 d0             	mov    eax,DWORD PTR [ebp-0x30]
    2cc8:	8d 0c 02             	lea    ecx,[edx+eax*1]
    2ccb:	8b 45 c8             	mov    eax,DWORD PTR [ebp-0x38]
    2cce:	8b 40 18             	mov    eax,DWORD PTR [eax+0x18]
    2cd1:	8b 10                	mov    edx,DWORD PTR [eax]
    2cd3:	8b 45 c8             	mov    eax,DWORD PTR [ebp-0x38]
    2cd6:	8b 40 18             	mov    eax,DWORD PTR [eax+0x18]
    2cd9:	31 ca                	xor    edx,ecx
    2cdb:	89 10                	mov    DWORD PTR [eax],edx
    2cdd:	8b 45 c8             	mov    eax,DWORD PTR [ebp-0x38]
    2ce0:	8b 50 1c             	mov    edx,DWORD PTR [eax+0x1c]
    2ce3:	8b 45 c8             	mov    eax,DWORD PTR [ebp-0x38]
    2ce6:	8b 40 18             	mov    eax,DWORD PTR [eax+0x18]
    2ce9:	83 ec 08             	sub    esp,0x8
    2cec:	52                   	push   edx
    2ced:	50                   	push   eax
    2cee:	e8 fc ff ff ff       	call   2cef <.L213+0xed>
    2cf3:	83 c4 10             	add    esp,0x10
    2cf6:	8b 45 c8             	mov    eax,DWORD PTR [ebp-0x38]
    2cf9:	83 ec 08             	sub    esp,0x8
    2cfc:	ff 75 dc             	push   DWORD PTR [ebp-0x24]
    2cff:	50                   	push   eax
    2d00:	e8 0a eb ff ff       	call   180f <cipher_init_memory>
    2d05:	83 c4 10             	add    esp,0x10
    2d08:	89 45 cc             	mov    DWORD PTR [ebp-0x34],eax
    2d0b:	83 7d cc 00          	cmp    DWORD PTR [ebp-0x34],0x0
    2d0f:	75 38                	jne    2d49 <.L213+0x147>
    2d11:	8b 45 c8             	mov    eax,DWORD PTR [ebp-0x38]
    2d14:	83 ec 08             	sub    esp,0x8
    2d17:	ff 75 d8             	push   DWORD PTR [ebp-0x28]
    2d1a:	50                   	push   eax
    2d1b:	e8 e0 d2 ff ff       	call   0 <free_global_memory>
    2d20:	83 c4 10             	add    esp,0x10
    2d23:	8b 83 00 00 00 00    	mov    eax,DWORD PTR [ebx+0x0]
    2d29:	8b 00                	mov    eax,DWORD PTR [eax]
    2d2b:	50                   	push   eax
    2d2c:	6a 1c                	push   0x1c
    2d2e:	6a 01                	push   0x1
    2d30:	8d 83 aa 00 00 00    	lea    eax,[ebx+0xaa]
    2d36:	50                   	push   eax
    2d37:	e8 fc ff ff ff       	call   2d38 <.L213+0x136>
    2d3c:	83 c4 10             	add    esp,0x10
    2d3f:	b8 01 00 00 00       	mov    eax,0x1
    2d44:	e9 fa 00 00 00       	jmp    2e43 <.L213+0x241>
    2d49:	8b 45 c8             	mov    eax,DWORD PTR [ebp-0x38]
    2d4c:	8b 80 48 00 00 01    	mov    eax,DWORD PTR [eax+0x1000048]
    2d52:	8b 84 83 28 00 00 00 	mov    eax,DWORD PTR [ebx+eax*4+0x28]
    2d59:	83 ec 08             	sub    esp,0x8
    2d5c:	50                   	push   eax
    2d5d:	8d 83 91 0d 00 00    	lea    eax,[ebx+0xd91]
    2d63:	50                   	push   eax
    2d64:	e8 fc ff ff ff       	call   2d65 <.L213+0x163>
    2d69:	83 c4 10             	add    esp,0x10
    2d6c:	83 ec 08             	sub    esp,0x8
    2d6f:	ff 75 dc             	push   DWORD PTR [ebp-0x24]
    2d72:	8d 83 b0 0d 00 00    	lea    eax,[ebx+0xdb0]
    2d78:	50                   	push   eax
    2d79:	e8 fc ff ff ff       	call   2d7a <.L213+0x178>
    2d7e:	83 c4 10             	add    esp,0x10
    2d81:	83 ec 0c             	sub    esp,0xc
    2d84:	8d 83 e0 0d 00 00    	lea    eax,[ebx+0xde0]
    2d8a:	50                   	push   eax
    2d8b:	e8 fc ff ff ff       	call   2d8c <.L213+0x18a>
    2d90:	83 c4 10             	add    esp,0x10
    2d93:	83 ec 04             	sub    esp,0x4
    2d96:	ff 75 dc             	push   DWORD PTR [ebp-0x24]
    2d99:	ff 75 cc             	push   DWORD PTR [ebp-0x34]
    2d9c:	6a 01                	push   0x1
    2d9e:	e8 fc ff ff ff       	call   2d9f <.L213+0x19d>
    2da3:	83 c4 10             	add    esp,0x10
    2da6:	8b 45 c8             	mov    eax,DWORD PTR [ebp-0x38]
    2da9:	8b 30                	mov    esi,DWORD PTR [eax]
    2dab:	8b 45 c8             	mov    eax,DWORD PTR [ebp-0x38]
    2dae:	8b 80 44 00 00 01    	mov    eax,DWORD PTR [eax+0x1000044]
    2db4:	83 ec 0c             	sub    esp,0xc
    2db7:	50                   	push   eax
    2db8:	e8 6a d9 ff ff       	call   727 <operation_variant>
    2dbd:	83 c4 10             	add    esp,0x10
    2dc0:	8b 84 83 20 00 00 00 	mov    eax,DWORD PTR [ebx+eax*4+0x20]
    2dc7:	83 ec 04             	sub    esp,0x4
    2dca:	56                   	push   esi
    2dcb:	50                   	push   eax
    2dcc:	8d 83 04 0e 00 00    	lea    eax,[ebx+0xe04]
    2dd2:	50                   	push   eax
    2dd3:	e8 fc ff ff ff       	call   2dd4 <.L213+0x1d2>
    2dd8:	83 c4 10             	add    esp,0x10
    2ddb:	8b 45 c8             	mov    eax,DWORD PTR [ebp-0x38]
    2dde:	83 ec 0c             	sub    esp,0xc
    2de1:	50                   	push   eax
    2de2:	e8 97 de ff ff       	call   c7e <filecrypt>
    2de7:	83 c4 10             	add    esp,0x10
    2dea:	89 45 d4             	mov    DWORD PTR [ebp-0x2c],eax
    2ded:	8b 45 c8             	mov    eax,DWORD PTR [ebp-0x38]
    2df0:	83 ec 08             	sub    esp,0x8
    2df3:	ff 75 d4             	push   DWORD PTR [ebp-0x2c]
    2df6:	50                   	push   eax
    2df7:	e8 fc ff ff ff       	call   2df8 <.L213+0x1f6>
    2dfc:	83 c4 10             	add    esp,0x10
    2dff:	83 ec 08             	sub    esp,0x8
    2e02:	ff 75 dc             	push   DWORD PTR [ebp-0x24]
    2e05:	ff 75 cc             	push   DWORD PTR [ebp-0x34]
    2e08:	e8 b8 d9 ff ff       	call   7c5 <cipher_free>
    2e0d:	83 c4 10             	add    esp,0x10
    2e10:	8b 45 c8             	mov    eax,DWORD PTR [ebp-0x38]
    2e13:	83 ec 08             	sub    esp,0x8
    2e16:	ff 75 d8             	push   DWORD PTR [ebp-0x28]
    2e19:	50                   	push   eax
    2e1a:	e8 e1 d1 ff ff       	call   0 <free_global_memory>
    2e1f:	83 c4 10             	add    esp,0x10
    2e22:	c7 45 cc 00 00 00 00 	mov    DWORD PTR [ebp-0x34],0x0
    2e29:	c7 45 c8 00 00 00 00 	mov    DWORD PTR [ebp-0x38],0x0
    2e30:	c7 45 dc 00 00 00 00 	mov    DWORD PTR [ebp-0x24],0x0
    2e37:	c7 45 d8 00 00 00 00 	mov    DWORD PTR [ebp-0x28],0x0
    2e3e:	b8 00 00 00 00       	mov    eax,0x0
    2e43:	8d 65 f0             	lea    esp,[ebp-0x10]
    2e46:	59                   	pop    ecx
    2e47:	5b                   	pop    ebx
    2e48:	5e                   	pop    esi
    2e49:	5f                   	pop    edi
    2e4a:	5d                   	pop    ebp
    2e4b:	8d 61 fc             	lea    esp,[ecx-0x4]
    2e4e:	c3                   	ret    

Дизассемблирование раздела .bss:

00000000 <rijndael_ctx>:
   0:	00 00                	add    BYTE PTR [eax],al
	...

00000004 <serpent_ctx>:
   4:	00 00                	add    BYTE PTR [eax],al
	...

00000008 <twofish_ctx>:
   8:	00 00                	add    BYTE PTR [eax],al
	...

0000000c <blowfish_ctx>:
   c:	00 00                	add    BYTE PTR [eax],al
	...

00000010 <threefish_ctx>:
  10:	00 00                	add    BYTE PTR [eax],al
	...

Дизассемблирование раздела .rodata:

00000000 <INT_SIZE_DATA-0x40>:
   0:	72 62                	jb     64 <INT_SIZE_DATA+0x24>
   2:	00 77 62             	add    BYTE PTR [edi+0x62],dh
   5:	00 00                	add    BYTE PTR [eax],al
   7:	00 50 6c             	add    BYTE PTR [eax+0x6c],dl
   a:	65 78 75             	gs js  82 <INT_SIZE_DATA+0x42>
   d:	73 54                	jae    63 <INT_SIZE_DATA+0x23>
   f:	43                   	inc    ebx
  10:	4c                   	dec    esp
  11:	20 43 6f             	and    BYTE PTR [ebx+0x6f],al
  14:	6e                   	outs   dx,BYTE PTR ds:[esi]
  15:	73 6f                	jae    86 <INT_SIZE_DATA+0x46>
  17:	6c                   	ins    BYTE PTR es:[edi],dx
  18:	65 20 43 72          	and    BYTE PTR gs:[ebx+0x72],al
  1c:	79 70                	jns    8e <INT_SIZE_DATA+0x4e>
  1e:	74 65                	je     85 <INT_SIZE_DATA+0x45>
  20:	72 20                	jb     42 <INT_SIZE_DATA+0x2>
  22:	35 2e 31 30 20       	xor    eax,0x2030312e
  27:	32 35 4a 55 4c 32    	xor    dh,BYTE PTR ds:0x324c554a
  2d:	34 20                	xor    al,0x20
  2f:	5b                   	pop    ebx
  30:	45                   	inc    ebp
  31:	4e                   	dec    esi
  32:	5d                   	pop    ebp
	...

00000040 <INT_SIZE_DATA>:
  40:	00 04 00             	add    BYTE PTR [eax+eax*1],al
  43:	00 00                	add    BYTE PTR [eax],al
  45:	00 00                	add    BYTE PTR [eax],al
  47:	00 00                	add    BYTE PTR [eax],al
  49:	00 10                	add    BYTE PTR [eax],dl
	...
  53:	40                   	inc    eax
	...
  5c:	00 01                	add    BYTE PTR [ecx],al
  5e:	00 00                	add    BYTE PTR [eax],al
  60:	42                   	inc    edx
  61:	74 00                	je     63 <INT_SIZE_DATA+0x23>
  63:	4b                   	dec    ebx
  64:	69 42 00 4d 69 42 00 	imul   eax,DWORD PTR [edx+0x0],0x42694d
  6b:	47                   	inc    edi
  6c:	69 42 00 54 69 42 00 	imul   eax,DWORD PTR [edx+0x0],0x426954
  73:	45                   	inc    ebp
  74:	6e                   	outs   dx,BYTE PTR ds:[esi]
  75:	63 72 79             	arpl   WORD PTR [edx+0x79],si
  78:	70 74                	jo     ee <INT_SIZE_DATA+0xae>
  7a:	00 44 65 63          	add    BYTE PTR [ebp+eiz*2+0x63],al
  7e:	72 79                	jb     f9 <INT_SIZE_DATA+0xb9>
  80:	70 74                	jo     f6 <INT_SIZE_DATA+0xb6>
  82:	00 41 45             	add    BYTE PTR [ecx+0x45],al
  85:	53                   	push   ebx
  86:	00 53 45             	add    BYTE PTR [ebx+0x45],dl
  89:	52                   	push   edx
  8a:	50                   	push   eax
  8b:	45                   	inc    ebp
  8c:	4e                   	dec    esi
  8d:	54                   	push   esp
  8e:	00 54 57 4f          	add    BYTE PTR [edi+edx*2+0x4f],dl
  92:	46                   	inc    esi
  93:	49                   	dec    ecx
  94:	53                   	push   ebx
  95:	48                   	dec    eax
  96:	00 42 4c             	add    BYTE PTR [edx+0x4c],al
  99:	4f                   	dec    edi
  9a:	57                   	push   edi
  9b:	46                   	inc    esi
  9c:	49                   	dec    ecx
  9d:	53                   	push   ebx
  9e:	48                   	dec    eax
  9f:	00 54 48 52          	add    BYTE PTR [eax+ecx*2+0x52],dl
  a3:	45                   	inc    ebp
  a4:	45                   	inc    ebp
  a5:	46                   	inc    esi
  a6:	49                   	dec    ecx
  a7:	53                   	push   ebx
  a8:	48                   	dec    eax
  a9:	00 5b 21             	add    BYTE PTR [ebx+0x21],bl
  ac:	5d                   	pop    ebp
  ad:	20 43 61             	and    BYTE PTR [ebx+0x61],al
  b0:	6e                   	outs   dx,BYTE PTR ds:[esi]
  b1:	6e                   	outs   dx,BYTE PTR ds:[esi]
  b2:	6f                   	outs   dx,DWORD PTR ds:[esi]
  b3:	74 20                	je     d5 <INT_SIZE_DATA+0x95>
  b5:	61                   	popa   
  b6:	6c                   	ins    BYTE PTR es:[edi],dx
  b7:	6c                   	ins    BYTE PTR es:[edi],dx
  b8:	6f                   	outs   dx,DWORD PTR ds:[esi]
  b9:	63 61 74             	arpl   WORD PTR [ecx+0x74],sp
  bc:	65 20 6d 65          	and    BYTE PTR gs:[ebp+0x65],ch
  c0:	6d                   	ins    DWORD PTR es:[edi],dx
  c1:	6f                   	outs   dx,DWORD PTR ds:[esi]
  c2:	72 79                	jb     13d <INT_SIZE_DATA+0xfd>
  c4:	21 0a                	and    DWORD PTR [edx],ecx
  c6:	00 00                	add    BYTE PTR [eax],al
  c8:	5b                   	pop    ebx
  c9:	44                   	inc    esp
  ca:	45                   	inc    ebp
  cb:	42                   	inc    edx
  cc:	55                   	push   ebp
  cd:	47                   	inc    edi
  ce:	5d                   	pop    ebp
  cf:	20 70 6f             	and    BYTE PTR [eax+0x6f],dh
  d2:	69 6e 74 65 72 20 6f 	imul   ebp,DWORD PTR [esi+0x74],0x6f207265
  d9:	66 20 6b 65          	data16 and BYTE PTR [ebx+0x65],ch
  dd:	79 20                	jns    ff <INT_SIZE_DATA+0xbf>
  df:	6d                   	ins    DWORD PTR es:[edi],dx
  e0:	61                   	popa   
  e1:	74 72                	je     155 <INT_SIZE_DATA+0x115>
  e3:	69 78 20 6d 65 6d 6f 	imul   edi,DWORD PTR [eax+0x20],0x6f6d656d
  ea:	72 79                	jb     165 <INT_SIZE_DATA+0x125>
  ec:	3a 20                	cmp    ah,BYTE PTR [eax]
  ee:	25 70 0a 00 00       	and    eax,0xa70
  f3:	00 5b 44             	add    BYTE PTR [ebx+0x44],bl
  f6:	45                   	inc    ebp
  f7:	42                   	inc    edx
  f8:	55                   	push   ebp
  f9:	47                   	inc    edi
  fa:	5d                   	pop    ebp
  fb:	20 73 69             	and    BYTE PTR [ebx+0x69],dh
  fe:	7a 65                	jp     165 <INT_SIZE_DATA+0x125>
 100:	20 6f 66             	and    BYTE PTR [edi+0x66],ch
 103:	20 6b 65             	and    BYTE PTR [ebx+0x65],ch
 106:	79 20                	jns    128 <INT_SIZE_DATA+0xe8>
 108:	6d                   	ins    DWORD PTR es:[edi],dx
 109:	61                   	popa   
 10a:	74 72                	je     17e <INT_SIZE_DATA+0x13e>
 10c:	69 78 20 6d 65 6d 6f 	imul   edi,DWORD PTR [eax+0x20],0x6f6d656d
 113:	72 79                	jb     18e <INT_SIZE_DATA+0x14e>
 115:	20 62 79             	and    BYTE PTR [edx+0x79],ah
 118:	74 65                	je     17f <INT_SIZE_DATA+0x13f>
 11a:	3a 20                	cmp    ah,BYTE PTR [eax]
 11c:	25 75 0a 00 5b       	and    eax,0x5b000a75
 121:	44                   	inc    esp
 122:	45                   	inc    ebp
 123:	42                   	inc    edx
 124:	55                   	push   ebp
 125:	47                   	inc    edi
 126:	5d                   	pop    ebp
 127:	20 6d 61             	and    BYTE PTR [ebp+0x61],ch
 12a:	6b 65 20 63          	imul   esp,DWORD PTR [ebp+0x20],0x63
 12e:	72 79                	jb     1a9 <INT_SIZE_DATA+0x169>
 130:	70 74                	jo     1a6 <INT_SIZE_DATA+0x166>
 132:	20 6b 65             	and    BYTE PTR [ebx+0x65],ch
 135:	79 20                	jns    157 <INT_SIZE_DATA+0x117>
 137:	63 6f 75             	arpl   WORD PTR [edi+0x75],bp
 13a:	6e                   	outs   dx,BYTE PTR ds:[esi]
 13b:	74 20                	je     15d <INT_SIZE_DATA+0x11d>
 13d:	69 74 65 72 61 74 69 	imul   esi,DWORD PTR [ebp+eiz*2+0x72],0x6f697461
 144:	6f 
 145:	6e                   	outs   dx,BYTE PTR ds:[esi]
 146:	3a 20                	cmp    ah,BYTE PTR [eax]
 148:	25 75 0a 00 5b       	and    eax,0x5b000a75
 14d:	44                   	inc    esp
 14e:	45                   	inc    ebp
 14f:	42                   	inc    edx
 150:	55                   	push   ebp
 151:	47                   	inc    edi
 152:	5d                   	pop    ebp
 153:	20 6d 61             	and    BYTE PTR [ebp+0x61],ch
 156:	6b 65 20 63          	imul   esp,DWORD PTR [ebp+0x20],0x63
 15a:	72 79                	jb     1d5 <INT_SIZE_DATA+0x195>
 15c:	70 74                	jo     1d2 <INT_SIZE_DATA+0x192>
 15e:	20 6b 65             	and    BYTE PTR [ebx+0x65],ch
 161:	79 20                	jns    183 <INT_SIZE_DATA+0x143>
 163:	74 69                	je     1ce <INT_SIZE_DATA+0x18e>
 165:	6d                   	ins    DWORD PTR es:[edi],dx
 166:	65 3a 20             	cmp    ah,BYTE PTR gs:[eax]
 169:	25 34 2e 34 66       	and    eax,0x66342e34
 16e:	20 73 65             	and    BYTE PTR [ebx+0x65],dh
 171:	63 6f 6e             	arpl   WORD PTR [edi+0x6e],bp
 174:	64 73 0a             	fs jae 181 <INT_SIZE_DATA+0x141>
 177:	00 5b 44             	add    BYTE PTR [ebx+0x44],bl
 17a:	45                   	inc    ebp
 17b:	42                   	inc    edx
 17c:	55                   	push   ebp
 17d:	47                   	inc    edi
 17e:	5d                   	pop    ebp
 17f:	20 68 61             	and    BYTE PTR [eax+0x61],ch
 182:	73 68                	jae    1ec <INT_SIZE_DATA+0x1ac>
 184:	20 6d 61             	and    BYTE PTR [ebp+0x61],ch
 187:	74 72                	je     1fb <INT_SIZE_DATA+0x1bb>
 189:	69 78 20 66 6f 72 20 	imul   edi,DWORD PTR [eax+0x20],0x20726f66
 190:	6b 65 79 20          	imul   esp,DWORD PTR [ebp+0x79],0x20
 194:	67 65 6e             	outs   dx,BYTE PTR gs:[si]
 197:	65 72 61             	gs jb  1fb <INT_SIZE_DATA+0x1bb>
 19a:	74 69                	je     205 <INT_SIZE_DATA+0x1c5>
 19c:	6f                   	outs   dx,DWORD PTR ds:[esi]
 19d:	6e                   	outs   dx,BYTE PTR ds:[esi]
 19e:	3a 00                	cmp    al,BYTE PTR [eax]
 1a0:	5b                   	pop    ebx
 1a1:	44                   	inc    esp
 1a2:	45                   	inc    ebp
 1a3:	42                   	inc    edx
 1a4:	55                   	push   ebp
 1a5:	47                   	inc    edi
 1a6:	5d                   	pop    ebp
 1a7:	20 61 75             	and    BYTE PTR [ecx+0x75],ah
 1aa:	74 68                	je     214 <INT_SIZE_DATA+0x1d4>
 1ac:	65 6e                	outs   dx,BYTE PTR gs:[esi]
 1ae:	74 69                	je     219 <INT_SIZE_DATA+0x1d9>
 1b0:	66 69 63 61 74 69    	imul   sp,WORD PTR [ebx+0x61],0x6974
 1b6:	6f                   	outs   dx,DWORD PTR ds:[esi]
 1b7:	6e                   	outs   dx,BYTE PTR ds:[esi]
 1b8:	20 6b 65             	and    BYTE PTR [ebx+0x65],ch
 1bb:	79 20                	jns    1dd <INT_SIZE_DATA+0x19d>
 1bd:	27                   	daa    
 1be:	55                   	push   ebp
 1bf:	27                   	daa    
 1c0:	3a 00                	cmp    al,BYTE PTR [eax]
 1c2:	00 00                	add    BYTE PTR [eax],al
 1c4:	5b                   	pop    ebx
 1c5:	44                   	inc    esp
 1c6:	45                   	inc    ebp
 1c7:	42                   	inc    edx
 1c8:	55                   	push   ebp
 1c9:	47                   	inc    edi
 1ca:	5d                   	pop    ebp
 1cb:	20 61 75             	and    BYTE PTR [ecx+0x75],ah
 1ce:	74 68                	je     238 <INT_SIZE_DATA+0x1f8>
 1d0:	65 6e                	outs   dx,BYTE PTR gs:[esi]
 1d2:	74 69                	je     23d <INT_SIZE_DATA+0x1fd>
 1d4:	66 69 63 61 74 69    	imul   sp,WORD PTR [ebx+0x61],0x6974
 1da:	6f                   	outs   dx,DWORD PTR ds:[esi]
 1db:	6e                   	outs   dx,BYTE PTR ds:[esi]
 1dc:	20 6b 65             	and    BYTE PTR [ebx+0x65],ch
 1df:	79 20                	jns    201 <INT_SIZE_DATA+0x1c1>
 1e1:	27                   	daa    
 1e2:	66 27                	data16 daa 
 1e4:	3a 00                	cmp    al,BYTE PTR [eax]
 1e6:	00 00                	add    BYTE PTR [eax],al
 1e8:	5b                   	pop    ebx
 1e9:	44                   	inc    esp
 1ea:	45                   	inc    ebp
 1eb:	42                   	inc    edx
 1ec:	55                   	push   ebp
 1ed:	47                   	inc    edi
 1ee:	5d                   	pop    ebp
 1ef:	20 73 69             	and    BYTE PTR [ebx+0x69],dh
 1f2:	7a 65                	jp     259 <INT_SIZE_DATA+0x219>
 1f4:	20 6f 66             	and    BYTE PTR [edi+0x66],ch
 1f7:	20 66 69             	and    BYTE PTR [esi+0x69],ah
 1fa:	6c                   	ins    BYTE PTR es:[edi],dx
 1fb:	65 3a 20             	cmp    ah,BYTE PTR gs:[eax]
 1fe:	25 34 2e 32 66       	and    eax,0x66322e34
 203:	20 25 73 0a 00 5b    	and    BYTE PTR ds:0x5b000a73,ah
 209:	44                   	inc    esp
 20a:	45                   	inc    ebp
 20b:	42                   	inc    edx
 20c:	55                   	push   ebp
 20d:	47                   	inc    edi
 20e:	5d                   	pop    ebp
 20f:	20 76 65             	and    BYTE PTR [esi+0x65],dh
 212:	63 74 6f 72          	arpl   WORD PTR [edi+ebp*2+0x72],si
 216:	20 6d 65             	and    BYTE PTR [ebp+0x65],ch
 219:	6d                   	ins    DWORD PTR es:[edi],dx
 21a:	6f                   	outs   dx,DWORD PTR ds:[esi]
 21b:	72 79                	jb     296 <INT_SIZE_DATA+0x256>
 21d:	20 61 6c             	and    BYTE PTR [ecx+0x6c],ah
 220:	6c                   	ins    BYTE PTR es:[edi],dx
 221:	6f                   	outs   dx,DWORD PTR ds:[esi]
 222:	63 61 74             	arpl   WORD PTR [ecx+0x74],sp
 225:	65 64 3a 20          	gs cmp ah,BYTE PTR fs:[eax]
 229:	25 75 20 62 79       	and    eax,0x79622075
 22e:	74 65                	je     295 <INT_SIZE_DATA+0x255>
 230:	0a 00                	or     al,BYTE PTR [eax]
 232:	00 00                	add    BYTE PTR [eax],al
 234:	5b                   	pop    ebx
 235:	44                   	inc    esp
 236:	45                   	inc    ebp
 237:	42                   	inc    edx
 238:	55                   	push   ebp
 239:	47                   	inc    edi
 23a:	5d                   	pop    ebp
 23b:	20 76 65             	and    BYTE PTR [esi+0x65],dh
 23e:	63 74 6f 72          	arpl   WORD PTR [edi+ebp*2+0x72],si
 242:	20 6d 65             	and    BYTE PTR [ebp+0x65],ch
 245:	6d                   	ins    DWORD PTR es:[edi],dx
 246:	6f                   	outs   dx,DWORD PTR ds:[esi]
 247:	72 79                	jb     2c2 <INT_SIZE_DATA+0x282>
 249:	20 70 6f             	and    BYTE PTR [eax+0x6f],dh
 24c:	69 6e 74 65 72 3a 20 	imul   ebp,DWORD PTR [esi+0x74],0x203a7265
 253:	25 70 0a 00 00       	and    eax,0xa70
 258:	5b                   	pop    ebx
 259:	44                   	inc    esp
 25a:	45                   	inc    ebp
 25b:	42                   	inc    edx
 25c:	55                   	push   ebp
 25d:	47                   	inc    edi
 25e:	5d                   	pop    ebp
 25f:	20 76 65             	and    BYTE PTR [esi+0x65],dh
 262:	63 74 6f 72          	arpl   WORD PTR [edi+ebp*2+0x72],si
 266:	20 67 65             	and    BYTE PTR [edi+0x65],ah
 269:	6e                   	outs   dx,BYTE PTR ds:[esi]
 26a:	65 72 61             	gs jb  2ce <INT_SIZE_DATA+0x28e>
 26d:	74 6f                	je     2de <INT_SIZE_DATA+0x29e>
 26f:	72 20                	jb     291 <INT_SIZE_DATA+0x251>
 271:	77 72                	ja     2e5 <INT_SIZE_DATA+0x2a5>
 273:	69 74 65 20 64 61 74 	imul   esi,DWORD PTR [ebp+eiz*2+0x20],0x61746164
 27a:	61 
 27b:	20 69 6e             	and    BYTE PTR [ecx+0x6e],ch
 27e:	20 70 6f             	and    BYTE PTR [eax+0x6f],dh
 281:	69 6e 74 65 72 3a 20 	imul   ebp,DWORD PTR [esi+0x74],0x203a7265
 288:	25 70 0a 00 5b       	and    eax,0x5b000a70
 28d:	44                   	inc    esp
 28e:	45                   	inc    ebp
 28f:	42                   	inc    edx
 290:	55                   	push   ebp
 291:	47                   	inc    edi
 292:	5d                   	pop    ebp
 293:	20 76 65             	and    BYTE PTR [esi+0x65],dh
 296:	63 74 6f 72          	arpl   WORD PTR [edi+ebp*2+0x72],si
 29a:	20 64 61 74          	and    BYTE PTR [ecx+eiz*2+0x74],ah
 29e:	61                   	popa   
 29f:	20 72 65             	and    BYTE PTR [edx+0x65],dh
 2a2:	61                   	popa   
 2a3:	64 20 66 72          	and    BYTE PTR fs:[esi+0x72],ah
 2a7:	6f                   	outs   dx,DWORD PTR ds:[esi]
 2a8:	6d                   	ins    DWORD PTR es:[edi],dx
 2a9:	20 66 69             	and    BYTE PTR [esi+0x69],ah
 2ac:	6c                   	ins    BYTE PTR es:[edi],dx
 2ad:	65 20 69 6e          	and    BYTE PTR gs:[ecx+0x6e],ch
 2b1:	20 70 6f             	and    BYTE PTR [eax+0x6f],dh
 2b4:	69 6e 74 65 72 3a 20 	imul   ebp,DWORD PTR [esi+0x74],0x203a7265
 2bb:	25 70 0a 00 5b       	and    eax,0x5b000a70
 2c0:	44                   	inc    esp
 2c1:	45                   	inc    ebp
 2c2:	42                   	inc    edx
 2c3:	55                   	push   ebp
 2c4:	47                   	inc    edi
 2c5:	5d                   	pop    ebp
 2c6:	20 76 65             	and    BYTE PTR [esi+0x65],dh
 2c9:	63 74 6f 72          	arpl   WORD PTR [edi+ebp*2+0x72],si
 2cd:	20 72 65             	and    BYTE PTR [edx+0x65],dh
 2d0:	61                   	popa   
 2d1:	6c                   	ins    BYTE PTR es:[edi],dx
 2d2:	20 64 61 74          	and    BYTE PTR [ecx+eiz*2+0x74],ah
 2d6:	61                   	popa   
 2d7:	3a 00                	cmp    al,BYTE PTR [eax]
 2d9:	00 00                	add    BYTE PTR [eax],al
 2db:	00 0d 20 3e 20 20    	add    BYTE PTR ds:0x20203e20,cl
 2e1:	25 73 20 5b 25       	and    eax,0x255b2073
 2e6:	73 5d                	jae    345 <INT_SIZE_DATA+0x305>
 2e8:	20 28                	and    BYTE PTR [eax],ch
 2ea:	25 34 2e 32 66       	and    eax,0x66322e34
 2ef:	20 25 73 2f 25 34    	and    BYTE PTR ds:0x34252f73,ah
 2f5:	2e 32 66 20          	xor    ah,BYTE PTR cs:[esi+0x20]
 2f9:	25 73 29 20 25       	and    eax,0x25202973
 2fe:	33 64 20 25          	xor    esp,DWORD PTR [eax+eiz*1+0x25]
 302:	25 20 20 00 00       	and    eax,0x2020
 307:	00 5b 44             	add    BYTE PTR [ebx+0x44],bl
 30a:	45                   	inc    ebp
 30b:	42                   	inc    edx
 30c:	55                   	push   ebp
 30d:	47                   	inc    edi
 30e:	5d                   	pop    ebp
 30f:	20 72 65             	and    BYTE PTR [edx+0x65],dh
 312:	61                   	popa   
 313:	6c                   	ins    BYTE PTR es:[edi],dx
 314:	20 73 68             	and    BYTE PTR [ebx+0x68],dh
 317:	61                   	popa   
 318:	2d 32 2d 32 35       	sub    eax,0x35322d32
 31d:	36 20 68 61          	and    BYTE PTR ss:[eax+0x61],ch
 321:	73 68                	jae    38b <INT_SIZE_DATA+0x34b>
 323:	20 73 75             	and    BYTE PTR [ebx+0x75],dh
 326:	6d                   	ins    DWORD PTR es:[edi],dx
 327:	20 66 69             	and    BYTE PTR [esi+0x69],ah
 32a:	6c                   	ins    BYTE PTR es:[edi],dx
 32b:	65 3a 20             	cmp    ah,BYTE PTR gs:[eax]
 32e:	25 73 0a 00 00       	and    eax,0xa73
 333:	00 5b 21             	add    BYTE PTR [ebx+0x21],bl
 336:	5d                   	pop    ebp
 337:	20 57 41             	and    BYTE PTR [edi+0x41],dl
 33a:	52                   	push   edx
 33b:	4e                   	dec    esi
 33c:	49                   	dec    ecx
 33d:	4e                   	dec    esi
 33e:	47                   	inc    edi
 33f:	3a 20                	cmp    ah,BYTE PTR [eax]
 341:	43                   	inc    ebx
 342:	6f                   	outs   dx,DWORD PTR ds:[esi]
 343:	6e                   	outs   dx,BYTE PTR ds:[esi]
 344:	74 72                	je     3b8 <INT_SIZE_DATA+0x378>
 346:	6f                   	outs   dx,DWORD PTR ds:[esi]
 347:	6c                   	ins    BYTE PTR es:[edi],dx
 348:	20 73 75             	and    BYTE PTR [ebx+0x75],dh
 34b:	6d                   	ins    DWORD PTR es:[edi],dx
 34c:	20 66 69             	and    BYTE PTR [esi+0x69],ah
 34f:	6c                   	ins    BYTE PTR es:[edi],dx
 350:	65 20 22             	and    BYTE PTR gs:[edx],ah
 353:	25 73 22 20 6e       	and    eax,0x6e202273
 358:	6f                   	outs   dx,DWORD PTR ds:[esi]
 359:	74 20                	je     37b <INT_SIZE_DATA+0x33b>
 35b:	63 6f 72             	arpl   WORD PTR [edi+0x72],bp
 35e:	72 65                	jb     3c5 <INT_SIZE_DATA+0x385>
 360:	63 74 21 0a          	arpl   WORD PTR [ecx+eiz*1+0xa],si
 364:	00 00                	add    BYTE PTR [eax],al
 366:	00 00                	add    BYTE PTR [eax],al
 368:	5b                   	pop    ebx
 369:	23 5d 20             	and    ebx,DWORD PTR [ebp+0x20]
 36c:	43                   	inc    ebx
 36d:	6f                   	outs   dx,DWORD PTR ds:[esi]
 36e:	6e                   	outs   dx,BYTE PTR ds:[esi]
 36f:	74 72                	je     3e3 <INT_SIZE_DATA+0x3a3>
 371:	6f                   	outs   dx,DWORD PTR ds:[esi]
 372:	6c                   	ins    BYTE PTR es:[edi],dx
 373:	20 73 75             	and    BYTE PTR [ebx+0x75],dh
 376:	6d                   	ins    DWORD PTR es:[edi],dx
 377:	20 66 69             	and    BYTE PTR [esi+0x69],ah
 37a:	6c                   	ins    BYTE PTR es:[edi],dx
 37b:	65 20 22             	and    BYTE PTR gs:[edx],ah
 37e:	25 73 22 20 63       	and    eax,0x63202273
 383:	68 65 63 6b 21       	push   0x216b6365
 388:	20 3a                	and    BYTE PTR [edx],bh
 38a:	29 0a                	sub    DWORD PTR [edx],ecx
 38c:	00 00                	add    BYTE PTR [eax],al
 38e:	00 00                	add    BYTE PTR [eax],al
 390:	5b                   	pop    ebx
 391:	44                   	inc    esp
 392:	45                   	inc    ebp
 393:	42                   	inc    edx
 394:	55                   	push   ebp
 395:	47                   	inc    edi
 396:	5d                   	pop    ebp
 397:	20 72 65             	and    BYTE PTR [edx+0x65],dh
 39a:	61                   	popa   
 39b:	6c                   	ins    BYTE PTR es:[edi],dx
 39c:	20 68 6d             	and    BYTE PTR [eax+0x6d],ch
 39f:	61                   	popa   
 3a0:	63 20                	arpl   WORD PTR [eax],sp
 3a2:	69 6e 70 75 74 20 66 	imul   ebp,DWORD PTR [esi+0x70],0x66207475
 3a9:	69 6c 65 6e 61 6d 65 	imul   ebp,DWORD PTR [ebp+eiz*2+0x6e],0x3a656d61
 3b0:	3a 
 3b1:	20 25 73 0a 00 00    	and    BYTE PTR ds:0xa73,ah
	...
 3df:	00 2f                	add    BYTE PTR [edi],ch
 3e1:	64 65 76 2f          	fs gs jbe 414 <INT_SIZE_DATA+0x3d4>
 3e5:	75 72                	jne    459 <INT_SIZE_DATA+0x419>
 3e7:	61                   	popa   
 3e8:	6e                   	outs   dx,BYTE PTR ds:[esi]
 3e9:	64 6f                	outs   dx,DWORD PTR fs:[esi]
 3eb:	6d                   	ins    DWORD PTR es:[edi],dx
 3ec:	00 00                	add    BYTE PTR [eax],al
 3ee:	00 00                	add    BYTE PTR [eax],al
 3f0:	5b                   	pop    ebx
 3f1:	44                   	inc    esp
 3f2:	45                   	inc    ebp
 3f3:	42                   	inc    edx
 3f4:	55                   	push   ebp
 3f5:	47                   	inc    edi
 3f6:	5d                   	pop    ebp
 3f7:	20 64 61 74          	and    BYTE PTR [ecx+eiz*2+0x74],ah
 3fb:	61                   	popa   
 3fc:	20 66 72             	and    BYTE PTR [esi+0x72],ah
 3ff:	6f                   	outs   dx,DWORD PTR ds:[esi]
 400:	6d                   	ins    DWORD PTR es:[edi],dx
 401:	20 64 65 76          	and    BYTE PTR [ebp+eiz*2+0x76],ah
 405:	69 63 65 20 22 2f 64 	imul   esp,DWORD PTR [ebx+0x65],0x642f2220
 40c:	65 76 2f             	gs jbe 43e <INT_SIZE_DATA+0x3fe>
 40f:	75 72                	jne    483 <INT_SIZE_DATA+0x443>
 411:	61                   	popa   
 412:	6e                   	outs   dx,BYTE PTR ds:[esi]
 413:	64 6f                	outs   dx,DWORD PTR fs:[esi]
 415:	6d                   	ins    DWORD PTR es:[edi],dx
 416:	22 3a                	and    bh,BYTE PTR [edx]
 418:	00 00                	add    BYTE PTR [eax],al
 41a:	00 00                	add    BYTE PTR [eax],al
 41c:	5b                   	pop    ebx
 41d:	21 5d 20             	and    DWORD PTR [ebp+0x20],ebx
 420:	44                   	inc    esp
 421:	65 76 69             	gs jbe 48d <INT_SIZE_DATA+0x44d>
 424:	63 65 20             	arpl   WORD PTR [ebp+0x20],sp
 427:	22 2f                	and    ch,BYTE PTR [edi]
 429:	64 65 76 2f          	fs gs jbe 45c <INT_SIZE_DATA+0x41c>
 42d:	75 72                	jne    4a1 <INT_SIZE_DATA+0x461>
 42f:	61                   	popa   
 430:	6e                   	outs   dx,BYTE PTR ds:[esi]
 431:	64 6f                	outs   dx,DWORD PTR fs:[esi]
 433:	6d                   	ins    DWORD PTR es:[edi],dx
 434:	22 20                	and    ah,BYTE PTR [eax]
 436:	6e                   	outs   dx,BYTE PTR ds:[esi]
 437:	6f                   	outs   dx,DWORD PTR ds:[esi]
 438:	74 20                	je     45a <INT_SIZE_DATA+0x41a>
 43a:	6f                   	outs   dx,DWORD PTR ds:[esi]
 43b:	70 65                	jo     4a2 <INT_SIZE_DATA+0x462>
 43d:	6e                   	outs   dx,BYTE PTR ds:[esi]
 43e:	6e                   	outs   dx,BYTE PTR ds:[esi]
 43f:	65 64 21 0a          	gs and DWORD PTR fs:[edx],ecx
	...
 457:	00 5b 23             	add    BYTE PTR [ebx+0x23],bl
 45a:	5d                   	pop    ebp
 45b:	20 25 73 20 66 69    	and    BYTE PTR ds:0x69662073,ah
 461:	6c                   	ins    BYTE PTR es:[edi],dx
 462:	65 20 22             	and    BYTE PTR gs:[edx],ah
 465:	25 73 22 20 63       	and    eax,0x63202273
 46a:	6f                   	outs   dx,DWORD PTR ds:[esi]
 46b:	6d                   	ins    DWORD PTR es:[edi],dx
 46c:	70 6c                	jo     4da <INT_SIZE_DATA+0x49a>
 46e:	65 74 65             	gs je  4d6 <INT_SIZE_DATA+0x496>
 471:	21 0a                	and    DWORD PTR [edx],ecx
 473:	00 5b 21             	add    BYTE PTR [ebx+0x21],bl
 476:	5d                   	pop    ebp
 477:	20 46 69             	and    BYTE PTR [esi+0x69],al
 47a:	6c                   	ins    BYTE PTR es:[edi],dx
 47b:	65 20 66 6f          	and    BYTE PTR gs:[esi+0x6f],ah
 47f:	72 20                	jb     4a1 <INT_SIZE_DATA+0x461>
 481:	25 73 20 22 25       	and    eax,0x25222073
 486:	73 22                	jae    4aa <INT_SIZE_DATA+0x46a>
 488:	20 6e 6f             	and    BYTE PTR [esi+0x6f],ch
 48b:	74 20                	je     4ad <INT_SIZE_DATA+0x46d>
 48d:	6f                   	outs   dx,DWORD PTR ds:[esi]
 48e:	70 65                	jo     4f5 <INT_SIZE_DATA+0x4b5>
 490:	6e                   	outs   dx,BYTE PTR ds:[esi]
 491:	65 64 21 0a          	gs and DWORD PTR fs:[edx],ecx
 495:	00 00                	add    BYTE PTR [eax],al
 497:	00 5b 21             	add    BYTE PTR [ebx+0x21],bl
 49a:	5d                   	pop    ebp
 49b:	20 4f 75             	and    BYTE PTR [edi+0x75],cl
 49e:	74 70                	je     510 <INT_SIZE_DATA+0x4d0>
 4a0:	75 74                	jne    516 <INT_SIZE_DATA+0x4d6>
 4a2:	20 66 69             	and    BYTE PTR [esi+0x69],ah
 4a5:	6c                   	ins    BYTE PTR es:[edi],dx
 4a6:	65 20 22             	and    BYTE PTR gs:[edx],ah
 4a9:	25 73 22 20 6e       	and    eax,0x6e202273
 4ae:	6f                   	outs   dx,DWORD PTR ds:[esi]
 4af:	74 20                	je     4d1 <INT_SIZE_DATA+0x491>
 4b1:	6f                   	outs   dx,DWORD PTR ds:[esi]
 4b2:	70 65                	jo     519 <INT_SIZE_DATA+0x4d9>
 4b4:	6e                   	outs   dx,BYTE PTR ds:[esi]
 4b5:	65 64 21 0a          	gs and DWORD PTR fs:[edx],ecx
 4b9:	00 00                	add    BYTE PTR [eax],al
 4bb:	00 5b 21             	add    BYTE PTR [ebx+0x21],bl
 4be:	5d                   	pop    ebp
 4bf:	20 53 69             	and    BYTE PTR [ebx+0x69],dl
 4c2:	7a 65                	jp     529 <INT_SIZE_DATA+0x4e9>
 4c4:	20 6f 66             	and    BYTE PTR [edi+0x66],ch
 4c7:	20 69 6e             	and    BYTE PTR [ecx+0x6e],ch
 4ca:	70 75                	jo     541 <INT_SIZE_DATA+0x501>
 4cc:	74 20                	je     4ee <INT_SIZE_DATA+0x4ae>
 4ce:	66 69 6c 65 20 22 25 	imul   bp,WORD PTR [ebp+eiz*2+0x20],0x2522
 4d5:	73 22                	jae    4f9 <INT_SIZE_DATA+0x4b9>
 4d7:	20 30                	and    BYTE PTR [eax],dh
 4d9:	20 6f 72             	and    BYTE PTR [edi+0x72],ch
 4dc:	20 6d 6f             	and    BYTE PTR [ebp+0x6f],ch
 4df:	72 65                	jb     546 <INT_SIZE_DATA+0x506>
 4e1:	20 32                	and    BYTE PTR [edx],dh
 4e3:	20 47 69             	and    BYTE PTR [edi+0x69],al
 4e6:	42                   	inc    edx
 4e7:	21 0a                	and    DWORD PTR [edx],ecx
 4e9:	00 00                	add    BYTE PTR [eax],al
 4eb:	00 5b 21             	add    BYTE PTR [ebx+0x21],bl
 4ee:	5d                   	pop    ebp
 4ef:	20 45 72             	and    BYTE PTR [ebp+0x72],al
 4f2:	72 6f                	jb     563 <INT_SIZE_DATA+0x523>
 4f4:	72 20                	jb     516 <INT_SIZE_DATA+0x4d6>
 4f6:	77 72                	ja     56a <INT_SIZE_DATA+0x52a>
 4f8:	69 74 65 20 69 6e 20 	imul   esi,DWORD PTR [ebp+eiz*2+0x20],0x66206e69
 4ff:	66 
 500:	69 6c 65 20 22 25 73 	imul   ebp,DWORD PTR [ebp+eiz*2+0x20],0x22732522
 507:	22 
 508:	20 21                	and    BYTE PTR [ecx],ah
 50a:	0a 00                	or     al,BYTE PTR [eax]
 50c:	5b                   	pop    ebx
 50d:	21 5d 20             	and    DWORD PTR [ebp+0x20],ebx
 510:	45                   	inc    ebp
 511:	72 72                	jb     585 <INT_SIZE_DATA+0x545>
 513:	6f                   	outs   dx,DWORD PTR ds:[esi]
 514:	72 20                	jb     536 <INT_SIZE_DATA+0x4f6>
 516:	72 65                	jb     57d <INT_SIZE_DATA+0x53d>
 518:	61                   	popa   
 519:	64 20 66 6f          	and    BYTE PTR fs:[esi+0x6f],ah
 51d:	72 6d                	jb     58c <INT_SIZE_DATA+0x54c>
 51f:	20 66 69             	and    BYTE PTR [esi+0x69],ah
 522:	6c                   	ins    BYTE PTR es:[edi],dx
 523:	65 20 22             	and    BYTE PTR gs:[edx],ah
 526:	25 73 22 20 21       	and    eax,0x21202273
 52b:	0a 00                	or     al,BYTE PTR [eax]
 52d:	00 00                	add    BYTE PTR [eax],al
 52f:	00 5b 21             	add    BYTE PTR [ebx+0x21],bl
 532:	5d                   	pop    ebp
 533:	20 45 72             	and    BYTE PTR [ebp+0x72],al
 536:	72 6f                	jb     5a7 <INT_SIZE_DATA+0x567>
 538:	72 20                	jb     55a <INT_SIZE_DATA+0x51a>
 53a:	63 6c 6f 73          	arpl   WORD PTR [edi+ebp*2+0x73],bp
 53e:	65 20 69 6e          	and    BYTE PTR gs:[ecx+0x6e],ch
 542:	70 75                	jo     5b9 <INT_SIZE_DATA+0x579>
 544:	74 20                	je     566 <INT_SIZE_DATA+0x526>
 546:	73 74                	jae    5bc <INT_SIZE_DATA+0x57c>
 548:	72 65                	jb     5af <INT_SIZE_DATA+0x56f>
 54a:	61                   	popa   
 54b:	6d                   	ins    DWORD PTR es:[edi],dx
 54c:	21 0a                	and    DWORD PTR [edx],ecx
 54e:	00 00                	add    BYTE PTR [eax],al
 550:	5b                   	pop    ebx
 551:	21 5d 20             	and    DWORD PTR [ebp+0x20],ebx
 554:	45                   	inc    ebp
 555:	72 72                	jb     5c9 <INT_SIZE_DATA+0x589>
 557:	6f                   	outs   dx,DWORD PTR ds:[esi]
 558:	72 20                	jb     57a <INT_SIZE_DATA+0x53a>
 55a:	63 6c 6f 73          	arpl   WORD PTR [edi+ebp*2+0x73],bp
 55e:	65 20 6f 75          	and    BYTE PTR gs:[edi+0x75],ch
 562:	74 70                	je     5d4 <INT_SIZE_DATA+0x594>
 564:	75 74                	jne    5da <INT_SIZE_DATA+0x59a>
 566:	20 73 74             	and    BYTE PTR [ebx+0x74],dh
 569:	72 65                	jb     5d0 <INT_SIZE_DATA+0x590>
 56b:	61                   	popa   
 56c:	6d                   	ins    DWORD PTR es:[edi],dx
 56d:	21 0a                	and    DWORD PTR [edx],ecx
 56f:	00 5b 21             	add    BYTE PTR [ebx+0x21],bl
 572:	5d                   	pop    ebp
 573:	20 53 69             	and    BYTE PTR [ebx+0x69],dl
 576:	7a 65                	jp     5dd <INT_SIZE_DATA+0x59d>
 578:	20 6f 66             	and    BYTE PTR [edi+0x66],ch
 57b:	20 66 69             	and    BYTE PTR [esi+0x69],ah
 57e:	6c                   	ins    BYTE PTR es:[edi],dx
 57f:	65 20 66 6f          	and    BYTE PTR gs:[esi+0x6f],ah
 583:	72 20                	jb     5a5 <INT_SIZE_DATA+0x565>
 585:	64 65 63 72 79       	fs arpl WORD PTR gs:[edx+0x79],si
 58a:	70 74                	jo     600 <INT_SIZE_DATA+0x5c0>
 58c:	20 22                	and    BYTE PTR [edx],ah
 58e:	25 73 22 20 69       	and    eax,0x69202273
 593:	6e                   	outs   dx,BYTE PTR ds:[esi]
 594:	63 6f 72             	arpl   WORD PTR [edi+0x72],bp
 597:	72 65                	jb     5fe <INT_SIZE_DATA+0x5be>
 599:	63 74 21 0a          	arpl   WORD PTR [ecx+eiz*1+0xa],si
	...
 5c1:	00 00                	add    BYTE PTR [eax],al
 5c3:	00 5b 24             	add    BYTE PTR [ebx+0x24],bl
 5c6:	5d                   	pop    ebp
 5c7:	20 45 6e             	and    BYTE PTR [ebp+0x6e],al
 5ca:	74 65                	je     631 <INT_SIZE_DATA+0x5f1>
 5cc:	72 20                	jb     5ee <INT_SIZE_DATA+0x5ae>
 5ce:	70 61                	jo     631 <INT_SIZE_DATA+0x5f1>
 5d0:	73 73                	jae    645 <INT_SIZE_DATA+0x605>
 5d2:	77 6f                	ja     643 <INT_SIZE_DATA+0x603>
 5d4:	72 64                	jb     63a <INT_SIZE_DATA+0x5fa>
 5d6:	20 6f 72             	and    BYTE PTR [edi+0x72],ch
 5d9:	20 6e 61             	and    BYTE PTR [esi+0x61],ch
 5dc:	6d                   	ins    DWORD PTR es:[edi],dx
 5dd:	65 20 6b 65          	and    BYTE PTR gs:[ebx+0x65],ch
 5e1:	79 66                	jns    649 <INT_SIZE_DATA+0x609>
 5e3:	69 6c 65 3a 00 5b 58 	imul   ebp,DWORD PTR [ebp+eiz*2+0x3a],0x5d585b00
 5ea:	5d 
 5eb:	20 50 61             	and    BYTE PTR [eax+0x61],dl
 5ee:	73 73                	jae    663 <INT_SIZE_DATA+0x623>
 5f0:	77 6f                	ja     661 <INT_SIZE_DATA+0x621>
 5f2:	72 64                	jb     658 <INT_SIZE_DATA+0x618>
 5f4:	20 6e 6f             	and    BYTE PTR [esi+0x6f],ch
 5f7:	74 20                	je     619 <INT_SIZE_DATA+0x5d9>
 5f9:	72 65                	jb     660 <INT_SIZE_DATA+0x620>
 5fb:	61                   	popa   
 5fc:	64 20 66 72          	and    BYTE PTR fs:[esi+0x72],ah
 600:	6f                   	outs   dx,DWORD PTR ds:[esi]
 601:	6d                   	ins    DWORD PTR es:[edi],dx
 602:	20 63 6f             	and    BYTE PTR [ebx+0x6f],ah
 605:	6d                   	ins    DWORD PTR es:[edi],dx
 606:	6d                   	ins    DWORD PTR es:[edi],dx
 607:	61                   	popa   
 608:	6e                   	outs   dx,BYTE PTR ds:[esi]
 609:	64 20 6c 69 6e       	and    BYTE PTR fs:[ecx+ebp*2+0x6e],ch
 60e:	65 21 0a             	and    DWORD PTR gs:[edx],ecx
 611:	00 5b 58             	add    BYTE PTR [ebx+0x58],bl
 614:	5d                   	pop    ebp
 615:	20 4e 6f             	and    BYTE PTR [esi+0x6f],cl
 618:	74 20                	je     63a <INT_SIZE_DATA+0x5fa>
 61a:	74 65                	je     681 <INT_SIZE_DATA+0x641>
 61c:	72 6d                	jb     68b <INT_SIZE_DATA+0x64b>
 61e:	69 6e 61 6c 21 0a 00 	imul   ebp,DWORD PTR [esi+0x61],0xa216c
 625:	00 00                	add    BYTE PTR [eax],al
 627:	00 5b 21             	add    BYTE PTR [ebx+0x21],bl
 62a:	5d                   	pop    ebp
 62b:	20 57 61             	and    BYTE PTR [edi+0x61],dl
 62e:	72 6e                	jb     69e <INT_SIZE_DATA+0x65e>
 630:	69 6e 67 3a 20 61 72 	imul   ebp,DWORD PTR [esi+0x67],0x7261203a
 637:	67 75 6d             	addr16 jne 6a7 <INT_SIZE_DATA+0x667>
 63a:	65 6e                	outs   dx,BYTE PTR gs:[esi]
 63c:	74 20                	je     65e <INT_SIZE_DATA+0x61e>
 63e:	22 25 64 22 20 6c    	and    ah,BYTE PTR ds:0x6c202264
 644:	65 6e                	outs   dx,BYTE PTR gs:[esi]
 646:	67 74 68             	addr16 je 6b1 <INT_SIZE_DATA+0x671>
 649:	20 6d 6f             	and    BYTE PTR [ebp+0x6f],ch
 64c:	72 65                	jb     6b3 <INT_SIZE_DATA+0x673>
 64e:	20 22                	and    BYTE PTR [edx],ah
 650:	25 64 22 21 0a       	and    eax,0xa212264
 655:	00 00                	add    BYTE PTR [eax],al
 657:	00 5b 21             	add    BYTE PTR [ebx+0x21],bl
 65a:	5d                   	pop    ebp
 65b:	20 45 72             	and    BYTE PTR [ebp+0x72],al
 65e:	72 6f                	jb     6cf <INT_SIZE_DATA+0x68f>
 660:	72 3a                	jb     69c <INT_SIZE_DATA+0x65c>
 662:	20 63 6f             	and    BYTE PTR [ebx+0x6f],ah
 665:	75 6e                	jne    6d5 <INT_SIZE_DATA+0x695>
 667:	74 20                	je     689 <INT_SIZE_DATA+0x649>
 669:	61                   	popa   
 66a:	72 67                	jb     6d3 <INT_SIZE_DATA+0x693>
 66c:	75 6d                	jne    6db <INT_SIZE_DATA+0x69b>
 66e:	65 6e                	outs   dx,BYTE PTR gs:[esi]
 670:	74 73                	je     6e5 <INT_SIZE_DATA+0x6a5>
 672:	20 25 64 3b 20 6e    	and    BYTE PTR ds:0x6e203b64,ah
 678:	65 63 65 73          	arpl   WORD PTR gs:[ebp+0x73],sp
 67c:	73 61                	jae    6df <INT_SIZE_DATA+0x69f>
 67e:	72 79                	jb     6f9 <INT_SIZE_DATA+0x6b9>
 680:	20 74 6f 20          	and    BYTE PTR [edi+ebp*2+0x20],dh
 684:	32 20                	xor    ah,BYTE PTR [eax]
 686:	64 6f                	outs   dx,DWORD PTR fs:[esi]
 688:	20 37                	and    BYTE PTR [edi],dh
 68a:	20 73 74             	and    BYTE PTR [ebx+0x74],dh
 68d:	72 69                	jb     6f8 <INT_SIZE_DATA+0x6b8>
 68f:	6e                   	outs   dx,BYTE PTR ds:[esi]
 690:	67 73 21             	addr16 jae 6b4 <INT_SIZE_DATA+0x674>
 693:	0a 00                	or     al,BYTE PTR [eax]
 695:	2d 68 00 2d 2d       	sub    eax,0x2d2d0068
 69a:	68 65 6c 70 00       	push   0x706c65
 69f:	00 54 68 69          	add    BYTE PTR [eax+ebp*2+0x69],dl
 6a3:	73 20                	jae    6c5 <INT_SIZE_DATA+0x685>
 6a5:	69 73 20 73 6f 66 74 	imul   esi,DWORD PTR [ebx+0x20],0x74666f73
 6ac:	77 61                	ja     70f <INT_SIZE_DATA+0x6cf>
 6ae:	72 65                	jb     715 <INT_SIZE_DATA+0x6d5>
 6b0:	20 66 6f             	and    BYTE PTR [esi+0x6f],ah
 6b3:	72 20                	jb     6d5 <INT_SIZE_DATA+0x695>
 6b5:	65 6e                	outs   dx,BYTE PTR gs:[esi]
 6b7:	63 72 79             	arpl   WORD PTR [edx+0x79],si
 6ba:	70 74                	jo     730 <INT_SIZE_DATA+0x6f0>
 6bc:	2f                   	das    
 6bd:	64 65 63 72 79       	fs arpl WORD PTR gs:[edx+0x79],si
 6c2:	70 74                	jo     738 <INT_SIZE_DATA+0x6f8>
 6c4:	20 66 69             	and    BYTE PTR [esi+0x69],ah
 6c7:	6c                   	ins    BYTE PTR es:[edi],dx
 6c8:	65 73 2e             	gs jae 6f9 <INT_SIZE_DATA+0x6b9>
 6cb:	0a 00                	or     al,BYTE PTR [eax]
 6cd:	00 00                	add    BYTE PTR [eax],al
 6cf:	00 41 6c             	add    BYTE PTR [ecx+0x6c],al
 6d2:	67 6f                	outs   dx,DWORD PTR ds:[si]
 6d4:	72 69                	jb     73f <INT_SIZE_DATA+0x6ff>
 6d6:	74 6d                	je     745 <INT_SIZE_DATA+0x705>
 6d8:	73 3a                	jae    714 <INT_SIZE_DATA+0x6d4>
 6da:	0a 09                	or     cl,BYTE PTR [ecx]
 6dc:	2d 72 2f 2d 2d       	sub    eax,0x2d2d2f72
 6e1:	61                   	popa   
 6e2:	65 73 0a             	gs jae 6ef <INT_SIZE_DATA+0x6af>
 6e5:	09 2d 73 2f 2d 2d    	or     DWORD PTR ds:0x2d2d2f73,ebp
 6eb:	73 65                	jae    752 <INT_SIZE_DATA+0x712>
 6ed:	72 70                	jb     75f <INT_SIZE_DATA+0x71f>
 6ef:	65 6e                	outs   dx,BYTE PTR gs:[esi]
 6f1:	74 0a                	je     6fd <INT_SIZE_DATA+0x6bd>
 6f3:	09 2d 77 2f 2d 2d    	or     DWORD PTR ds:0x2d2d2f77,ebp
 6f9:	74 77                	je     772 <INT_SIZE_DATA+0x732>
 6fb:	6f                   	outs   dx,DWORD PTR ds:[esi]
 6fc:	66 69 73 68 0a 09    	imul   si,WORD PTR [ebx+0x68],0x90a
 702:	2d 62 2f 2d 2d       	sub    eax,0x2d2d2f62
 707:	62 6c 6f 77          	bound  ebp,QWORD PTR [edi+ebp*2+0x77]
 70b:	66 69 73 68 0a 09    	imul   si,WORD PTR [ebx+0x68],0x90a
 711:	2d 74 2f 2d 2d       	sub    eax,0x2d2d2f74
 716:	74 68                	je     780 <INT_SIZE_DATA+0x740>
 718:	72 65                	jb     77f <INT_SIZE_DATA+0x73f>
 71a:	65 66 69 73 68 00 4f 	imul   si,WORD PTR gs:[ebx+0x68],0x4f00
 721:	70 65                	jo     788 <INT_SIZE_DATA+0x748>
 723:	72 61                	jb     786 <INT_SIZE_DATA+0x746>
 725:	74 69                	je     790 <INT_SIZE_DATA+0x750>
 727:	6f                   	outs   dx,DWORD PTR ds:[esi]
 728:	6e                   	outs   dx,BYTE PTR ds:[esi]
 729:	73 3a                	jae    765 <INT_SIZE_DATA+0x725>
 72b:	0a 09                	or     cl,BYTE PTR [ecx]
 72d:	2d 65 2f 2d 2d       	sub    eax,0x2d2d2f65
 732:	65 6e                	outs   dx,BYTE PTR gs:[esi]
 734:	63 72 79             	arpl   WORD PTR [edx+0x79],si
 737:	70 74                	jo     7ad <INT_SIZE_DATA+0x76d>
 739:	0a 09                	or     cl,BYTE PTR [ecx]
 73b:	2d 64 2f 2d 2d       	sub    eax,0x2d2d2f64
 740:	64 65 63 72 79       	fs arpl WORD PTR gs:[edx+0x79],si
 745:	70 74                	jo     7bb <INT_SIZE_DATA+0x77b>
 747:	00 4c 65 6e          	add    BYTE PTR [ebp+eiz*2+0x6e],cl
 74b:	67 74 68             	addr16 je 7b6 <INT_SIZE_DATA+0x776>
 74e:	73 20                	jae    770 <INT_SIZE_DATA+0x730>
 750:	6b 65 79 3a          	imul   esp,DWORD PTR [ebp+0x79],0x3a
 754:	0a 09                	or     cl,BYTE PTR [ecx]
 756:	2d 61 2f 2d 2d       	sub    eax,0x2d2d2f61
 75b:	31 32                	xor    DWORD PTR [edx],esi
 75d:	38 2f                	cmp    BYTE PTR [edi],ch
 75f:	2d 2d 32 35 36       	sub    eax,0x3635322d
 764:	0a 09                	or     cl,BYTE PTR [ecx]
 766:	2d 62 2f 2d 2d       	sub    eax,0x2d2d2f62
 76b:	31 39                	xor    DWORD PTR [ecx],edi
 76d:	32 2f                	xor    ch,BYTE PTR [edi]
 76f:	2d 2d 35 31 32       	sub    eax,0x3231352d
 774:	0a 09                	or     cl,BYTE PTR [ecx]
 776:	2d 63 2f 2d 2d       	sub    eax,0x2d2d2f63
 77b:	32 35 36 2f 2d 2d    	xor    dh,BYTE PTR ds:0x2d2d2f36
 781:	31 30                	xor    DWORD PTR [eax],esi
 783:	32 34 0a             	xor    dh,BYTE PTR [edx+ecx*1]
 786:	00 00                	add    BYTE PTR [eax],al
 788:	45                   	inc    ebp
 789:	6e                   	outs   dx,BYTE PTR ds:[esi]
 78a:	74 65                	je     7f1 <INT_SIZE_DATA+0x7b1>
 78c:	72 3a                	jb     7c8 <INT_SIZE_DATA+0x788>
 78e:	20 25 73 20 5b 61    	and    BYTE PTR ds:0x615b2073,ah
 794:	6c                   	ins    BYTE PTR es:[edi],dx
 795:	67 6f                	outs   dx,DWORD PTR ds:[si]
 797:	72 69                	jb     802 <INT_SIZE_DATA+0x7c2>
 799:	74 6d                	je     808 <INT_SIZE_DATA+0x7c8>
 79b:	5d                   	pop    ebp
 79c:	20 5b 6f             	and    BYTE PTR [ebx+0x6f],bl
 79f:	70 65                	jo     806 <INT_SIZE_DATA+0x7c6>
 7a1:	72 61                	jb     804 <INT_SIZE_DATA+0x7c4>
 7a3:	74 69                	je     80e <INT_SIZE_DATA+0x7ce>
 7a5:	6f                   	outs   dx,DWORD PTR ds:[esi]
 7a6:	6e                   	outs   dx,BYTE PTR ds:[esi]
 7a7:	5d                   	pop    ebp
 7a8:	20 5b 6b             	and    BYTE PTR [ebx+0x6b],bl
 7ab:	65 79 20             	gs jns 7ce <INT_SIZE_DATA+0x78e>
 7ae:	6c                   	ins    BYTE PTR es:[edi],dx
 7af:	65 6e                	outs   dx,BYTE PTR gs:[esi]
 7b1:	67 74 68             	addr16 je 81c <INT_SIZE_DATA+0x7dc>
 7b4:	5d                   	pop    ebp
 7b5:	20 5b 69             	and    BYTE PTR [ebx+0x69],bl
 7b8:	6e                   	outs   dx,BYTE PTR ds:[esi]
 7b9:	70 75                	jo     830 <INT_SIZE_DATA+0x7f0>
 7bb:	74 20                	je     7dd <INT_SIZE_DATA+0x79d>
 7bd:	66 69 6c 65 6e 61 6d 	imul   bp,WORD PTR [ebp+eiz*2+0x6e],0x6d61
 7c4:	65 5d                	gs pop ebp
 7c6:	20 5b 6f             	and    BYTE PTR [ebx+0x6f],bl
 7c9:	75 74                	jne    83f <INT_SIZE_DATA+0x7ff>
 7cb:	70 75                	jo     842 <INT_SIZE_DATA+0x802>
 7cd:	74 20                	je     7ef <INT_SIZE_DATA+0x7af>
 7cf:	66 69 6c 65 6e 61 6d 	imul   bp,WORD PTR [ebp+eiz*2+0x6e],0x6d61
 7d6:	65 5d                	gs pop ebp
 7d8:	0a 00                	or     al,BYTE PTR [eax]
 7da:	00 00                	add    BYTE PTR [eax],al
 7dc:	5b                   	pop    ebx
 7dd:	21 5d 20             	and    DWORD PTR [ebp+0x20],ebx
 7e0:	49                   	dec    ecx
 7e1:	6e                   	outs   dx,BYTE PTR ds:[esi]
 7e2:	63 6f 72             	arpl   WORD PTR [edi+0x72],bp
 7e5:	72 65                	jb     84c <INT_SIZE_DATA+0x80c>
 7e7:	63 74 20 70          	arpl   WORD PTR [eax+eiz*1+0x70],si
 7eb:	61                   	popa   
 7ec:	72 61                	jb     84f <INT_SIZE_DATA+0x80f>
 7ee:	6d                   	ins    DWORD PTR es:[edi],dx
 7ef:	65 74 65             	gs je  857 <INT_SIZE_DATA+0x817>
 7f2:	72 20                	jb     814 <INT_SIZE_DATA+0x7d4>
 7f4:	22 25 73 22 21 20    	and    ah,BYTE PTR ds:0x20212273
 7fa:	4f                   	dec    edi
 7fb:	6e                   	outs   dx,BYTE PTR ds:[esi]
 7fc:	6c                   	ins    BYTE PTR es:[edi],dx
 7fd:	79 20                	jns    81f <INT_SIZE_DATA+0x7df>
 7ff:	22 2d 68 22 20 6f    	and    ch,BYTE PTR ds:0x6f202268
 805:	72 20                	jb     827 <INT_SIZE_DATA+0x7e7>
 807:	22 2d 2d 68 65 6c    	and    ch,BYTE PTR ds:0x6c65682d
 80d:	70 22                	jo     831 <INT_SIZE_DATA+0x7f1>
 80f:	2e 0a 00             	or     al,BYTE PTR cs:[eax]
 812:	30 31                	xor    BYTE PTR [ecx],dh
 814:	3a 30                	cmp    dh,BYTE PTR [eax]
 816:	39 3a                	cmp    DWORD PTR [edx],edi
 818:	30 37                	xor    BYTE PTR [edi],dh
 81a:	00 4a 75             	add    BYTE PTR [edx+0x75],cl
 81d:	6c                   	ins    BYTE PTR es:[edi],dx
 81e:	20 32                	and    BYTE PTR [edx],dh
 820:	38 20                	cmp    BYTE PTR [eax],ah
 822:	32 30                	xor    dh,BYTE PTR [eax]
 824:	32 34 00             	xor    dh,BYTE PTR [eax+eax*1]
 827:	00 5b 44             	add    BYTE PTR [ebx+0x44],bl
 82a:	45                   	inc    ebp
 82b:	42                   	inc    edx
 82c:	55                   	push   ebp
 82d:	47                   	inc    edi
 82e:	5d                   	pop    ebp
 82f:	20 63 6f             	and    BYTE PTR [ebx+0x6f],ah
 832:	6d                   	ins    DWORD PTR es:[edi],dx
 833:	70 69                	jo     89e <INT_SIZE_DATA+0x85e>
 835:	6c                   	ins    BYTE PTR es:[edi],dx
 836:	65 20 64 61 74       	and    BYTE PTR gs:[ecx+eiz*2+0x74],ah
 83b:	65 20 61 6e          	and    BYTE PTR gs:[ecx+0x6e],ah
 83f:	64 20 74 69 6d       	and    BYTE PTR fs:[ecx+ebp*2+0x6d],dh
 844:	65 3a 20             	cmp    ah,BYTE PTR gs:[eax]
 847:	20 20                	and    BYTE PTR [eax],ah
 849:	25 73 2c 20 25       	and    eax,0x25202c73
 84e:	73 0a                	jae    85a <INT_SIZE_DATA+0x81a>
 850:	00 00                	add    BYTE PTR [eax],al
 852:	00 00                	add    BYTE PTR [eax],al
 854:	5b                   	pop    ebx
 855:	44                   	inc    esp
 856:	45                   	inc    ebp
 857:	42                   	inc    edx
 858:	55                   	push   ebp
 859:	47                   	inc    edi
 85a:	5d                   	pop    ebp
 85b:	20 67 6c             	and    BYTE PTR [edi+0x6c],ah
 85e:	6f                   	outs   dx,DWORD PTR ds:[esi]
 85f:	62 61 6c             	bound  esp,QWORD PTR [ecx+0x6c]
 862:	20 6d 65             	and    BYTE PTR [ebp+0x65],ch
 865:	6d                   	ins    DWORD PTR es:[edi],dx
 866:	6f                   	outs   dx,DWORD PTR ds:[esi]
 867:	72 79                	jb     8e2 <INT_SIZE_DATA+0x8a2>
 869:	20 61 6c             	and    BYTE PTR [ecx+0x6c],ah
 86c:	6c                   	ins    BYTE PTR es:[edi],dx
 86d:	6f                   	outs   dx,DWORD PTR ds:[esi]
 86e:	63 61 74             	arpl   WORD PTR [ecx+0x74],sp
 871:	65 64 3a 20          	gs cmp ah,BYTE PTR fs:[eax]
 875:	25 75 20 62 79       	and    eax,0x79622075
 87a:	74 65                	je     8e1 <INT_SIZE_DATA+0x8a1>
 87c:	0a 00                	or     al,BYTE PTR [eax]
 87e:	00 00                	add    BYTE PTR [eax],al
 880:	5b                   	pop    ebx
 881:	44                   	inc    esp
 882:	45                   	inc    ebp
 883:	42                   	inc    edx
 884:	55                   	push   ebp
 885:	47                   	inc    edi
 886:	5d                   	pop    ebp
 887:	20 67 6c             	and    BYTE PTR [edi+0x6c],ah
 88a:	6f                   	outs   dx,DWORD PTR ds:[esi]
 88b:	62 61 6c             	bound  esp,QWORD PTR [ecx+0x6c]
 88e:	20 6d 65             	and    BYTE PTR [ebp+0x65],ch
 891:	6d                   	ins    DWORD PTR es:[edi],dx
 892:	6f                   	outs   dx,DWORD PTR ds:[esi]
 893:	72 79                	jb     90e <INT_SIZE_DATA+0x8ce>
 895:	20 70 6f             	and    BYTE PTR [eax+0x6f],dh
 898:	69 6e 74 65 72 3a 20 	imul   ebp,DWORD PTR [esi+0x74],0x203a7265
 89f:	20 20                	and    BYTE PTR [eax],ah
 8a1:	25 70 0a 00 00       	and    eax,0xa70
 8a6:	00 00                	add    BYTE PTR [eax],al
 8a8:	5b                   	pop    ebx
 8a9:	44                   	inc    esp
 8aa:	45                   	inc    ebp
 8ab:	42                   	inc    edx
 8ac:	55                   	push   ebp
 8ad:	47                   	inc    edi
 8ae:	5d                   	pop    ebp
 8af:	20 73 69             	and    BYTE PTR [ebx+0x69],dh
 8b2:	7a 65                	jp     919 <INT_SIZE_DATA+0x8d9>
 8b4:	20 73 74             	and    BYTE PTR [ebx+0x74],dh
 8b7:	72 75                	jb     92e <INT_SIZE_DATA+0x8ee>
 8b9:	63 74 20 66          	arpl   WORD PTR [eax+eiz*1+0x66],si
 8bd:	6f                   	outs   dx,DWORD PTR ds:[esi]
 8be:	72 20                	jb     8e0 <INT_SIZE_DATA+0x8a0>
 8c0:	73 68                	jae    92a <INT_SIZE_DATA+0x8ea>
 8c2:	61                   	popa   
 8c3:	32 35 36 73 75 6d    	xor    dh,BYTE PTR ds:0x6d757336
 8c9:	20 66 75             	and    BYTE PTR [esi+0x75],ah
 8cc:	6e                   	outs   dx,BYTE PTR ds:[esi]
 8cd:	63 74 69 6f          	arpl   WORD PTR [ecx+ebp*2+0x6f],si
 8d1:	6e                   	outs   dx,BYTE PTR ds:[esi]
 8d2:	3a 20                	cmp    ah,BYTE PTR [eax]
 8d4:	25 75 20 62 79       	and    eax,0x79622075
 8d9:	74 65                	je     940 <INT_SIZE_DATA+0x900>
 8db:	0a 00                	or     al,BYTE PTR [eax]
 8dd:	00 00                	add    BYTE PTR [eax],al
 8df:	00 5b 44             	add    BYTE PTR [ebx+0x44],bl
 8e2:	45                   	inc    ebp
 8e3:	42                   	inc    edx
 8e4:	55                   	push   ebp
 8e5:	47                   	inc    edi
 8e6:	5d                   	pop    ebp
 8e7:	20 73 68             	and    BYTE PTR [ebx+0x68],dh
 8ea:	61                   	popa   
 8eb:	32 35 36 73 75 6d    	xor    dh,BYTE PTR ds:0x6d757336
 8f1:	20 73 74             	and    BYTE PTR [ebx+0x74],dh
 8f4:	72 75                	jb     96b <INT_SIZE_DATA+0x92b>
 8f6:	63 74 20 63          	arpl   WORD PTR [eax+eiz*1+0x63],si
 8fa:	72 65                	jb     961 <INT_SIZE_DATA+0x921>
 8fc:	61                   	popa   
 8fd:	74 65                	je     964 <INT_SIZE_DATA+0x924>
 8ff:	20 69 6e             	and    BYTE PTR [ecx+0x6e],ch
 902:	20 70 6f             	and    BYTE PTR [eax+0x6f],dh
 905:	69 6e 74 65 72 3a 20 	imul   ebp,DWORD PTR [esi+0x74],0x203a7265
 90c:	25 70 0a 00 5b       	and    eax,0x5b000a70
 911:	44                   	inc    esp
 912:	45                   	inc    ebp
 913:	42                   	inc    edx
 914:	55                   	push   ebp
 915:	47                   	inc    edi
 916:	5d                   	pop    ebp
 917:	20 6d 61             	and    BYTE PTR [ebp+0x61],ch
 91a:	78 69                	js     985 <INT_SIZE_DATA+0x945>
 91c:	6d                   	ins    DWORD PTR es:[edi],dx
 91d:	61                   	popa   
 91e:	6c                   	ins    BYTE PTR es:[edi],dx
 91f:	20 6c 65 6e          	and    BYTE PTR [ebp+eiz*2+0x6e],ch
 923:	67 74 68             	addr16 je 98e <INT_SIZE_DATA+0x94e>
 926:	20 70 61             	and    BYTE PTR [eax+0x61],dh
 929:	73 73                	jae    99e <INT_SIZE_DATA+0x95e>
 92b:	77 6f                	ja     99c <INT_SIZE_DATA+0x95c>
 92d:	72 64                	jb     993 <INT_SIZE_DATA+0x953>
 92f:	20 6f 72             	and    BYTE PTR [edi+0x72],ch
 932:	20 6e 61             	and    BYTE PTR [esi+0x61],ch
 935:	6d                   	ins    DWORD PTR es:[edi],dx
 936:	65 20 6b 65          	and    BYTE PTR gs:[ebx+0x65],ch
 93a:	79 66                	jns    9a2 <INT_SIZE_DATA+0x962>
 93c:	69 6c 65 3a 20 25 75 	imul   ebp,DWORD PTR [ebp+eiz*2+0x3a],0x20752520
 943:	20 
 944:	62 79 74             	bound  edi,QWORD PTR [ecx+0x74]
 947:	65 0a 00             	or     al,BYTE PTR gs:[eax]
 94a:	00 00                	add    BYTE PTR [eax],al
 94c:	5b                   	pop    ebx
 94d:	44                   	inc    esp
 94e:	45                   	inc    ebp
 94f:	42                   	inc    edx
 950:	55                   	push   ebp
 951:	47                   	inc    edi
 952:	5d                   	pop    ebp
 953:	20 70 6f             	and    BYTE PTR [eax+0x6f],dh
 956:	69 6e 74 65 72 20 6f 	imul   ebp,DWORD PTR [esi+0x74],0x6f207265
 95d:	66 20 6d 65          	data16 and BYTE PTR [ebp+0x65],ch
 961:	6d                   	ins    DWORD PTR es:[edi],dx
 962:	6f                   	outs   dx,DWORD PTR ds:[esi]
 963:	72 79                	jb     9de <INT_SIZE_DATA+0x99e>
 965:	20 66 6f             	and    BYTE PTR [esi+0x6f],ah
 968:	72 20                	jb     98a <INT_SIZE_DATA+0x94a>
 96a:	70 61                	jo     9cd <INT_SIZE_DATA+0x98d>
 96c:	73 73                	jae    9e1 <INT_SIZE_DATA+0x9a1>
 96e:	77 6f                	ja     9df <INT_SIZE_DATA+0x99f>
 970:	72 64                	jb     9d6 <INT_SIZE_DATA+0x996>
 972:	20 6f 72             	and    BYTE PTR [edi+0x72],ch
 975:	20 6e 61             	and    BYTE PTR [esi+0x61],ch
 978:	6d                   	ins    DWORD PTR es:[edi],dx
 979:	65 20 6b 65          	and    BYTE PTR gs:[ebx+0x65],ch
 97d:	79 66                	jns    9e5 <INT_SIZE_DATA+0x9a5>
 97f:	69 6c 65 3a 20 25 70 	imul   ebp,DWORD PTR [ebp+eiz*2+0x3a],0xa702520
 986:	0a 
 987:	00 2d 62 00 2d 2d    	add    BYTE PTR ds:0x2d2d0062,ch
 98d:	62 6c 6f 77          	bound  ebp,QWORD PTR [edi+ebp*2+0x77]
 991:	66 69 73 68 00 2d    	imul   si,WORD PTR [ebx+0x68],0x2d00
 997:	74 00                	je     999 <INT_SIZE_DATA+0x959>
 999:	2d 2d 74 68 72       	sub    eax,0x7268742d
 99e:	65 65 66 69 73 68 00 	gs imul si,WORD PTR gs:[ebx+0x68],0x2d00
 9a5:	2d 
 9a6:	72 00                	jb     9a8 <INT_SIZE_DATA+0x968>
 9a8:	2d 2d 61 65 73       	sub    eax,0x7365612d
 9ad:	00 2d 73 00 2d 2d    	add    BYTE PTR ds:0x2d2d0073,ch
 9b3:	73 65                	jae    a1a <INT_SIZE_DATA+0x9da>
 9b5:	72 70                	jb     a27 <INT_SIZE_DATA+0x9e7>
 9b7:	65 6e                	outs   dx,BYTE PTR gs:[esi]
 9b9:	74 00                	je     9bb <INT_SIZE_DATA+0x97b>
 9bb:	2d 77 00 2d 2d       	sub    eax,0x2d2d0077
 9c0:	74 77                	je     a39 <INT_SIZE_DATA+0x9f9>
 9c2:	6f                   	outs   dx,DWORD PTR ds:[esi]
 9c3:	66 69 73 68 00 5b    	imul   si,WORD PTR [ebx+0x68],0x5b00
 9c9:	21 5d 20             	and    DWORD PTR [ebp+0x20],ebx
 9cc:	4e                   	dec    esi
 9cd:	61                   	popa   
 9ce:	6d                   	ins    DWORD PTR es:[edi],dx
 9cf:	65 20 63 69          	and    BYTE PTR gs:[ebx+0x69],ah
 9d3:	70 68                	jo     a3d <INT_SIZE_DATA+0x9fd>
 9d5:	65 72 20             	gs jb  9f8 <INT_SIZE_DATA+0x9b8>
 9d8:	22 25 73 22 20 69    	and    ah,BYTE PTR ds:0x69202273
 9de:	6e                   	outs   dx,BYTE PTR ds:[esi]
 9df:	63 6f 72             	arpl   WORD PTR [edi+0x72],bp
 9e2:	72 65                	jb     a49 <INT_SIZE_DATA+0xa09>
 9e4:	63 74 21 0a          	arpl   WORD PTR [ecx+eiz*1+0xa],si
 9e8:	00 2d 65 00 2d 2d    	add    BYTE PTR ds:0x2d2d0065,ch
 9ee:	65 6e                	outs   dx,BYTE PTR gs:[esi]
 9f0:	63 72 79             	arpl   WORD PTR [edx+0x79],si
 9f3:	70 74                	jo     a69 <INT_SIZE_DATA+0xa29>
 9f5:	00 2d 64 00 2d 2d    	add    BYTE PTR ds:0x2d2d0064,ch
 9fb:	64 65 63 72 79       	fs arpl WORD PTR gs:[edx+0x79],si
 a00:	70 74                	jo     a76 <INT_SIZE_DATA+0xa36>
 a02:	00 00                	add    BYTE PTR [eax],al
 a04:	5b                   	pop    ebx
 a05:	21 5d 20             	and    DWORD PTR [ebp+0x20],ebx
 a08:	4f                   	dec    edi
 a09:	70 65                	jo     a70 <INT_SIZE_DATA+0xa30>
 a0b:	72 61                	jb     a6e <INT_SIZE_DATA+0xa2e>
 a0d:	74 69                	je     a78 <INT_SIZE_DATA+0xa38>
 a0f:	6f                   	outs   dx,DWORD PTR ds:[esi]
 a10:	6e                   	outs   dx,BYTE PTR ds:[esi]
 a11:	20 22                	and    BYTE PTR [edx],ah
 a13:	25 73 22 20 69       	and    eax,0x69202273
 a18:	6e                   	outs   dx,BYTE PTR ds:[esi]
 a19:	63 6f 72             	arpl   WORD PTR [edi+0x72],bp
 a1c:	72 65                	jb     a83 <INT_SIZE_DATA+0xa43>
 a1e:	63 74 21 0a          	arpl   WORD PTR [ecx+eiz*1+0xa],si
 a22:	00 2d 61 00 2d 2d    	add    BYTE PTR ds:0x2d2d0061,ch
 a28:	31 32                	xor    DWORD PTR [edx],esi
 a2a:	38 00                	cmp    BYTE PTR [eax],al
 a2c:	2d 2d 31 39 32       	sub    eax,0x3239312d
 a31:	00 2d 63 00 2d 2d    	add    BYTE PTR ds:0x2d2d0063,ch
 a37:	32 35 36 00 00 5b    	xor    dh,BYTE PTR ds:0x5b000036
 a3d:	21 5d 20             	and    DWORD PTR [ebp+0x20],ebx
 a40:	4b                   	dec    ebx
 a41:	65 79 20             	gs jns a64 <INT_SIZE_DATA+0xa24>
 a44:	6c                   	ins    BYTE PTR es:[edi],dx
 a45:	65 6e                	outs   dx,BYTE PTR gs:[esi]
 a47:	67 74 68             	addr16 je ab2 <INT_SIZE_DATA+0xa72>
 a4a:	20 22                	and    BYTE PTR [edx],ah
 a4c:	25 73 22 20 69       	and    eax,0x69202273
 a51:	6e                   	outs   dx,BYTE PTR ds:[esi]
 a52:	63 6f 72             	arpl   WORD PTR [edi+0x72],bp
 a55:	72 65                	jb     abc <INT_SIZE_DATA+0xa7c>
 a57:	63 74 21 0a          	arpl   WORD PTR [ecx+eiz*1+0xa],si
 a5b:	00 2d 2d 35 31 32    	add    BYTE PTR ds:0x3231352d,ch
 a61:	00 2d 2d 31 30 32    	add    BYTE PTR ds:0x3230312d,ch
 a67:	34 00                	xor    al,0x0
 a69:	00 00                	add    BYTE PTR [eax],al
 a6b:	00 5b 21             	add    BYTE PTR [ebx+0x21],bl
 a6e:	5d                   	pop    ebp
 a6f:	20 4e 61             	and    BYTE PTR [esi+0x61],cl
 a72:	6d                   	ins    DWORD PTR es:[edi],dx
 a73:	65 73 20             	gs jae a96 <INT_SIZE_DATA+0xa56>
 a76:	69 6e 70 75 74 20 61 	imul   ebp,DWORD PTR [esi+0x70],0x61207475
 a7d:	6e                   	outs   dx,BYTE PTR ds:[esi]
 a7e:	64 20 6f 75          	and    BYTE PTR fs:[edi+0x75],ch
 a82:	74 70                	je     af4 <INT_SIZE_DATA+0xab4>
 a84:	75 74                	jne    afa <INT_SIZE_DATA+0xaba>
 a86:	20 66 69             	and    BYTE PTR [esi+0x69],ah
 a89:	6c                   	ins    BYTE PTR es:[edi],dx
 a8a:	65 73 20             	gs jae aad <INT_SIZE_DATA+0xa6d>
 a8d:	65 71 75             	gs jno b05 <INT_SIZE_DATA+0xac5>
 a90:	61                   	popa   
 a91:	6c                   	ins    BYTE PTR es:[edi],dx
 a92:	21 0a                	and    DWORD PTR [edx],ecx
 a94:	00 00                	add    BYTE PTR [eax],al
 a96:	00 00                	add    BYTE PTR [eax],al
 a98:	5b                   	pop    ebx
 a99:	21 5d 20             	and    DWORD PTR [ebp+0x20],ebx
 a9c:	4e                   	dec    esi
 a9d:	61                   	popa   
 a9e:	6d                   	ins    DWORD PTR es:[edi],dx
 a9f:	65 73 20             	gs jae ac2 <INT_SIZE_DATA+0xa82>
 aa2:	6b 65 79 66          	imul   esp,DWORD PTR [ebp+0x79],0x66
 aa6:	69 6c 65 20 61 6e 64 	imul   ebp,DWORD PTR [ebp+eiz*2+0x20],0x20646e61
 aad:	20 
 aae:	6f                   	outs   dx,DWORD PTR ds:[esi]
 aaf:	75 74                	jne    b25 <INT_SIZE_DATA+0xae5>
 ab1:	70 75                	jo     b28 <INT_SIZE_DATA+0xae8>
 ab3:	74 20                	je     ad5 <INT_SIZE_DATA+0xa95>
 ab5:	66 69 6c 65 73 20 65 	imul   bp,WORD PTR [ebp+eiz*2+0x73],0x6520
 abc:	71 75                	jno    b33 <INT_SIZE_DATA+0xaf3>
 abe:	61                   	popa   
 abf:	6c                   	ins    BYTE PTR es:[edi],dx
 ac0:	21 0a                	and    DWORD PTR [edx],ecx
 ac2:	00 00                	add    BYTE PTR [eax],al
 ac4:	5b                   	pop    ebx
 ac5:	21 5d 20             	and    DWORD PTR [ebp+0x20],ebx
 ac8:	4e                   	dec    esi
 ac9:	61                   	popa   
 aca:	6d                   	ins    DWORD PTR es:[edi],dx
 acb:	65 73 20             	gs jae aee <INT_SIZE_DATA+0xaae>
 ace:	6b 65 79 66          	imul   esp,DWORD PTR [ebp+0x79],0x66
 ad2:	69 6c 65 20 61 6e 64 	imul   ebp,DWORD PTR [ebp+eiz*2+0x20],0x20646e61
 ad9:	20 
 ada:	69 6e 70 75 74 20 66 	imul   ebp,DWORD PTR [esi+0x70],0x66207475
 ae1:	69 6c 65 73 20 65 71 	imul   ebp,DWORD PTR [ebp+eiz*2+0x73],0x75716520
 ae8:	75 
 ae9:	61                   	popa   
 aea:	6c                   	ins    BYTE PTR es:[edi],dx
 aeb:	21 0a                	and    DWORD PTR [edx],ecx
 aed:	00 00                	add    BYTE PTR [eax],al
 aef:	00 5b 44             	add    BYTE PTR [ebx+0x44],bl
 af2:	45                   	inc    ebp
 af3:	42                   	inc    edx
 af4:	55                   	push   ebp
 af5:	47                   	inc    edi
 af6:	5d                   	pop    ebp
 af7:	20 69 6e             	and    BYTE PTR [ecx+0x6e],ch
 afa:	70 75                	jo     b71 <INT_SIZE_DATA+0xb31>
 afc:	74 20                	je     b1e <INT_SIZE_DATA+0xade>
 afe:	66 69 6c 65 6e 61 6d 	imul   bp,WORD PTR [ebp+eiz*2+0x6e],0x6d61
 b05:	65 3a 20             	cmp    ah,BYTE PTR gs:[eax]
 b08:	20 20                	and    BYTE PTR [eax],ah
 b0a:	20 20                	and    BYTE PTR [eax],ah
 b0c:	20 25 73 0a 00 00    	and    BYTE PTR ds:0xa73,ah
 b12:	00 00                	add    BYTE PTR [eax],al
 b14:	5b                   	pop    ebx
 b15:	44                   	inc    esp
 b16:	45                   	inc    ebp
 b17:	42                   	inc    edx
 b18:	55                   	push   ebp
 b19:	47                   	inc    edi
 b1a:	5d                   	pop    ebp
 b1b:	20 6f 75             	and    BYTE PTR [edi+0x75],ch
 b1e:	74 70                	je     b90 <INT_SIZE_DATA+0xb50>
 b20:	75 74                	jne    b96 <INT_SIZE_DATA+0xb56>
 b22:	20 66 69             	and    BYTE PTR [esi+0x69],ah
 b25:	6c                   	ins    BYTE PTR es:[edi],dx
 b26:	65 6e                	outs   dx,BYTE PTR gs:[esi]
 b28:	61                   	popa   
 b29:	6d                   	ins    DWORD PTR es:[edi],dx
 b2a:	65 3a 20             	cmp    ah,BYTE PTR gs:[eax]
 b2d:	20 20                	and    BYTE PTR [eax],ah
 b2f:	20 20                	and    BYTE PTR [eax],ah
 b31:	25 73 0a 00 00       	and    eax,0xa73
 b36:	00 00                	add    BYTE PTR [eax],al
 b38:	5b                   	pop    ebx
 b39:	44                   	inc    esp
 b3a:	45                   	inc    ebp
 b3b:	42                   	inc    edx
 b3c:	55                   	push   ebp
 b3d:	47                   	inc    edi
 b3e:	5d                   	pop    ebp
 b3f:	20 6b 65             	and    BYTE PTR [ebx+0x65],ch
 b42:	79 66                	jns    baa <INT_SIZE_DATA+0xb6a>
 b44:	69 6c 65 20 6f 72 20 	imul   ebp,DWORD PTR [ebp+eiz*2+0x20],0x7020726f
 b4b:	70 
 b4c:	61                   	popa   
 b4d:	73 73                	jae    bc2 <INT_SIZE_DATA+0xb82>
 b4f:	77 6f                	ja     bc0 <INT_SIZE_DATA+0xb80>
 b51:	72 64                	jb     bb7 <INT_SIZE_DATA+0xb77>
 b53:	3a 20                	cmp    ah,BYTE PTR [eax]
 b55:	25 73 0a 00 5b       	and    eax,0x5b000a73
 b5a:	44                   	inc    esp
 b5b:	45                   	inc    ebp
 b5c:	42                   	inc    edx
 b5d:	55                   	push   ebp
 b5e:	47                   	inc    edi
 b5f:	5d                   	pop    ebp
 b60:	20 63 69             	and    BYTE PTR [ebx+0x69],ah
 b63:	70 68                	jo     bcd <INT_SIZE_DATA+0xb8d>
 b65:	65 72 3a             	gs jb  ba2 <INT_SIZE_DATA+0xb62>
 b68:	20 25 73 0a 00 00    	and    BYTE PTR ds:0xa73,ah
 b6e:	00 00                	add    BYTE PTR [eax],al
 b70:	5b                   	pop    ebx
 b71:	44                   	inc    esp
 b72:	45                   	inc    ebp
 b73:	42                   	inc    edx
 b74:	55                   	push   ebp
 b75:	47                   	inc    edi
 b76:	5d                   	pop    ebp
 b77:	20 62 6c             	and    BYTE PTR [edx+0x6c],ah
 b7a:	6f                   	outs   dx,DWORD PTR ds:[esi]
 b7b:	63 6b 20             	arpl   WORD PTR [ebx+0x20],bp
 b7e:	63 69 70             	arpl   WORD PTR [ecx+0x70],bp
 b81:	68 65 72 20 6d       	push   0x6d207265
 b86:	6f                   	outs   dx,DWORD PTR ds:[esi]
 b87:	64 65 20 6f 66       	fs and BYTE PTR gs:[edi+0x66],ch
 b8c:	20 6f 70             	and    BYTE PTR [edi+0x70],ch
 b8f:	65 72 61             	gs jb  bf3 <INT_SIZE_DATA+0xbb3>
 b92:	74 69                	je     bfd <INT_SIZE_DATA+0xbbd>
 b94:	6f                   	outs   dx,DWORD PTR ds:[esi]
 b95:	6e                   	outs   dx,BYTE PTR ds:[esi]
 b96:	3a 20                	cmp    ah,BYTE PTR [eax]
 b98:	43                   	inc    ebx
 b99:	46                   	inc    esi
 b9a:	42                   	inc    edx
 b9b:	00 5b 44             	add    BYTE PTR [ebx+0x44],bl
 b9e:	45                   	inc    ebp
 b9f:	42                   	inc    edx
 ba0:	55                   	push   ebp
 ba1:	47                   	inc    edi
 ba2:	5d                   	pop    ebp
 ba3:	20 6b 65             	and    BYTE PTR [ebx+0x65],ch
 ba6:	79 20                	jns    bc8 <INT_SIZE_DATA+0xb88>
 ba8:	6c                   	ins    BYTE PTR es:[edi],dx
 ba9:	65 6e                	outs   dx,BYTE PTR gs:[esi]
 bab:	67 74 68             	addr16 je c16 <INT_SIZE_DATA+0xbd6>
 bae:	3a 20                	cmp    ah,BYTE PTR [eax]
 bb0:	25 75 20 62 69       	and    eax,0x69622075
 bb5:	73 74                	jae    c2b <INT_SIZE_DATA+0xbeb>
 bb7:	0a 00                	or     al,BYTE PTR [eax]
 bb9:	5b                   	pop    ebx
 bba:	44                   	inc    esp
 bbb:	45                   	inc    ebp
 bbc:	42                   	inc    edx
 bbd:	55                   	push   ebp
 bbe:	47                   	inc    edi
 bbf:	5d                   	pop    ebp
 bc0:	20 6f 70             	and    BYTE PTR [edi+0x70],ch
 bc3:	65 72 61             	gs jb  c27 <INT_SIZE_DATA+0xbe7>
 bc6:	74 69                	je     c31 <INT_SIZE_DATA+0xbf1>
 bc8:	6f                   	outs   dx,DWORD PTR ds:[esi]
 bc9:	6e                   	outs   dx,BYTE PTR ds:[esi]
 bca:	3a 20                	cmp    ah,BYTE PTR [eax]
 bcc:	25 73 0a 00 5b       	and    eax,0x5b000a73
 bd1:	44                   	inc    esp
 bd2:	45                   	inc    ebp
 bd3:	42                   	inc    edx
 bd4:	55                   	push   ebp
 bd5:	47                   	inc    edi
 bd6:	5d                   	pop    ebp
 bd7:	20 74 65 6d          	and    BYTE PTR [ebp+eiz*2+0x6d],dh
 bdb:	70 20                	jo     bfd <INT_SIZE_DATA+0xbbd>
 bdd:	6d                   	ins    DWORD PTR es:[edi],dx
 bde:	65 6d                	gs ins DWORD PTR es:[edi],dx
 be0:	6f                   	outs   dx,DWORD PTR ds:[esi]
 be1:	72 79                	jb     c5c <INT_SIZE_DATA+0xc1c>
 be3:	20 61 6c             	and    BYTE PTR [ecx+0x6c],ah
 be6:	6c                   	ins    BYTE PTR es:[edi],dx
 be7:	6f                   	outs   dx,DWORD PTR ds:[esi]
 be8:	63 61 74             	arpl   WORD PTR [ecx+0x74],sp
 beb:	65 64 3a 20          	gs cmp ah,BYTE PTR fs:[eax]
 bef:	25 75 20 62 79       	and    eax,0x79622075
 bf4:	74 65                	je     c5b <INT_SIZE_DATA+0xc1b>
 bf6:	0a 00                	or     al,BYTE PTR [eax]
 bf8:	5b                   	pop    ebx
 bf9:	44                   	inc    esp
 bfa:	45                   	inc    ebp
 bfb:	42                   	inc    edx
 bfc:	55                   	push   ebp
 bfd:	47                   	inc    edi
 bfe:	5d                   	pop    ebp
 bff:	20 74 65 6d          	and    BYTE PTR [ebp+eiz*2+0x6d],dh
 c03:	70 20                	jo     c25 <INT_SIZE_DATA+0xbe5>
 c05:	6d                   	ins    DWORD PTR es:[edi],dx
 c06:	65 6d                	gs ins DWORD PTR es:[edi],dx
 c08:	6f                   	outs   dx,DWORD PTR ds:[esi]
 c09:	72 79                	jb     c84 <INT_SIZE_DATA+0xc44>
 c0b:	20 70 6f             	and    BYTE PTR [eax+0x6f],dh
 c0e:	69 6e 74 65 72 3a 20 	imul   ebp,DWORD PTR [esi+0x74],0x203a7265
 c15:	25 70 0a 00 00       	and    eax,0xa70
 c1a:	00 00                	add    BYTE PTR [eax],al
 c1c:	5b                   	pop    ebx
 c1d:	23 5d 20             	and    ebx,DWORD PTR [ebp+0x20]
 c20:	43                   	inc    ebx
 c21:	72 79                	jb     c9c <INT_SIZE_DATA+0xc5c>
 c23:	70 74                	jo     c99 <INT_SIZE_DATA+0xc59>
 c25:	20 6b 65             	and    BYTE PTR [ebx+0x65],ch
 c28:	79 20                	jns    c4a <INT_SIZE_DATA+0xc0a>
 c2a:	72 65                	jb     c91 <INT_SIZE_DATA+0xc51>
 c2c:	61                   	popa   
 c2d:	64 20 66 72          	and    BYTE PTR fs:[esi+0x72],ah
 c31:	6f                   	outs   dx,DWORD PTR ds:[esi]
 c32:	6d                   	ins    DWORD PTR es:[edi],dx
 c33:	20 66 69             	and    BYTE PTR [esi+0x69],ah
 c36:	6c                   	ins    BYTE PTR es:[edi],dx
 c37:	65 20 22             	and    BYTE PTR gs:[edx],ah
 c3a:	25 73 22 21 0a       	and    eax,0xa212273
 c3f:	00 5b 21             	add    BYTE PTR [ebx+0x21],bl
 c42:	5d                   	pop    ebp
 c43:	20 44 61 74          	and    BYTE PTR [ecx+eiz*2+0x74],al
 c47:	61                   	popa   
 c48:	20 69 6e             	and    BYTE PTR [ecx+0x6e],ch
 c4b:	20 6b 65             	and    BYTE PTR [ebx+0x65],ch
 c4e:	79 20                	jns    c70 <INT_SIZE_DATA+0xc30>
 c50:	66 69 6c 65 20 25 64 	imul   bp,WORD PTR [ebp+eiz*2+0x20],0x6425
 c57:	20 62 79             	and    BYTE PTR [edx+0x79],ah
 c5a:	74 65                	je     cc1 <INT_SIZE_DATA+0xc81>
 c5c:	3b 20                	cmp    esp,DWORD PTR [eax]
 c5e:	6e                   	outs   dx,BYTE PTR ds:[esi]
 c5f:	65 63 65 73          	arpl   WORD PTR gs:[ebp+0x73],sp
 c63:	73 61                	jae    cc6 <INT_SIZE_DATA+0xc86>
 c65:	72 79                	jb     ce0 <INT_SIZE_DATA+0xca0>
 c67:	20 25 64 20 62 79    	and    BYTE PTR ds:0x79622064,ah
 c6d:	74 65                	je     cd4 <INT_SIZE_DATA+0xc94>
 c6f:	21 0a                	and    DWORD PTR [edx],ecx
 c71:	00 00                	add    BYTE PTR [eax],al
 c73:	00 5b 23             	add    BYTE PTR [ebx+0x23],bl
 c76:	5d                   	pop    ebp
 c77:	20 43 72             	and    BYTE PTR [ebx+0x72],al
 c7a:	79 70                	jns    cec <INT_SIZE_DATA+0xcac>
 c7c:	74 20                	je     c9e <INT_SIZE_DATA+0xc5e>
 c7e:	6b 65 79 20          	imul   esp,DWORD PTR [ebp+0x79],0x20
 c82:	72 65                	jb     ce9 <INT_SIZE_DATA+0xca9>
 c84:	61                   	popa   
 c85:	64 20 66 72          	and    BYTE PTR fs:[esi+0x72],ah
 c89:	6f                   	outs   dx,DWORD PTR ds:[esi]
 c8a:	6d                   	ins    DWORD PTR es:[edi],dx
 c8b:	20 63 6f             	and    BYTE PTR [ebx+0x6f],ah
 c8e:	6d                   	ins    DWORD PTR es:[edi],dx
 c8f:	6d                   	ins    DWORD PTR es:[edi],dx
 c90:	61                   	popa   
 c91:	6e                   	outs   dx,BYTE PTR ds:[esi]
 c92:	64 20 6c 69 6e       	and    BYTE PTR fs:[ecx+ebp*2+0x6e],ch
 c97:	65 21 00             	and    DWORD PTR gs:[eax],eax
 c9a:	00 00                	add    BYTE PTR [eax],al
 c9c:	5b                   	pop    ebx
 c9d:	21 5d 20             	and    DWORD PTR [ebp+0x20],ebx
 ca0:	44                   	inc    esp
 ca1:	61                   	popa   
 ca2:	74 61                	je     d05 <INT_SIZE_DATA+0xcc5>
 ca4:	20 69 6e             	and    BYTE PTR [ecx+0x6e],ch
 ca7:	20 73 74             	and    BYTE PTR [ebx+0x74],dh
 caa:	72 69                	jb     d15 <INT_SIZE_DATA+0xcd5>
 cac:	6e                   	outs   dx,BYTE PTR ds:[esi]
 cad:	67 20 6b 65          	and    BYTE PTR [bp+di+0x65],ch
 cb1:	79 20                	jns    cd3 <INT_SIZE_DATA+0xc93>
 cb3:	25 64 20 62 79       	and    eax,0x79622064
 cb8:	74 65                	je     d1f <INT_SIZE_DATA+0xcdf>
 cba:	3b 20                	cmp    esp,DWORD PTR [eax]
 cbc:	6e                   	outs   dx,BYTE PTR ds:[esi]
 cbd:	65 63 65 73          	arpl   WORD PTR gs:[ebp+0x73],sp
 cc1:	73 61                	jae    d24 <INT_SIZE_DATA+0xce4>
 cc3:	72 79                	jb     d3e <INT_SIZE_DATA+0xcfe>
 cc5:	20 38                	and    BYTE PTR [eax],bh
 cc7:	2e 2e 32 35 36 20 62 	cs xor dh,BYTE PTR cs:0x79622036
 cce:	79 
 ccf:	74 65                	je     d36 <INT_SIZE_DATA+0xcf6>
 cd1:	21 0a                	and    DWORD PTR [edx],ecx
 cd3:	00 5b 23             	add    BYTE PTR [ebx+0x23],bl
 cd6:	5d                   	pop    ebp
 cd7:	20 4b 65             	and    BYTE PTR [ebx+0x65],cl
 cda:	79 20                	jns    cfc <INT_SIZE_DATA+0xcbc>
 cdc:	6c                   	ins    BYTE PTR es:[edi],dx
 cdd:	65 6e                	outs   dx,BYTE PTR gs:[esi]
 cdf:	67 74 68             	addr16 je d4a <INT_SIZE_DATA+0xd0a>
 ce2:	20 25 64 2d 62 69    	and    BYTE PTR ds:0x69622d64,ah
 ce8:	74 73                	je     d5d <INT_SIZE_DATA+0xd1d>
 cea:	20 69 6e             	and    BYTE PTR [ecx+0x6e],ch
 ced:	69 74 69 61 6c 69 7a 	imul   esi,DWORD PTR [ecx+ebp*2+0x61],0x657a696c
 cf4:	65 
 cf5:	64 21 0a             	and    DWORD PTR fs:[edx],ecx
 cf8:	00 00                	add    BYTE PTR [eax],al
 cfa:	00 00                	add    BYTE PTR [eax],al
 cfc:	5b                   	pop    ebx
 cfd:	44                   	inc    esp
 cfe:	45                   	inc    ebp
 cff:	42                   	inc    edx
 d00:	55                   	push   ebp
 d01:	47                   	inc    edi
 d02:	5d                   	pop    ebp
 d03:	20 6b 65             	and    BYTE PTR [ebx+0x65],ch
 d06:	79 20                	jns    d28 <INT_SIZE_DATA+0xce8>
 d08:	6f                   	outs   dx,DWORD PTR ds:[esi]
 d09:	72 20                	jb     d2b <INT_SIZE_DATA+0xceb>
 d0b:	70 61                	jo     d6e <INT_SIZE_DATA+0xd2e>
 d0d:	73 73                	jae    d82 <INT_SIZE_DATA+0xd42>
 d0f:	77 6f                	ja     d80 <INT_SIZE_DATA+0xd40>
 d11:	72 64                	jb     d77 <INT_SIZE_DATA+0xd37>
 d13:	20 6c 65 6e          	and    BYTE PTR [ebp+eiz*2+0x6e],ch
 d17:	67 74 68             	addr16 je d82 <INT_SIZE_DATA+0xd42>
 d1a:	3a 20                	cmp    ah,BYTE PTR [eax]
 d1c:	25 64 20 62 79       	and    eax,0x79622064
 d21:	74 65                	je     d88 <INT_SIZE_DATA+0xd48>
 d23:	0a 00                	or     al,BYTE PTR [eax]
 d25:	00 00                	add    BYTE PTR [eax],al
 d27:	00 5b 44             	add    BYTE PTR [ebx+0x44],bl
 d2a:	45                   	inc    ebp
 d2b:	42                   	inc    edx
 d2c:	55                   	push   ebp
 d2d:	47                   	inc    edi
 d2e:	5d                   	pop    ebp
 d2f:	20 6b 65             	and    BYTE PTR [ebx+0x65],ch
 d32:	79 20                	jns    d54 <INT_SIZE_DATA+0xd14>
 d34:	67 65 6e             	outs   dx,BYTE PTR gs:[si]
 d37:	65 72 61             	gs jb  d9b <INT_SIZE_DATA+0xd5b>
 d3a:	74 6f                	je     dab <INT_SIZE_DATA+0xd6b>
 d3c:	72 20                	jb     d5e <INT_SIZE_DATA+0xd1e>
 d3e:	77 72                	ja     db2 <INT_SIZE_DATA+0xd72>
 d40:	69 74 65 20 64 61 74 	imul   esi,DWORD PTR [ebp+eiz*2+0x20],0x61746164
 d47:	61 
 d48:	20 69 6e             	and    BYTE PTR [ecx+0x6e],ch
 d4b:	20 70 6f             	and    BYTE PTR [eax+0x6f],dh
 d4e:	69 6e 74 65 72 3a 20 	imul   ebp,DWORD PTR [esi+0x74],0x203a7265
 d55:	25 70 0a 00 5b       	and    eax,0x5b000a70
 d5a:	44                   	inc    esp
 d5b:	45                   	inc    ebp
 d5c:	42                   	inc    edx
 d5d:	55                   	push   ebp
 d5e:	47                   	inc    edi
 d5f:	5d                   	pop    ebp
 d60:	20 72 65             	and    BYTE PTR [edx+0x65],dh
 d63:	61                   	popa   
 d64:	6c                   	ins    BYTE PTR es:[edi],dx
 d65:	20 63 72             	and    BYTE PTR [ebx+0x72],ah
 d68:	79 70                	jns    dda <INT_SIZE_DATA+0xd9a>
 d6a:	74 20                	je     d8c <INT_SIZE_DATA+0xd4c>
 d6c:	6b 65 79 20          	imul   esp,DWORD PTR [ebp+0x79],0x20
 d70:	64 61                	fs popa 
 d72:	74 61                	je     dd5 <INT_SIZE_DATA+0xd95>
 d74:	3a 00                	cmp    al,BYTE PTR [eax]
 d76:	5b                   	pop    ebx
 d77:	44                   	inc    esp
 d78:	45                   	inc    ebp
 d79:	42                   	inc    edx
 d7a:	55                   	push   ebp
 d7b:	47                   	inc    edi
 d7c:	5d                   	pop    ebp
 d7d:	20 73 74             	and    BYTE PTR [ebx+0x74],dh
 d80:	61                   	popa   
 d81:	63 6b 5f             	arpl   WORD PTR [ebx+0x5f],bp
 d84:	74 72                	je     df8 <INT_SIZE_DATA+0xdb8>
 d86:	61                   	popa   
 d87:	73 68                	jae    df1 <INT_SIZE_DATA+0xdb1>
 d89:	3a 20                	cmp    ah,BYTE PTR [eax]
 d8b:	25 30 32 78 0a       	and    eax,0xa783230
 d90:	00 5b 23             	add    BYTE PTR [ebx+0x23],bl
 d93:	5d                   	pop    ebp
 d94:	20 41 6c             	and    BYTE PTR [ecx+0x6c],al
 d97:	67 6f                	outs   dx,DWORD PTR ds:[si]
 d99:	72 69                	jb     e04 <INT_SIZE_DATA+0xdc4>
 d9b:	74 6d                	je     e0a <INT_SIZE_DATA+0xdca>
 d9d:	20 25 73 20 69 6e    	and    BYTE PTR ds:0x6e692073,ah
 da3:	69 74 69 61 6c 69 7a 	imul   esi,DWORD PTR [ecx+ebp*2+0x61],0x657a696c
 daa:	65 
 dab:	64 21 0a             	and    DWORD PTR fs:[edx],ecx
 dae:	00 00                	add    BYTE PTR [eax],al
 db0:	5b                   	pop    ebx
 db1:	44                   	inc    esp
 db2:	45                   	inc    ebp
 db3:	42                   	inc    edx
 db4:	55                   	push   ebp
 db5:	47                   	inc    edi
 db6:	5d                   	pop    ebp
 db7:	20 61 6c             	and    BYTE PTR [ecx+0x6c],ah
 dba:	6c                   	ins    BYTE PTR es:[edi],dx
 dbb:	6f                   	outs   dx,DWORD PTR ds:[esi]
 dbc:	63 61 74             	arpl   WORD PTR [ecx+0x74],sp
 dbf:	65 20 62 79          	and    BYTE PTR gs:[edx+0x79],ah
 dc3:	74 65                	je     e2a <INT_SIZE_DATA+0xdea>
 dc5:	20 66 6f             	and    BYTE PTR [esi+0x6f],ah
 dc8:	72 20                	jb     dea <INT_SIZE_DATA+0xdaa>
 dca:	63 69 70             	arpl   WORD PTR [ecx+0x70],bp
 dcd:	68 65 72 20 73       	push   0x73207265
 dd2:	74 72                	je     e46 <INT_SIZE_DATA+0xe06>
 dd4:	75 63                	jne    e39 <INT_SIZE_DATA+0xdf9>
 dd6:	74 3a                	je     e12 <INT_SIZE_DATA+0xdd2>
 dd8:	20 25 75 0a 00 00    	and    BYTE PTR ds:0xa75,ah
 dde:	00 00                	add    BYTE PTR [eax],al
 de0:	5b                   	pop    ebx
 de1:	44                   	inc    esp
 de2:	45                   	inc    ebp
 de3:	42                   	inc    edx
 de4:	55                   	push   ebp
 de5:	47                   	inc    edi
 de6:	5d                   	pop    ebp
 de7:	20 72 65             	and    BYTE PTR [edx+0x65],dh
 dea:	61                   	popa   
 deb:	6c                   	ins    BYTE PTR es:[edi],dx
 dec:	20 64 61 74          	and    BYTE PTR [ecx+eiz*2+0x74],ah
 df0:	61                   	popa   
 df1:	20 63 69             	and    BYTE PTR [ebx+0x69],ah
 df4:	70 68                	jo     e5e <filecrypt+0x1e0>
 df6:	65 72 20             	gs jb  e19 <INT_SIZE_DATA+0xdd9>
 df9:	73 74                	jae    e6f <filecrypt+0x1f1>
 dfb:	72 75                	jb     e72 <filecrypt+0x1f4>
 dfd:	63 74 3a 00          	arpl   WORD PTR [edx+edi*1+0x0],si
 e01:	00 00                	add    BYTE PTR [eax],al
 e03:	00 5b 23             	add    BYTE PTR [ebx+0x23],bl
 e06:	5d                   	pop    ebp
 e07:	20 4f 70             	and    BYTE PTR [edi+0x70],cl
 e0a:	65 72 61             	gs jb  e6e <filecrypt+0x1f0>
 e0d:	74 69                	je     e78 <filecrypt+0x1fa>
 e0f:	6f                   	outs   dx,DWORD PTR ds:[esi]
 e10:	6e                   	outs   dx,BYTE PTR ds:[esi]
 e11:	20 25 73 20 66 69    	and    BYTE PTR ds:0x69662073,ah
 e17:	6c                   	ins    BYTE PTR es:[edi],dx
 e18:	65 20 22             	and    BYTE PTR gs:[edx],ah
 e1b:	25 73 22 20 73       	and    eax,0x73202273
 e20:	74 61                	je     e83 <filecrypt+0x205>
 e22:	72 74                	jb     e98 <filecrypt+0x21a>
 e24:	65 64 21 0a          	gs and DWORD PTR fs:[edx],ecx
	...
 e44:	80 84 2e 41 00 00 00 	add    BYTE PTR [esi+ebp*1+0x41],0x0
 e4b:	00 
 e4c:	00 00                	add    BYTE PTR [eax],al
 e4e:	59                   	pop    ecx
 e4f:	40                   	inc    eax
 e50:	9a 99 99 99 99 99 b9 	call   0xb999:0x99999999
 e57:	3f                   	aas    

Дизассемблирование раздела .data.rel.local:

00000000 <PARAM_READ_BYTE>:
   0:	00 00                	add    BYTE PTR [eax],al
	...

00000004 <PARAM_WRITE_BYTE>:
   4:	03 00                	add    eax,DWORD PTR [eax]
	...

00000008 <PROGRAMM_NAME>:
   8:	08 00                	or     BYTE PTR [eax],al
	...

0000000c <CHAR_SIZE_DATA>:
   c:	60                   	pusha  
   d:	00 00                	add    BYTE PTR [eax],al
   f:	00 63 00             	add    BYTE PTR [ebx+0x0],ah
  12:	00 00                	add    BYTE PTR [eax],al
  14:	67 00 00             	add    BYTE PTR [bx+si],al
  17:	00 6b 00             	add    BYTE PTR [ebx+0x0],ch
  1a:	00 00                	add    BYTE PTR [eax],al
  1c:	6f                   	outs   dx,DWORD PTR ds:[esi]
  1d:	00 00                	add    BYTE PTR [eax],al
	...

00000020 <OPERATION_NAME>:
  20:	73 00                	jae    22 <OPERATION_NAME+0x2>
  22:	00 00                	add    BYTE PTR [eax],al
  24:	7b 00                	jnp    26 <OPERATION_NAME+0x6>
	...

00000028 <ALGORITM_NAME>:
  28:	83 00 00             	add    DWORD PTR [eax],0x0
  2b:	00 87 00 00 00 8f    	add    BYTE PTR [edi-0x71000000],al
  31:	00 00                	add    BYTE PTR [eax],al
  33:	00 97 00 00 00 a0    	add    BYTE PTR [edi-0x60000000],dl
  39:	00 00                	add    BYTE PTR [eax],al
	...

Дизассемблирование раздела .text.__x86.get_pc_thunk.ax:

00000000 <__x86.get_pc_thunk.ax>:
   0:	8b 04 24             	mov    eax,DWORD PTR [esp]
   3:	c3                   	ret    

Дизассемблирование раздела .text.__x86.get_pc_thunk.bx:

00000000 <__x86.get_pc_thunk.bx>:
   0:	8b 1c 24             	mov    ebx,DWORD PTR [esp]
   3:	c3                   	ret    

Дизассемблирование раздела .text.__x86.get_pc_thunk.si:

00000000 <__x86.get_pc_thunk.si>:
   0:	8b 34 24             	mov    esi,DWORD PTR [esp]
   3:	c3                   	ret    

Дизассемблирование раздела .comment:

00000000 <.comment>:
   0:	00 47 43             	add    BYTE PTR [edi+0x43],al
   3:	43                   	inc    ebx
   4:	3a 20                	cmp    ah,BYTE PTR [eax]
   6:	28 44 65 62          	sub    BYTE PTR [ebp+eiz*2+0x62],al
   a:	69 61 6e 20 31 30 2e 	imul   esp,DWORD PTR [ecx+0x6e],0x2e303120
  11:	32 2e                	xor    ch,BYTE PTR [esi]
  13:	31 2d 36 29 20 31    	xor    DWORD PTR ds:0x31202936,ebp
  19:	30 2e                	xor    BYTE PTR [esi],ch
  1b:	32 2e                	xor    ch,BYTE PTR [esi]
  1d:	31 20                	xor    DWORD PTR [eax],esp
  1f:	32 30                	xor    dh,BYTE PTR [eax]
  21:	32 31                	xor    dh,BYTE PTR [ecx]
  23:	30 31                	xor    BYTE PTR [ecx],dh
  25:	31 30                	xor    DWORD PTR [eax],esi
	...

Дизассемблирование раздела .eh_frame:

00000000 <.eh_frame>:
   0:	14 00                	adc    al,0x0
   2:	00 00                	add    BYTE PTR [eax],al
   4:	00 00                	add    BYTE PTR [eax],al
   6:	00 00                	add    BYTE PTR [eax],al
   8:	01 7a 52             	add    DWORD PTR [edx+0x52],edi
   b:	00 01                	add    BYTE PTR [ecx],al
   d:	7c 08                	jl     17 <.eh_frame+0x17>
   f:	01 1b                	add    DWORD PTR [ebx],ebx
  11:	0c 04                	or     al,0x4
  13:	04 88                	add    al,0x88
  15:	01 00                	add    DWORD PTR [eax],eax
  17:	00 20                	add    BYTE PTR [eax],ah
  19:	00 00                	add    BYTE PTR [eax],al
  1b:	00 1c 00             	add    BYTE PTR [eax+eax*1],bl
  1e:	00 00                	add    BYTE PTR [eax],al
  20:	00 00                	add    BYTE PTR [eax],al
  22:	00 00                	add    BYTE PTR [eax],al
  24:	3d 01 00 00 00       	cmp    eax,0x1
  29:	41                   	inc    ecx
  2a:	0e                   	push   cs
  2b:	08 85 02 42 0d 05    	or     BYTE PTR [ebp+0x50d4202],al
  31:	44                   	inc    esp
  32:	83 03 03             	add    DWORD PTR [ebx],0x3
  35:	35 01 c5 c3 0c       	xor    eax,0xcc3c501
  3a:	04 04                	add    al,0x4
  3c:	1c 00                	sbb    al,0x0
  3e:	00 00                	add    BYTE PTR [eax],al
  40:	40                   	inc    eax
  41:	00 00                	add    BYTE PTR [eax],al
  43:	00 3d 01 00 00 d6    	add    BYTE PTR ds:0xd6000001,bh
  49:	00 00                	add    BYTE PTR [eax],al
  4b:	00 00                	add    BYTE PTR [eax],al
  4d:	41                   	inc    ecx
  4e:	0e                   	push   cs
  4f:	08 85 02 42 0d 05    	or     BYTE PTR [ebp+0x50d4202],al
  55:	02 d2                	add    dl,dl
  57:	c5 0c 04             	lds    ecx,FWORD PTR [esp+eax*1]
  5a:	04 00                	add    al,0x0
  5c:	1c 00                	sbb    al,0x0
  5e:	00 00                	add    BYTE PTR [eax],al
  60:	60                   	pusha  
  61:	00 00                	add    BYTE PTR [eax],al
  63:	00 13                	add    BYTE PTR [ebx],dl
  65:	02 00                	add    al,BYTE PTR [eax]
  67:	00 49 00             	add    BYTE PTR [ecx+0x0],cl
  6a:	00 00                	add    BYTE PTR [eax],al
  6c:	00 41 0e             	add    BYTE PTR [ecx+0xe],al
  6f:	08 85 02 42 0d 05    	or     BYTE PTR [ebp+0x50d4202],al
  75:	02 45 c5             	add    al,BYTE PTR [ebp-0x3b]
  78:	0c 04                	or     al,0x4
  7a:	04 00                	add    al,0x0
  7c:	20 00                	and    BYTE PTR [eax],al
  7e:	00 00                	add    BYTE PTR [eax],al
  80:	80 00 00             	add    BYTE PTR [eax],0x0
  83:	00 5c 02 00          	add    BYTE PTR [edx+eax*1+0x0],bl
  87:	00 31                	add    BYTE PTR [ecx],dh
  89:	03 00                	add    eax,DWORD PTR [eax]
  8b:	00 00                	add    BYTE PTR [eax],al
  8d:	41                   	inc    ecx
  8e:	0e                   	push   cs
  8f:	08 85 02 42 0d 05    	or     BYTE PTR [ebp+0x50d4202],al
  95:	44                   	inc    esp
  96:	83 03 03             	add    DWORD PTR [ebx],0x3
  99:	29 03                	sub    DWORD PTR [ebx],eax
  9b:	c5 c3 0c             	(bad)
  9e:	04 04                	add    al,0x4
  a0:	20 00                	and    BYTE PTR [eax],al
  a2:	00 00                	add    BYTE PTR [eax],al
  a4:	a4                   	movs   BYTE PTR es:[edi],BYTE PTR ds:[esi]
  a5:	00 00                	add    BYTE PTR [eax],al
  a7:	00 8d 05 00 00 9a    	add    BYTE PTR [ebp-0x65fffffb],cl
  ad:	01 00                	add    DWORD PTR [eax],eax
  af:	00 00                	add    BYTE PTR [eax],al
  b1:	41                   	inc    ecx
  b2:	0e                   	push   cs
  b3:	08 85 02 42 0d 05    	or     BYTE PTR [ebp+0x50d4202],al
  b9:	44                   	inc    esp
  ba:	83 03 03             	add    DWORD PTR [ebx],0x3
  bd:	92                   	xchg   edx,eax
  be:	01 c5                	add    ebp,eax
  c0:	c3                   	ret    
  c1:	0c 04                	or     al,0x4
  c3:	04 1c                	add    al,0x1c
  c5:	00 00                	add    BYTE PTR [eax],al
  c7:	00 c8                	add    al,cl
  c9:	00 00                	add    BYTE PTR [eax],al
  cb:	00 27                	add    BYTE PTR [edi],ah
  cd:	07                   	pop    es
  ce:	00 00                	add    BYTE PTR [eax],al
  d0:	19 00                	sbb    DWORD PTR [eax],eax
  d2:	00 00                	add    BYTE PTR [eax],al
  d4:	00 41 0e             	add    BYTE PTR [ecx+0xe],al
  d7:	08 85 02 42 0d 05    	or     BYTE PTR [ebp+0x50d4202],al
  dd:	55                   	push   ebp
  de:	c5 0c 04             	lds    ecx,FWORD PTR [esp+eax*1]
  e1:	04 00                	add    al,0x0
  e3:	00 20                	add    BYTE PTR [eax],ah
  e5:	00 00                	add    BYTE PTR [eax],al
  e7:	00 e8                	add    al,ch
  e9:	00 00                	add    BYTE PTR [eax],al
  eb:	00 40 07             	add    BYTE PTR [eax+0x7],al
  ee:	00 00                	add    BYTE PTR [eax],al
  f0:	85 00                	test   DWORD PTR [eax],eax
  f2:	00 00                	add    BYTE PTR [eax],al
  f4:	00 41 0e             	add    BYTE PTR [ecx+0xe],al
  f7:	08 85 02 42 0d 05    	or     BYTE PTR [ebp+0x50d4202],al
  fd:	44                   	inc    esp
  fe:	83 03 02             	add    DWORD PTR [ebx],0x2
 101:	7d c5                	jge    c8 <.eh_frame+0xc8>
 103:	c3                   	ret    
 104:	0c 04                	or     al,0x4
 106:	04 00                	add    al,0x0
 108:	20 00                	and    BYTE PTR [eax],al
 10a:	00 00                	add    BYTE PTR [eax],al
 10c:	0c 01                	or     al,0x1
 10e:	00 00                	add    BYTE PTR [eax],al
 110:	c5 07                	lds    eax,FWORD PTR [edi]
 112:	00 00                	add    BYTE PTR [eax],al
 114:	39 00                	cmp    DWORD PTR [eax],eax
 116:	00 00                	add    BYTE PTR [eax],al
 118:	00 41 0e             	add    BYTE PTR [ecx+0xe],al
 11b:	08 85 02 42 0d 05    	or     BYTE PTR [ebp+0x50d4202],al
 121:	44                   	inc    esp
 122:	83 03 71             	add    DWORD PTR [ebx],0x71
 125:	c5 c3 0c             	(bad)
 128:	04 04                	add    al,0x4
 12a:	00 00                	add    BYTE PTR [eax],al
 12c:	20 00                	and    BYTE PTR [eax],al
 12e:	00 00                	add    BYTE PTR [eax],al
 130:	30 01                	xor    BYTE PTR [ecx],al
 132:	00 00                	add    BYTE PTR [eax],al
 134:	fe 07                	inc    BYTE PTR [edi]
 136:	00 00                	add    BYTE PTR [eax],al
 138:	b4 02                	mov    ah,0x2
 13a:	00 00                	add    BYTE PTR [eax],al
 13c:	00 41 0e             	add    BYTE PTR [ecx+0xe],al
 13f:	08 85 02 42 0d 05    	or     BYTE PTR [ebp+0x50d4202],al
 145:	44                   	inc    esp
 146:	83 03 03             	add    DWORD PTR [ebx],0x3
 149:	ac                   	lods   al,BYTE PTR ds:[esi]
 14a:	02 c5                	add    al,ch
 14c:	c3                   	ret    
 14d:	0c 04                	or     al,0x4
 14f:	04 20                	add    al,0x20
 151:	00 00                	add    BYTE PTR [eax],al
 153:	00 54 01 00          	add    BYTE PTR [ecx+eax*1+0x0],dl
 157:	00 b2 0a 00 00 c2    	add    BYTE PTR [edx-0x3dfffff6],dh
 15d:	00 00                	add    BYTE PTR [eax],al
 15f:	00 00                	add    BYTE PTR [eax],al
 161:	41                   	inc    ecx
 162:	0e                   	push   cs
 163:	08 85 02 42 0d 05    	or     BYTE PTR [ebp+0x50d4202],al
 169:	44                   	inc    esp
 16a:	83 03 02             	add    DWORD PTR [ebx],0x2
 16d:	ba c5 c3 0c 04       	mov    edx,0x40cc3c5
 172:	04 00                	add    al,0x0
 174:	20 00                	and    BYTE PTR [eax],al
 176:	00 00                	add    BYTE PTR [eax],al
 178:	78 01                	js     17b <.eh_frame+0x17b>
 17a:	00 00                	add    BYTE PTR [eax],al
 17c:	74 0b                	je     189 <.eh_frame+0x189>
 17e:	00 00                	add    BYTE PTR [eax],al
 180:	5c                   	pop    esp
 181:	00 00                	add    BYTE PTR [eax],al
 183:	00 00                	add    BYTE PTR [eax],al
 185:	41                   	inc    ecx
 186:	0e                   	push   cs
 187:	08 85 02 42 0d 05    	or     BYTE PTR [ebp+0x50d4202],al
 18d:	44                   	inc    esp
 18e:	83 03 02             	add    DWORD PTR [ebx],0x2
 191:	54                   	push   esp
 192:	c5 c3 0c             	(bad)
 195:	04 04                	add    al,0x4
 197:	00 28                	add    BYTE PTR [eax],ch
 199:	00 00                	add    BYTE PTR [eax],al
 19b:	00 9c 01 00 00 d0 0b 	add    BYTE PTR [ecx+eax*1+0xbd00000],bl
 1a2:	00 00                	add    BYTE PTR [eax],al
 1a4:	ae                   	scas   al,BYTE PTR es:[edi]
 1a5:	00 00                	add    BYTE PTR [eax],al
 1a7:	00 00                	add    BYTE PTR [eax],al
 1a9:	41                   	inc    ecx
 1aa:	0e                   	push   cs
 1ab:	08 85 02 42 0d 05    	or     BYTE PTR [ebp+0x50d4202],al
 1b1:	46                   	inc    esi
 1b2:	87 03                	xchg   DWORD PTR [ebx],eax
 1b4:	86 04 83             	xchg   BYTE PTR [ebx+eax*4],al
 1b7:	05 02 a1 c3 41       	add    eax,0x41c3a102
 1bc:	c6 41 c7 41          	mov    BYTE PTR [ecx-0x39],0x41
 1c0:	c5 0c 04             	lds    ecx,FWORD PTR [esp+eax*1]
 1c3:	04 2c                	add    al,0x2c
 1c5:	00 00                	add    BYTE PTR [eax],al
 1c7:	00 c8                	add    al,cl
 1c9:	01 00                	add    DWORD PTR [eax],eax
 1cb:	00 7e 0c             	add    BYTE PTR [esi+0xc],bh
 1ce:	00 00                	add    BYTE PTR [eax],al
 1d0:	25 09 00 00 00       	and    eax,0x9
 1d5:	41                   	inc    ecx
 1d6:	0e                   	push   cs
 1d7:	08 85 02 42 0d 05    	or     BYTE PTR [ebp+0x50d4202],al
 1dd:	46                   	inc    esi
 1de:	87 03                	xchg   DWORD PTR [ebx],eax
 1e0:	86 04 83             	xchg   BYTE PTR [ebx+eax*4],al
 1e3:	05 03 18 09 c3       	add    eax,0xc3091803
 1e8:	41                   	inc    ecx
 1e9:	c6 41 c7 41          	mov    BYTE PTR [ecx-0x39],0x41
 1ed:	c5 0c 04             	lds    ecx,FWORD PTR [esp+eax*1]
 1f0:	04 00                	add    al,0x0
 1f2:	00 00                	add    BYTE PTR [eax],al
 1f4:	28 00                	sub    BYTE PTR [eax],al
 1f6:	00 00                	add    BYTE PTR [eax],al
 1f8:	f8                   	clc    
 1f9:	01 00                	add    DWORD PTR [eax],eax
 1fb:	00 a3 15 00 00 6c    	add    BYTE PTR [ebx+0x6c000015],ah
 201:	01 00                	add    DWORD PTR [eax],eax
 203:	00 00                	add    BYTE PTR [eax],al
 205:	41                   	inc    ecx
 206:	0e                   	push   cs
 207:	08 85 02 42 0d 05    	or     BYTE PTR [ebp+0x50d4202],al
 20d:	45                   	inc    ebp
 20e:	86 03                	xchg   BYTE PTR [ebx],al
 210:	83 04 03 61          	add    DWORD PTR [ebx+eax*1],0x61
 214:	01 c3                	add    ebx,eax
 216:	41                   	inc    ecx
 217:	c6 41 c5 0c          	mov    BYTE PTR [ecx-0x3b],0xc
 21b:	04 04                	add    al,0x4
 21d:	00 00                	add    BYTE PTR [eax],al
 21f:	00 24 00             	add    BYTE PTR [eax+eax*1],ah
 222:	00 00                	add    BYTE PTR [eax],al
 224:	24 02                	and    al,0x2
 226:	00 00                	add    BYTE PTR [eax],al
 228:	0f 17 00             	movhps QWORD PTR [eax],xmm0
 22b:	00 00                	add    BYTE PTR [eax],al
 22d:	01 00                	add    DWORD PTR [eax],eax
 22f:	00 00                	add    BYTE PTR [eax],al
 231:	41                   	inc    ecx
 232:	0e                   	push   cs
 233:	08 85 02 42 0d 05    	or     BYTE PTR [ebp+0x50d4202],al
 239:	45                   	inc    ebp
 23a:	86 03                	xchg   BYTE PTR [ebx],al
 23c:	83 04 02 f5          	add    DWORD PTR [edx+eax*1],0xfffffff5
 240:	c3                   	ret    
 241:	41                   	inc    ecx
 242:	c6 41 c5 0c          	mov    BYTE PTR [ecx-0x3b],0xc
 246:	04 04                	add    al,0x4
 248:	28 00                	sub    BYTE PTR [eax],al
 24a:	00 00                	add    BYTE PTR [eax],al
 24c:	4c                   	dec    esp
 24d:	02 00                	add    al,BYTE PTR [eax]
 24f:	00 0f                	add    BYTE PTR [edi],cl
 251:	18 00                	sbb    BYTE PTR [eax],al
 253:	00 55 01             	add    BYTE PTR [ebp+0x1],dl
 256:	00 00                	add    BYTE PTR [eax],al
 258:	00 41 0e             	add    BYTE PTR [ecx+0xe],al
 25b:	08 85 02 42 0d 05    	or     BYTE PTR [ebp+0x50d4202],al
 261:	45                   	inc    ebp
 262:	86 03                	xchg   BYTE PTR [ebx],al
 264:	83 04 03 4a          	add    DWORD PTR [ebx+eax*1],0x4a
 268:	01 c3                	add    ebx,eax
 26a:	41                   	inc    ecx
 26b:	c6 41 c5 0c          	mov    BYTE PTR [ecx-0x3b],0xc
 26f:	04 04                	add    al,0x4
 271:	00 00                	add    BYTE PTR [eax],al
 273:	00 28                	add    BYTE PTR [eax],ch
 275:	00 00                	add    BYTE PTR [eax],al
 277:	00 78 02             	add    BYTE PTR [eax+0x2],bh
 27a:	00 00                	add    BYTE PTR [eax],al
 27c:	64 19 00             	sbb    DWORD PTR fs:[eax],eax
 27f:	00 9f 01 00 00 00    	add    BYTE PTR [edi+0x1],bl
 285:	41                   	inc    ecx
 286:	0e                   	push   cs
 287:	08 85 02 42 0d 05    	or     BYTE PTR [ebp+0x50d4202],al
 28d:	42                   	inc    edx
 28e:	86 03                	xchg   BYTE PTR [ebx],al
 290:	83 04 03 97          	add    DWORD PTR [ebx+eax*1],0xffffff97
 294:	01 c3                	add    ebx,eax
 296:	41                   	inc    ecx
 297:	c6 41 c5 0c          	mov    BYTE PTR [ecx-0x3b],0xc
 29b:	04 04                	add    al,0x4
 29d:	00 00                	add    BYTE PTR [eax],al
 29f:	00 20                	add    BYTE PTR [eax],ah
 2a1:	00 00                	add    BYTE PTR [eax],al
 2a3:	00 a4 02 00 00 03 1b 	add    BYTE PTR [edx+eax*1+0x1b030000],ah
 2aa:	00 00                	add    BYTE PTR [eax],al
 2ac:	a7                   	cmps   DWORD PTR ds:[esi],DWORD PTR es:[edi]
 2ad:	01 00                	add    DWORD PTR [eax],eax
 2af:	00 00                	add    BYTE PTR [eax],al
 2b1:	41                   	inc    ecx
 2b2:	0e                   	push   cs
 2b3:	08 85 02 42 0d 05    	or     BYTE PTR [ebp+0x50d4202],al
 2b9:	47                   	inc    edi
 2ba:	83 03 03             	add    DWORD PTR [ebx],0x3
 2bd:	9c                   	pushf  
 2be:	01 c5                	add    ebp,eax
 2c0:	c3                   	ret    
 2c1:	0c 04                	or     al,0x4
 2c3:	04 28                	add    al,0x28
 2c5:	00 00                	add    BYTE PTR [eax],al
 2c7:	00 c8                	add    al,cl
 2c9:	02 00                	add    al,BYTE PTR [eax]
 2cb:	00 aa 1c 00 00 73    	add    BYTE PTR [edx+0x7300001c],ch
 2d1:	01 00                	add    DWORD PTR [eax],eax
 2d3:	00 00                	add    BYTE PTR [eax],al
 2d5:	41                   	inc    ecx
 2d6:	0e                   	push   cs
 2d7:	08 85 02 42 0d 05    	or     BYTE PTR [ebp+0x50d4202],al
 2dd:	42                   	inc    edx
 2de:	86 03                	xchg   BYTE PTR [ebx],al
 2e0:	83 04 03 6b          	add    DWORD PTR [ebx+eax*1],0x6b
 2e4:	01 c3                	add    ebx,eax
 2e6:	41                   	inc    ecx
 2e7:	c6 41 c5 0c          	mov    BYTE PTR [ecx-0x3b],0xc
 2eb:	04 04                	add    al,0x4
 2ed:	00 00                	add    BYTE PTR [eax],al
 2ef:	00 40 00             	add    BYTE PTR [eax+0x0],al
 2f2:	00 00                	add    BYTE PTR [eax],al
 2f4:	f4                   	hlt    
 2f5:	02 00                	add    al,BYTE PTR [eax]
 2f7:	00 1d 1e 00 00 32    	add    BYTE PTR ds:0x3200001e,bl
 2fd:	10 00                	adc    BYTE PTR [eax],al
 2ff:	00 00                	add    BYTE PTR [eax],al
 301:	44                   	inc    esp
 302:	0c 01                	or     al,0x1
 304:	00 47 10             	add    BYTE PTR [edi+0x10],al
 307:	05 02 75 00 46       	add    eax,0x46007502
 30c:	0f 03 75 70          	lsl    esi,WORD PTR [ebp+0x70]
 310:	06                   	push   es
 311:	10 07                	adc    BYTE PTR [edi],al
 313:	02 75 7c             	add    dh,BYTE PTR [ebp+0x7c]
 316:	10 06                	adc    BYTE PTR [esi],al
 318:	02 75 78             	add    dh,BYTE PTR [ebp+0x78]
 31b:	10 03                	adc    BYTE PTR [ebx],al
 31d:	02 75 74             	add    dh,BYTE PTR [ebp+0x74]
 320:	03 19                	add    ebx,DWORD PTR [ecx]
 322:	10 c1                	adc    cl,al
 324:	0c 01                	or     al,0x1
 326:	00 41 c3             	add    BYTE PTR [ecx-0x3d],al
 329:	41                   	inc    ecx
 32a:	c6 41 c7 41          	mov    BYTE PTR [ecx-0x39],0x41
 32e:	c5 43 0c             	lds    eax,FWORD PTR [ebx+0xc]
 331:	04 04                	add    al,0x4
 333:	00 10                	add    BYTE PTR [eax],dl
 335:	00 00                	add    BYTE PTR [eax],al
 337:	00 38                	add    BYTE PTR [eax],bh
 339:	03 00                	add    eax,DWORD PTR [eax]
 33b:	00 00                	add    BYTE PTR [eax],al
 33d:	00 00                	add    BYTE PTR [eax],al
 33f:	00 04 00             	add    BYTE PTR [eax+eax*1],al
 342:	00 00                	add    BYTE PTR [eax],al
 344:	00 00                	add    BYTE PTR [eax],al
 346:	00 00                	add    BYTE PTR [eax],al
 348:	10 00                	adc    BYTE PTR [eax],al
 34a:	00 00                	add    BYTE PTR [eax],al
 34c:	4c                   	dec    esp
 34d:	03 00                	add    eax,DWORD PTR [eax]
 34f:	00 00                	add    BYTE PTR [eax],al
 351:	00 00                	add    BYTE PTR [eax],al
 353:	00 04 00             	add    BYTE PTR [eax+eax*1],al
 356:	00 00                	add    BYTE PTR [eax],al
 358:	00 00                	add    BYTE PTR [eax],al
 35a:	00 00                	add    BYTE PTR [eax],al
 35c:	10 00                	adc    BYTE PTR [eax],al
 35e:	00 00                	add    BYTE PTR [eax],al
 360:	60                   	pusha  
 361:	03 00                	add    eax,DWORD PTR [eax]
 363:	00 00                	add    BYTE PTR [eax],al
 365:	00 00                	add    BYTE PTR [eax],al
 367:	00 04 00             	add    BYTE PTR [eax+eax*1],al
 36a:	00 00                	add    BYTE PTR [eax],al
 36c:	00 00                	add    BYTE PTR [eax],al
	...
