
crycon_linux.o:     формат файла elf32-i386


Дизассемблирование раздела .group:

00000000 <.group>:
   0:	01 00                	add    DWORD PTR [eax],eax
   2:	00 00                	add    BYTE PTR [eax],al
   4:	0c 00                	or     al,0x0
	...

Дизассемблирование раздела .group:

00000000 <.group>:
   0:	01 00                	add    DWORD PTR [eax],eax
   2:	00 00                	add    BYTE PTR [eax],al
   4:	0d                   	.byte 0xd
   5:	00 00                	add    BYTE PTR [eax],al
	...

Дизассемблирование раздела .group:

00000000 <.group>:
   0:	01 00                	add    DWORD PTR [eax],eax
   2:	00 00                	add    BYTE PTR [eax],al
   4:	0e                   	push   cs
   5:	00 00                	add    BYTE PTR [eax],al
	...

Дизассемблирование раздела .text:

00000000 <free_global_memory>:
       0:	55                   	push   ebp
       1:	89 e5                	mov    ebp,esp
       3:	53                   	push   ebx
       4:	83 ec 04             	sub    esp,0x4
       7:	e8 fc ff ff ff       	call   8 <free_global_memory+0x8>
       c:	81 c3 02 00 00 00    	add    ebx,0x2
      12:	8b 45 08             	mov    eax,DWORD PTR [ebp+0x8]
      15:	8b 40 08             	mov    eax,DWORD PTR [eax+0x8]
      18:	85 c0                	test   eax,eax
      1a:	74 25                	je     41 <free_global_memory+0x41>
      1c:	8b 45 08             	mov    eax,DWORD PTR [ebp+0x8]
      1f:	8b 40 0c             	mov    eax,DWORD PTR [eax+0xc]
      22:	85 c0                	test   eax,eax
      24:	74 1b                	je     41 <free_global_memory+0x41>
      26:	8b 45 08             	mov    eax,DWORD PTR [ebp+0x8]
      29:	8b 50 0c             	mov    edx,DWORD PTR [eax+0xc]
      2c:	8b 45 08             	mov    eax,DWORD PTR [ebp+0x8]
      2f:	8b 40 08             	mov    eax,DWORD PTR [eax+0x8]
      32:	83 ec 04             	sub    esp,0x4
      35:	52                   	push   edx
      36:	6a 00                	push   0x0
      38:	50                   	push   eax
      39:	e8 fc ff ff ff       	call   3a <free_global_memory+0x3a>
      3e:	83 c4 10             	add    esp,0x10
      41:	8b 45 08             	mov    eax,DWORD PTR [ebp+0x8]
      44:	8b 40 10             	mov    eax,DWORD PTR [eax+0x10]
      47:	85 c0                	test   eax,eax
      49:	74 25                	je     70 <free_global_memory+0x70>
      4b:	8b 45 08             	mov    eax,DWORD PTR [ebp+0x8]
      4e:	8b 40 14             	mov    eax,DWORD PTR [eax+0x14]
      51:	85 c0                	test   eax,eax
      53:	74 1b                	je     70 <free_global_memory+0x70>
      55:	8b 45 08             	mov    eax,DWORD PTR [ebp+0x8]
      58:	8b 50 14             	mov    edx,DWORD PTR [eax+0x14]
      5b:	8b 45 08             	mov    eax,DWORD PTR [ebp+0x8]
      5e:	8b 40 10             	mov    eax,DWORD PTR [eax+0x10]
      61:	83 ec 04             	sub    esp,0x4
      64:	52                   	push   edx
      65:	6a 00                	push   0x0
      67:	50                   	push   eax
      68:	e8 fc ff ff ff       	call   69 <free_global_memory+0x69>
      6d:	83 c4 10             	add    esp,0x10
      70:	8b 45 08             	mov    eax,DWORD PTR [ebp+0x8]
      73:	8b 40 18             	mov    eax,DWORD PTR [eax+0x18]
      76:	85 c0                	test   eax,eax
      78:	74 25                	je     9f <free_global_memory+0x9f>
      7a:	8b 45 08             	mov    eax,DWORD PTR [ebp+0x8]
      7d:	8b 40 1c             	mov    eax,DWORD PTR [eax+0x1c]
      80:	85 c0                	test   eax,eax
      82:	74 1b                	je     9f <free_global_memory+0x9f>
      84:	8b 45 08             	mov    eax,DWORD PTR [ebp+0x8]
      87:	8b 50 1c             	mov    edx,DWORD PTR [eax+0x1c]
      8a:	8b 45 08             	mov    eax,DWORD PTR [ebp+0x8]
      8d:	8b 40 18             	mov    eax,DWORD PTR [eax+0x18]
      90:	83 ec 04             	sub    esp,0x4
      93:	52                   	push   edx
      94:	6a 00                	push   0x0
      96:	50                   	push   eax
      97:	e8 fc ff ff ff       	call   98 <free_global_memory+0x98>
      9c:	83 c4 10             	add    esp,0x10
      9f:	8b 45 08             	mov    eax,DWORD PTR [ebp+0x8]
      a2:	8b 40 20             	mov    eax,DWORD PTR [eax+0x20]
      a5:	85 c0                	test   eax,eax
      a7:	74 25                	je     ce <free_global_memory+0xce>
      a9:	8b 45 08             	mov    eax,DWORD PTR [ebp+0x8]
      ac:	8b 40 24             	mov    eax,DWORD PTR [eax+0x24]
      af:	85 c0                	test   eax,eax
      b1:	74 1b                	je     ce <free_global_memory+0xce>
      b3:	8b 45 08             	mov    eax,DWORD PTR [ebp+0x8]
      b6:	8b 50 24             	mov    edx,DWORD PTR [eax+0x24]
      b9:	8b 45 08             	mov    eax,DWORD PTR [ebp+0x8]
      bc:	8b 40 20             	mov    eax,DWORD PTR [eax+0x20]
      bf:	83 ec 04             	sub    esp,0x4
      c2:	52                   	push   edx
      c3:	6a 00                	push   0x0
      c5:	50                   	push   eax
      c6:	e8 fc ff ff ff       	call   c7 <free_global_memory+0xc7>
      cb:	83 c4 10             	add    esp,0x10
      ce:	8b 45 08             	mov    eax,DWORD PTR [ebp+0x8]
      d1:	8b 40 08             	mov    eax,DWORD PTR [eax+0x8]
      d4:	83 ec 0c             	sub    esp,0xc
      d7:	50                   	push   eax
      d8:	e8 fc ff ff ff       	call   d9 <free_global_memory+0xd9>
      dd:	83 c4 10             	add    esp,0x10
      e0:	8b 45 08             	mov    eax,DWORD PTR [ebp+0x8]
      e3:	8b 40 20             	mov    eax,DWORD PTR [eax+0x20]
      e6:	83 ec 0c             	sub    esp,0xc
      e9:	50                   	push   eax
      ea:	e8 fc ff ff ff       	call   eb <free_global_memory+0xeb>
      ef:	83 c4 10             	add    esp,0x10
      f2:	8b 45 08             	mov    eax,DWORD PTR [ebp+0x8]
      f5:	8b 40 10             	mov    eax,DWORD PTR [eax+0x10]
      f8:	83 ec 0c             	sub    esp,0xc
      fb:	50                   	push   eax
      fc:	e8 fc ff ff ff       	call   fd <free_global_memory+0xfd>
     101:	83 c4 10             	add    esp,0x10
     104:	8b 45 08             	mov    eax,DWORD PTR [ebp+0x8]
     107:	8b 40 18             	mov    eax,DWORD PTR [eax+0x18]
     10a:	83 ec 0c             	sub    esp,0xc
     10d:	50                   	push   eax
     10e:	e8 fc ff ff ff       	call   10f <free_global_memory+0x10f>
     113:	83 c4 10             	add    esp,0x10
     116:	83 ec 04             	sub    esp,0x4
     119:	ff 75 0c             	push   DWORD PTR [ebp+0xc]
     11c:	6a 00                	push   0x0
     11e:	ff 75 08             	push   DWORD PTR [ebp+0x8]
     121:	e8 fc ff ff ff       	call   122 <free_global_memory+0x122>
     126:	83 c4 10             	add    esp,0x10
     129:	83 ec 0c             	sub    esp,0xc
     12c:	ff 75 08             	push   DWORD PTR [ebp+0x8]
     12f:	e8 fc ff ff ff       	call   130 <free_global_memory+0x130>
     134:	83 c4 10             	add    esp,0x10
     137:	90                   	nop
     138:	8b 5d fc             	mov    ebx,DWORD PTR [ebp-0x4]
     13b:	c9                   	leave  
     13c:	c3                   	ret    

0000013d <size_check>:
     13d:	55                   	push   ebp
     13e:	89 e5                	mov    ebp,esp
     140:	83 ec 18             	sub    esp,0x18
     143:	e8 fc ff ff ff       	call   144 <size_check+0x7>
     148:	05 01 00 00 00       	add    eax,0x1
     14d:	8b 45 08             	mov    eax,DWORD PTR [ebp+0x8]
     150:	89 45 e8             	mov    DWORD PTR [ebp-0x18],eax
     153:	8b 45 0c             	mov    eax,DWORD PTR [ebp+0xc]
     156:	89 45 ec             	mov    DWORD PTR [ebp-0x14],eax
     159:	c7 45 fc 00 00 00 00 	mov    DWORD PTR [ebp-0x4],0x0
     160:	b8 00 04 00 00       	mov    eax,0x400
     165:	ba 00 00 00 00       	mov    edx,0x0
     16a:	8b 4d ec             	mov    ecx,DWORD PTR [ebp-0x14]
     16d:	39 45 e8             	cmp    DWORD PTR [ebp-0x18],eax
     170:	19 d1                	sbb    ecx,edx
     172:	7c 20                	jl     194 <size_check+0x57>
     174:	b8 00 00 10 00       	mov    eax,0x100000
     179:	ba 00 00 00 00       	mov    edx,0x0
     17e:	8b 4d ec             	mov    ecx,DWORD PTR [ebp-0x14]
     181:	39 45 e8             	cmp    DWORD PTR [ebp-0x18],eax
     184:	19 d1                	sbb    ecx,edx
     186:	7d 0c                	jge    194 <size_check+0x57>
     188:	c7 45 fc 01 00 00 00 	mov    DWORD PTR [ebp-0x4],0x1
     18f:	e9 f9 00 00 00       	jmp    28d <size_check+0x150>
     194:	b8 00 00 10 00       	mov    eax,0x100000
     199:	ba 00 00 00 00       	mov    edx,0x0
     19e:	8b 4d ec             	mov    ecx,DWORD PTR [ebp-0x14]
     1a1:	39 45 e8             	cmp    DWORD PTR [ebp-0x18],eax
     1a4:	19 d1                	sbb    ecx,edx
     1a6:	7c 20                	jl     1c8 <size_check+0x8b>
     1a8:	b8 00 00 00 40       	mov    eax,0x40000000
     1ad:	ba 00 00 00 00       	mov    edx,0x0
     1b2:	8b 4d ec             	mov    ecx,DWORD PTR [ebp-0x14]
     1b5:	39 45 e8             	cmp    DWORD PTR [ebp-0x18],eax
     1b8:	19 d1                	sbb    ecx,edx
     1ba:	7d 0c                	jge    1c8 <size_check+0x8b>
     1bc:	c7 45 fc 02 00 00 00 	mov    DWORD PTR [ebp-0x4],0x2
     1c3:	e9 c5 00 00 00       	jmp    28d <size_check+0x150>
     1c8:	b8 00 00 00 40       	mov    eax,0x40000000
     1cd:	ba 00 00 00 00       	mov    edx,0x0
     1d2:	8b 4d ec             	mov    ecx,DWORD PTR [ebp-0x14]
     1d5:	39 45 e8             	cmp    DWORD PTR [ebp-0x18],eax
     1d8:	19 d1                	sbb    ecx,edx
     1da:	7c 20                	jl     1fc <size_check+0xbf>
     1dc:	b8 00 00 00 00       	mov    eax,0x0
     1e1:	ba 00 01 00 00       	mov    edx,0x100
     1e6:	8b 4d ec             	mov    ecx,DWORD PTR [ebp-0x14]
     1e9:	39 45 e8             	cmp    DWORD PTR [ebp-0x18],eax
     1ec:	19 d1                	sbb    ecx,edx
     1ee:	7d 0c                	jge    1fc <size_check+0xbf>
     1f0:	c7 45 fc 03 00 00 00 	mov    DWORD PTR [ebp-0x4],0x3
     1f7:	e9 91 00 00 00       	jmp    28d <size_check+0x150>
     1fc:	b8 00 00 00 00       	mov    eax,0x0
     201:	ba 00 01 00 00       	mov    edx,0x100
     206:	8b 4d ec             	mov    ecx,DWORD PTR [ebp-0x14]
     209:	39 45 e8             	cmp    DWORD PTR [ebp-0x18],eax
     20c:	19 d1                	sbb    ecx,edx
     20e:	7c 1d                	jl     22d <size_check+0xf0>
     210:	b8 00 00 00 00       	mov    eax,0x0
     215:	ba 00 00 04 00       	mov    edx,0x40000
     21a:	8b 4d ec             	mov    ecx,DWORD PTR [ebp-0x14]
     21d:	39 45 e8             	cmp    DWORD PTR [ebp-0x18],eax
     220:	19 d1                	sbb    ecx,edx
     222:	7d 09                	jge    22d <size_check+0xf0>
     224:	c7 45 fc 04 00 00 00 	mov    DWORD PTR [ebp-0x4],0x4
     22b:	eb 60                	jmp    28d <size_check+0x150>
     22d:	b8 00 00 00 00       	mov    eax,0x0
     232:	ba 00 00 04 00       	mov    edx,0x40000
     237:	8b 4d ec             	mov    ecx,DWORD PTR [ebp-0x14]
     23a:	39 45 e8             	cmp    DWORD PTR [ebp-0x18],eax
     23d:	19 d1                	sbb    ecx,edx
     23f:	7c 1d                	jl     25e <size_check+0x121>
     241:	b8 00 00 00 00       	mov    eax,0x0
     246:	ba 00 00 00 10       	mov    edx,0x10000000
     24b:	8b 4d ec             	mov    ecx,DWORD PTR [ebp-0x14]
     24e:	39 45 e8             	cmp    DWORD PTR [ebp-0x18],eax
     251:	19 d1                	sbb    ecx,edx
     253:	7d 09                	jge    25e <size_check+0x121>
     255:	c7 45 fc 05 00 00 00 	mov    DWORD PTR [ebp-0x4],0x5
     25c:	eb 2f                	jmp    28d <size_check+0x150>
     25e:	b8 00 00 00 00       	mov    eax,0x0
     263:	ba 00 00 00 10       	mov    edx,0x10000000
     268:	8b 4d ec             	mov    ecx,DWORD PTR [ebp-0x14]
     26b:	39 45 e8             	cmp    DWORD PTR [ebp-0x18],eax
     26e:	19 d1                	sbb    ecx,edx
     270:	7c 1b                	jl     28d <size_check+0x150>
     272:	b8 00 00 00 00       	mov    eax,0x0
     277:	ba 00 00 00 00       	mov    edx,0x0
     27c:	8b 4d ec             	mov    ecx,DWORD PTR [ebp-0x14]
     27f:	39 45 e8             	cmp    DWORD PTR [ebp-0x18],eax
     282:	19 d1                	sbb    ecx,edx
     284:	7d 07                	jge    28d <size_check+0x150>
     286:	c7 45 fc 06 00 00 00 	mov    DWORD PTR [ebp-0x4],0x6
     28d:	8b 45 fc             	mov    eax,DWORD PTR [ebp-0x4]
     290:	c9                   	leave  
     291:	c3                   	ret    

00000292 <sizetodoubleprint>:
     292:	55                   	push   ebp
     293:	89 e5                	mov    ebp,esp
     295:	83 ec 10             	sub    esp,0x10
     298:	e8 fc ff ff ff       	call   299 <sizetodoubleprint+0x7>
     29d:	05 01 00 00 00       	add    eax,0x1
     2a2:	8b 55 0c             	mov    edx,DWORD PTR [ebp+0xc]
     2a5:	89 55 f8             	mov    DWORD PTR [ebp-0x8],edx
     2a8:	8b 55 10             	mov    edx,DWORD PTR [ebp+0x10]
     2ab:	89 55 fc             	mov    DWORD PTR [ebp-0x4],edx
     2ae:	83 7d 08 00          	cmp    DWORD PTR [ebp+0x8],0x0
     2b2:	74 22                	je     2d6 <sizetodoubleprint+0x44>
     2b4:	8b 55 08             	mov    edx,DWORD PTR [ebp+0x8]
     2b7:	83 ea 01             	sub    edx,0x1
     2ba:	8d 94 d0 40 00 00 00 	lea    edx,[eax+edx*8+0x40]
     2c1:	8b 02                	mov    eax,DWORD PTR [edx]
     2c3:	8b 52 04             	mov    edx,DWORD PTR [edx+0x4]
     2c6:	89 45 f0             	mov    DWORD PTR [ebp-0x10],eax
     2c9:	89 55 f4             	mov    DWORD PTR [ebp-0xc],edx
     2cc:	df 6d f0             	fild   QWORD PTR [ebp-0x10]
     2cf:	dd 45 f8             	fld    QWORD PTR [ebp-0x8]
     2d2:	de f1                	fdivrp st(1),st
     2d4:	eb 03                	jmp    2d9 <sizetodoubleprint+0x47>
     2d6:	dd 45 f8             	fld    QWORD PTR [ebp-0x8]
     2d9:	c9                   	leave  
     2da:	c3                   	ret    

000002db <KDFCLOMUL2>:
     2db:	55                   	push   ebp
     2dc:	89 e5                	mov    ebp,esp
     2de:	53                   	push   ebx
     2df:	83 ec 24             	sub    esp,0x24
     2e2:	e8 fc ff ff ff       	call   2e3 <KDFCLOMUL2+0x8>
     2e7:	81 c3 02 00 00 00    	add    ebx,0x2
     2ed:	8b 55 18             	mov    edx,DWORD PTR [ebp+0x18]
     2f0:	8b 45 10             	mov    eax,DWORD PTR [ebp+0x10]
     2f3:	01 d0                	add    eax,edx
     2f5:	83 c0 01             	add    eax,0x1
     2f8:	c1 e0 05             	shl    eax,0x5
     2fb:	89 45 ec             	mov    DWORD PTR [ebp-0x14],eax
     2fe:	83 ec 0c             	sub    esp,0xc
     301:	ff 75 ec             	push   DWORD PTR [ebp-0x14]
     304:	e8 fc ff ff ff       	call   305 <KDFCLOMUL2+0x2a>
     309:	83 c4 10             	add    esp,0x10
     30c:	89 45 e8             	mov    DWORD PTR [ebp-0x18],eax
     30f:	83 7d e8 00          	cmp    DWORD PTR [ebp-0x18],0x0
     313:	75 26                	jne    33b <KDFCLOMUL2+0x60>
     315:	8b 83 00 00 00 00    	mov    eax,DWORD PTR [ebx+0x0]
     31b:	8b 00                	mov    eax,DWORD PTR [eax]
     31d:	50                   	push   eax
     31e:	6a 1c                	push   0x1c
     320:	6a 01                	push   0x1
     322:	8d 83 c2 00 00 00    	lea    eax,[ebx+0xc2]
     328:	50                   	push   eax
     329:	e8 fc ff ff ff       	call   32a <KDFCLOMUL2+0x4f>
     32e:	83 c4 10             	add    esp,0x10
     331:	83 ec 0c             	sub    esp,0xc
     334:	6a 01                	push   0x1
     336:	e8 fc ff ff ff       	call   337 <KDFCLOMUL2+0x5c>
     33b:	83 ec 08             	sub    esp,0x8
     33e:	ff 75 10             	push   DWORD PTR [ebp+0x10]
     341:	ff 75 0c             	push   DWORD PTR [ebp+0xc]
     344:	e8 fc ff ff ff       	call   345 <KDFCLOMUL2+0x6a>
     349:	83 c4 10             	add    esp,0x10
     34c:	89 45 e4             	mov    DWORD PTR [ebp-0x1c],eax
     34f:	c1 6d e4 10          	shr    DWORD PTR [ebp-0x1c],0x10
     353:	81 4d e4 00 40 00 00 	or     DWORD PTR [ebp-0x1c],0x4000
     35a:	8b 45 08             	mov    eax,DWORD PTR [ebp+0x8]
     35d:	8b 50 14             	mov    edx,DWORD PTR [eax+0x14]
     360:	8b 45 08             	mov    eax,DWORD PTR [ebp+0x8]
     363:	8b 40 10             	mov    eax,DWORD PTR [eax+0x10]
     366:	83 ec 04             	sub    esp,0x4
     369:	52                   	push   edx
     36a:	6a 00                	push   0x0
     36c:	50                   	push   eax
     36d:	e8 fc ff ff ff       	call   36e <KDFCLOMUL2+0x93>
     372:	83 c4 10             	add    esp,0x10
     375:	8b 45 08             	mov    eax,DWORD PTR [ebp+0x8]
     378:	8b 40 10             	mov    eax,DWORD PTR [eax+0x10]
     37b:	83 ec 0c             	sub    esp,0xc
     37e:	50                   	push   eax
     37f:	e8 fc ff ff ff       	call   380 <KDFCLOMUL2+0xa5>
     384:	83 c4 10             	add    esp,0x10
     387:	8b 45 08             	mov    eax,DWORD PTR [ebp+0x8]
     38a:	8b 40 10             	mov    eax,DWORD PTR [eax+0x10]
     38d:	83 ec 04             	sub    esp,0x4
     390:	ff 75 10             	push   DWORD PTR [ebp+0x10]
     393:	ff 75 0c             	push   DWORD PTR [ebp+0xc]
     396:	50                   	push   eax
     397:	e8 fc ff ff ff       	call   398 <KDFCLOMUL2+0xbd>
     39c:	83 c4 10             	add    esp,0x10
     39f:	8b 45 08             	mov    eax,DWORD PTR [ebp+0x8]
     3a2:	8b 40 10             	mov    eax,DWORD PTR [eax+0x10]
     3a5:	83 ec 0c             	sub    esp,0xc
     3a8:	50                   	push   eax
     3a9:	e8 fc ff ff ff       	call   3aa <KDFCLOMUL2+0xcf>
     3ae:	83 c4 10             	add    esp,0x10
     3b1:	c7 45 f4 00 00 00 00 	mov    DWORD PTR [ebp-0xc],0x0
     3b8:	eb 24                	jmp    3de <KDFCLOMUL2+0x103>
     3ba:	8b 45 08             	mov    eax,DWORD PTR [ebp+0x8]
     3bd:	8b 40 10             	mov    eax,DWORD PTR [eax+0x10]
     3c0:	8d 50 6c             	lea    edx,[eax+0x6c]
     3c3:	8b 4d e8             	mov    ecx,DWORD PTR [ebp-0x18]
     3c6:	8b 45 f4             	mov    eax,DWORD PTR [ebp-0xc]
     3c9:	01 c8                	add    eax,ecx
     3cb:	83 ec 04             	sub    esp,0x4
     3ce:	6a 20                	push   0x20
     3d0:	52                   	push   edx
     3d1:	50                   	push   eax
     3d2:	e8 fc ff ff ff       	call   3d3 <KDFCLOMUL2+0xf8>
     3d7:	83 c4 10             	add    esp,0x10
     3da:	83 45 f4 20          	add    DWORD PTR [ebp-0xc],0x20
     3de:	8b 45 f4             	mov    eax,DWORD PTR [ebp-0xc]
     3e1:	3b 45 ec             	cmp    eax,DWORD PTR [ebp-0x14]
     3e4:	72 d4                	jb     3ba <KDFCLOMUL2+0xdf>
     3e6:	c7 45 f4 00 00 00 00 	mov    DWORD PTR [ebp-0xc],0x0
     3ed:	eb 63                	jmp    452 <KDFCLOMUL2+0x177>
     3ef:	c7 45 f0 00 00 00 00 	mov    DWORD PTR [ebp-0x10],0x0
     3f6:	eb 1c                	jmp    414 <KDFCLOMUL2+0x139>
     3f8:	8b 45 08             	mov    eax,DWORD PTR [ebp+0x8]
     3fb:	8b 40 10             	mov    eax,DWORD PTR [eax+0x10]
     3fe:	83 ec 04             	sub    esp,0x4
     401:	ff 75 10             	push   DWORD PTR [ebp+0x10]
     404:	ff 75 0c             	push   DWORD PTR [ebp+0xc]
     407:	50                   	push   eax
     408:	e8 fc ff ff ff       	call   409 <KDFCLOMUL2+0x12e>
     40d:	83 c4 10             	add    esp,0x10
     410:	83 45 f0 01          	add    DWORD PTR [ebp-0x10],0x1
     414:	8b 45 f0             	mov    eax,DWORD PTR [ebp-0x10]
     417:	3b 45 e4             	cmp    eax,DWORD PTR [ebp-0x1c]
     41a:	72 dc                	jb     3f8 <KDFCLOMUL2+0x11d>
     41c:	8b 45 08             	mov    eax,DWORD PTR [ebp+0x8]
     41f:	8b 40 10             	mov    eax,DWORD PTR [eax+0x10]
     422:	83 ec 0c             	sub    esp,0xc
     425:	50                   	push   eax
     426:	e8 fc ff ff ff       	call   427 <KDFCLOMUL2+0x14c>
     42b:	83 c4 10             	add    esp,0x10
     42e:	8b 45 08             	mov    eax,DWORD PTR [ebp+0x8]
     431:	8b 40 10             	mov    eax,DWORD PTR [eax+0x10]
     434:	8d 50 6c             	lea    edx,[eax+0x6c]
     437:	8b 4d e8             	mov    ecx,DWORD PTR [ebp-0x18]
     43a:	8b 45 f4             	mov    eax,DWORD PTR [ebp-0xc]
     43d:	01 c8                	add    eax,ecx
     43f:	83 ec 04             	sub    esp,0x4
     442:	6a 20                	push   0x20
     444:	52                   	push   edx
     445:	50                   	push   eax
     446:	e8 fc ff ff ff       	call   447 <KDFCLOMUL2+0x16c>
     44b:	83 c4 10             	add    esp,0x10
     44e:	83 45 f4 20          	add    DWORD PTR [ebp-0xc],0x20
     452:	8b 45 f4             	mov    eax,DWORD PTR [ebp-0xc]
     455:	3b 45 ec             	cmp    eax,DWORD PTR [ebp-0x14]
     458:	72 95                	jb     3ef <KDFCLOMUL2+0x114>
     45a:	8b 45 08             	mov    eax,DWORD PTR [ebp+0x8]
     45d:	8b 50 14             	mov    edx,DWORD PTR [eax+0x14]
     460:	8b 45 08             	mov    eax,DWORD PTR [ebp+0x8]
     463:	8b 40 10             	mov    eax,DWORD PTR [eax+0x10]
     466:	83 ec 04             	sub    esp,0x4
     469:	52                   	push   edx
     46a:	6a 00                	push   0x0
     46c:	50                   	push   eax
     46d:	e8 fc ff ff ff       	call   46e <KDFCLOMUL2+0x193>
     472:	83 c4 10             	add    esp,0x10
     475:	8b 45 08             	mov    eax,DWORD PTR [ebp+0x8]
     478:	8b 40 10             	mov    eax,DWORD PTR [eax+0x10]
     47b:	83 ec 0c             	sub    esp,0xc
     47e:	50                   	push   eax
     47f:	e8 fc ff ff ff       	call   480 <KDFCLOMUL2+0x1a5>
     484:	83 c4 10             	add    esp,0x10
     487:	c7 45 f4 00 00 00 00 	mov    DWORD PTR [ebp-0xc],0x0
     48e:	eb 65                	jmp    4f5 <KDFCLOMUL2+0x21a>
     490:	8b 45 08             	mov    eax,DWORD PTR [ebp+0x8]
     493:	8b 40 10             	mov    eax,DWORD PTR [eax+0x10]
     496:	83 ec 04             	sub    esp,0x4
     499:	ff 75 ec             	push   DWORD PTR [ebp-0x14]
     49c:	ff 75 e8             	push   DWORD PTR [ebp-0x18]
     49f:	50                   	push   eax
     4a0:	e8 fc ff ff ff       	call   4a1 <KDFCLOMUL2+0x1c6>
     4a5:	83 c4 10             	add    esp,0x10
     4a8:	8b 45 08             	mov    eax,DWORD PTR [ebp+0x8]
     4ab:	8b 40 10             	mov    eax,DWORD PTR [eax+0x10]
     4ae:	83 ec 0c             	sub    esp,0xc
     4b1:	50                   	push   eax
     4b2:	e8 fc ff ff ff       	call   4b3 <KDFCLOMUL2+0x1d8>
     4b7:	83 c4 10             	add    esp,0x10
     4ba:	8b 45 18             	mov    eax,DWORD PTR [ebp+0x18]
     4bd:	2b 45 f4             	sub    eax,DWORD PTR [ebp-0xc]
     4c0:	89 45 f0             	mov    DWORD PTR [ebp-0x10],eax
     4c3:	83 7d f0 20          	cmp    DWORD PTR [ebp-0x10],0x20
     4c7:	76 07                	jbe    4d0 <KDFCLOMUL2+0x1f5>
     4c9:	c7 45 f0 20 00 00 00 	mov    DWORD PTR [ebp-0x10],0x20
     4d0:	8b 45 08             	mov    eax,DWORD PTR [ebp+0x8]
     4d3:	8b 40 10             	mov    eax,DWORD PTR [eax+0x10]
     4d6:	8d 50 6c             	lea    edx,[eax+0x6c]
     4d9:	8b 4d 14             	mov    ecx,DWORD PTR [ebp+0x14]
     4dc:	8b 45 f4             	mov    eax,DWORD PTR [ebp-0xc]
     4df:	01 c8                	add    eax,ecx
     4e1:	83 ec 04             	sub    esp,0x4
     4e4:	ff 75 f0             	push   DWORD PTR [ebp-0x10]
     4e7:	52                   	push   edx
     4e8:	50                   	push   eax
     4e9:	e8 fc ff ff ff       	call   4ea <KDFCLOMUL2+0x20f>
     4ee:	83 c4 10             	add    esp,0x10
     4f1:	83 45 f4 20          	add    DWORD PTR [ebp-0xc],0x20
     4f5:	8b 45 f4             	mov    eax,DWORD PTR [ebp-0xc]
     4f8:	3b 45 18             	cmp    eax,DWORD PTR [ebp+0x18]
     4fb:	72 93                	jb     490 <KDFCLOMUL2+0x1b5>
     4fd:	8b 45 08             	mov    eax,DWORD PTR [ebp+0x8]
     500:	8b 50 14             	mov    edx,DWORD PTR [eax+0x14]
     503:	8b 45 08             	mov    eax,DWORD PTR [ebp+0x8]
     506:	8b 40 10             	mov    eax,DWORD PTR [eax+0x10]
     509:	83 ec 04             	sub    esp,0x4
     50c:	52                   	push   edx
     50d:	6a 00                	push   0x0
     50f:	50                   	push   eax
     510:	e8 fc ff ff ff       	call   511 <KDFCLOMUL2+0x236>
     515:	83 c4 10             	add    esp,0x10
     518:	83 ec 04             	sub    esp,0x4
     51b:	ff 75 ec             	push   DWORD PTR [ebp-0x14]
     51e:	6a 00                	push   0x0
     520:	ff 75 e8             	push   DWORD PTR [ebp-0x18]
     523:	e8 fc ff ff ff       	call   524 <KDFCLOMUL2+0x249>
     528:	83 c4 10             	add    esp,0x10
     52b:	83 ec 0c             	sub    esp,0xc
     52e:	ff 75 e8             	push   DWORD PTR [ebp-0x18]
     531:	e8 fc ff ff ff       	call   532 <KDFCLOMUL2+0x257>
     536:	83 c4 10             	add    esp,0x10
     539:	c7 45 e8 00 00 00 00 	mov    DWORD PTR [ebp-0x18],0x0
     540:	90                   	nop
     541:	8b 5d fc             	mov    ebx,DWORD PTR [ebp-0x4]
     544:	c9                   	leave  
     545:	c3                   	ret    

00000546 <KDFCLOMUL>:
     546:	55                   	push   ebp
     547:	89 e5                	mov    ebp,esp
     549:	53                   	push   ebx
     54a:	83 ec 14             	sub    esp,0x14
     54d:	e8 fc ff ff ff       	call   54e <KDFCLOMUL+0x8>
     552:	81 c3 02 00 00 00    	add    ebx,0x2
     558:	c7 45 e8 00 00 00 00 	mov    DWORD PTR [ebp-0x18],0x0
     55f:	c7 45 f4 01 00 00 00 	mov    DWORD PTR [ebp-0xc],0x1
     566:	eb 33                	jmp    59b <KDFCLOMUL+0x55>
     568:	83 ec 08             	sub    esp,0x8
     56b:	ff 75 f4             	push   DWORD PTR [ebp-0xc]
     56e:	ff 75 0c             	push   DWORD PTR [ebp+0xc]
     571:	e8 fc ff ff ff       	call   572 <KDFCLOMUL+0x2c>
     576:	83 c4 10             	add    esp,0x10
     579:	83 c0 01             	add    eax,0x1
     57c:	31 45 e8             	xor    DWORD PTR [ebp-0x18],eax
     57f:	8b 55 10             	mov    edx,DWORD PTR [ebp+0x10]
     582:	8b 45 18             	mov    eax,DWORD PTR [ebp+0x18]
     585:	01 c2                	add    edx,eax
     587:	8b 45 f4             	mov    eax,DWORD PTR [ebp-0xc]
     58a:	01 c2                	add    edx,eax
     58c:	8b 45 e8             	mov    eax,DWORD PTR [ebp-0x18]
     58f:	29 d0                	sub    eax,edx
     591:	83 e8 01             	sub    eax,0x1
     594:	89 45 e8             	mov    DWORD PTR [ebp-0x18],eax
     597:	83 45 f4 01          	add    DWORD PTR [ebp-0xc],0x1
     59b:	8b 45 f4             	mov    eax,DWORD PTR [ebp-0xc]
     59e:	3b 45 10             	cmp    eax,DWORD PTR [ebp+0x10]
     5a1:	76 c5                	jbe    568 <KDFCLOMUL+0x22>
     5a3:	83 ec 08             	sub    esp,0x8
     5a6:	ff 75 10             	push   DWORD PTR [ebp+0x10]
     5a9:	ff 75 0c             	push   DWORD PTR [ebp+0xc]
     5ac:	e8 fc ff ff ff       	call   5ad <KDFCLOMUL+0x67>
     5b1:	83 c4 10             	add    esp,0x10
     5b4:	21 45 e8             	and    DWORD PTR [ebp-0x18],eax
     5b7:	c1 6d e8 12          	shr    DWORD PTR [ebp-0x18],0x12
     5bb:	81 4d e8 00 40 00 00 	or     DWORD PTR [ebp-0x18],0x4000
     5c2:	8b 45 08             	mov    eax,DWORD PTR [ebp+0x8]
     5c5:	8b 40 10             	mov    eax,DWORD PTR [eax+0x10]
     5c8:	83 ec 0c             	sub    esp,0xc
     5cb:	50                   	push   eax
     5cc:	e8 fc ff ff ff       	call   5cd <KDFCLOMUL+0x87>
     5d1:	83 c4 10             	add    esp,0x10
     5d4:	c7 45 ec 00 00 00 00 	mov    DWORD PTR [ebp-0x14],0x0
     5db:	8b 45 ec             	mov    eax,DWORD PTR [ebp-0x14]
     5de:	89 45 f4             	mov    DWORD PTR [ebp-0xc],eax
     5e1:	eb 6f                	jmp    652 <KDFCLOMUL+0x10c>
     5e3:	c7 45 f0 00 00 00 00 	mov    DWORD PTR [ebp-0x10],0x0
     5ea:	eb 1c                	jmp    608 <KDFCLOMUL+0xc2>
     5ec:	8b 45 08             	mov    eax,DWORD PTR [ebp+0x8]
     5ef:	8b 40 10             	mov    eax,DWORD PTR [eax+0x10]
     5f2:	83 ec 04             	sub    esp,0x4
     5f5:	ff 75 10             	push   DWORD PTR [ebp+0x10]
     5f8:	ff 75 0c             	push   DWORD PTR [ebp+0xc]
     5fb:	50                   	push   eax
     5fc:	e8 fc ff ff ff       	call   5fd <KDFCLOMUL+0xb7>
     601:	83 c4 10             	add    esp,0x10
     604:	83 45 f0 01          	add    DWORD PTR [ebp-0x10],0x1
     608:	8b 45 f0             	mov    eax,DWORD PTR [ebp-0x10]
     60b:	3b 45 e8             	cmp    eax,DWORD PTR [ebp-0x18]
     60e:	72 dc                	jb     5ec <KDFCLOMUL+0xa6>
     610:	8b 45 08             	mov    eax,DWORD PTR [ebp+0x8]
     613:	8b 40 10             	mov    eax,DWORD PTR [eax+0x10]
     616:	83 ec 0c             	sub    esp,0xc
     619:	50                   	push   eax
     61a:	e8 fc ff ff ff       	call   61b <KDFCLOMUL+0xd5>
     61f:	83 c4 10             	add    esp,0x10
     622:	83 7d ec 1f          	cmp    DWORD PTR [ebp-0x14],0x1f
     626:	76 07                	jbe    62f <KDFCLOMUL+0xe9>
     628:	c7 45 ec 00 00 00 00 	mov    DWORD PTR [ebp-0x14],0x0
     62f:	8b 45 08             	mov    eax,DWORD PTR [ebp+0x8]
     632:	8b 48 10             	mov    ecx,DWORD PTR [eax+0x10]
     635:	8b 55 14             	mov    edx,DWORD PTR [ebp+0x14]
     638:	8b 45 f4             	mov    eax,DWORD PTR [ebp-0xc]
     63b:	01 c2                	add    edx,eax
     63d:	8b 45 ec             	mov    eax,DWORD PTR [ebp-0x14]
     640:	01 c8                	add    eax,ecx
     642:	83 c0 6c             	add    eax,0x6c
     645:	0f b6 00             	movzx  eax,BYTE PTR [eax]
     648:	88 02                	mov    BYTE PTR [edx],al
     64a:	83 45 f4 01          	add    DWORD PTR [ebp-0xc],0x1
     64e:	83 45 ec 01          	add    DWORD PTR [ebp-0x14],0x1
     652:	8b 45 f4             	mov    eax,DWORD PTR [ebp-0xc]
     655:	3b 45 18             	cmp    eax,DWORD PTR [ebp+0x18]
     658:	72 89                	jb     5e3 <KDFCLOMUL+0x9d>
     65a:	8b 45 08             	mov    eax,DWORD PTR [ebp+0x8]
     65d:	8b 50 14             	mov    edx,DWORD PTR [eax+0x14]
     660:	8b 45 08             	mov    eax,DWORD PTR [ebp+0x8]
     663:	8b 40 10             	mov    eax,DWORD PTR [eax+0x10]
     666:	83 ec 04             	sub    esp,0x4
     669:	52                   	push   edx
     66a:	6a 00                	push   0x0
     66c:	50                   	push   eax
     66d:	e8 fc ff ff ff       	call   66e <KDFCLOMUL+0x128>
     672:	83 c4 10             	add    esp,0x10
     675:	90                   	nop
     676:	8b 5d fc             	mov    ebx,DWORD PTR [ebp-0x4]
     679:	c9                   	leave  
     67a:	c3                   	ret    

0000067b <operation_variant>:
     67b:	55                   	push   ebp
     67c:	89 e5                	mov    ebp,esp
     67e:	e8 fc ff ff ff       	call   67f <operation_variant+0x4>
     683:	05 01 00 00 00       	add    eax,0x1
     688:	83 7d 08 00          	cmp    DWORD PTR [ebp+0x8],0x0
     68c:	0f 95 c0             	setne  al
     68f:	0f b6 c0             	movzx  eax,al
     692:	5d                   	pop    ebp
     693:	c3                   	ret    

00000694 <size_of_file>:
     694:	55                   	push   ebp
     695:	89 e5                	mov    ebp,esp
     697:	53                   	push   ebx
     698:	83 ec 14             	sub    esp,0x14
     69b:	e8 fc ff ff ff       	call   69c <size_of_file+0x8>
     6a0:	81 c3 02 00 00 00    	add    ebx,0x2
     6a6:	83 7d 08 00          	cmp    DWORD PTR [ebp+0x8],0x0
     6aa:	75 0c                	jne    6b8 <size_of_file+0x24>
     6ac:	b8 ff ff ff ff       	mov    eax,0xffffffff
     6b1:	ba ff ff ff ff       	mov    edx,0xffffffff
     6b6:	eb 5c                	jmp    714 <size_of_file+0x80>
     6b8:	6a 02                	push   0x2
     6ba:	6a 00                	push   0x0
     6bc:	6a 00                	push   0x0
     6be:	ff 75 08             	push   DWORD PTR [ebp+0x8]
     6c1:	e8 fc ff ff ff       	call   6c2 <size_of_file+0x2e>
     6c6:	83 c4 10             	add    esp,0x10
     6c9:	85 c0                	test   eax,eax
     6cb:	74 0c                	je     6d9 <size_of_file+0x45>
     6cd:	b8 ff ff ff ff       	mov    eax,0xffffffff
     6d2:	ba ff ff ff ff       	mov    edx,0xffffffff
     6d7:	eb 3b                	jmp    714 <size_of_file+0x80>
     6d9:	83 ec 0c             	sub    esp,0xc
     6dc:	ff 75 08             	push   DWORD PTR [ebp+0x8]
     6df:	e8 fc ff ff ff       	call   6e0 <size_of_file+0x4c>
     6e4:	83 c4 10             	add    esp,0x10
     6e7:	89 45 f0             	mov    DWORD PTR [ebp-0x10],eax
     6ea:	89 55 f4             	mov    DWORD PTR [ebp-0xc],edx
     6ed:	6a 00                	push   0x0
     6ef:	6a 00                	push   0x0
     6f1:	6a 00                	push   0x0
     6f3:	ff 75 08             	push   DWORD PTR [ebp+0x8]
     6f6:	e8 fc ff ff ff       	call   6f7 <size_of_file+0x63>
     6fb:	83 c4 10             	add    esp,0x10
     6fe:	85 c0                	test   eax,eax
     700:	74 0c                	je     70e <size_of_file+0x7a>
     702:	b8 ff ff ff ff       	mov    eax,0xffffffff
     707:	ba ff ff ff ff       	mov    edx,0xffffffff
     70c:	eb 06                	jmp    714 <size_of_file+0x80>
     70e:	8b 45 f0             	mov    eax,DWORD PTR [ebp-0x10]
     711:	8b 55 f4             	mov    edx,DWORD PTR [ebp-0xc]
     714:	8b 5d fc             	mov    ebx,DWORD PTR [ebp-0x4]
     717:	c9                   	leave  
     718:	c3                   	ret    

00000719 <cipher_free>:
     719:	55                   	push   ebp
     71a:	89 e5                	mov    ebp,esp
     71c:	53                   	push   ebx
     71d:	83 ec 04             	sub    esp,0x4
     720:	e8 fc ff ff ff       	call   721 <cipher_free+0x8>
     725:	81 c3 02 00 00 00    	add    ebx,0x2
     72b:	83 ec 04             	sub    esp,0x4
     72e:	ff 75 0c             	push   DWORD PTR [ebp+0xc]
     731:	6a 00                	push   0x0
     733:	ff 75 08             	push   DWORD PTR [ebp+0x8]
     736:	e8 fc ff ff ff       	call   737 <cipher_free+0x1e>
     73b:	83 c4 10             	add    esp,0x10
     73e:	83 ec 0c             	sub    esp,0xc
     741:	ff 75 08             	push   DWORD PTR [ebp+0x8]
     744:	e8 fc ff ff ff       	call   745 <cipher_free+0x2c>
     749:	83 c4 10             	add    esp,0x10
     74c:	90                   	nop
     74d:	8b 5d fc             	mov    ebx,DWORD PTR [ebp-0x4]
     750:	c9                   	leave  
     751:	c3                   	ret    

00000752 <hmac_sha256_uf>:
     752:	55                   	push   ebp
     753:	89 e5                	mov    ebp,esp
     755:	53                   	push   ebx
     756:	83 ec 14             	sub    esp,0x14
     759:	e8 fc ff ff ff       	call   75a <hmac_sha256_uf+0x8>
     75e:	81 c3 02 00 00 00    	add    ebx,0x2
     764:	c7 45 f0 60 00 00 00 	mov    DWORD PTR [ebp-0x10],0x60
     76b:	83 ec 0c             	sub    esp,0xc
     76e:	ff 75 f0             	push   DWORD PTR [ebp-0x10]
     771:	e8 fc ff ff ff       	call   772 <hmac_sha256_uf+0x20>
     776:	83 c4 10             	add    esp,0x10
     779:	89 45 ec             	mov    DWORD PTR [ebp-0x14],eax
     77c:	83 7d ec 00          	cmp    DWORD PTR [ebp-0x14],0x0
     780:	75 26                	jne    7a8 <hmac_sha256_uf+0x56>
     782:	8b 83 00 00 00 00    	mov    eax,DWORD PTR [ebx+0x0]
     788:	8b 00                	mov    eax,DWORD PTR [eax]
     78a:	50                   	push   eax
     78b:	6a 1c                	push   0x1c
     78d:	6a 01                	push   0x1
     78f:	8d 83 c2 00 00 00    	lea    eax,[ebx+0xc2]
     795:	50                   	push   eax
     796:	e8 fc ff ff ff       	call   797 <hmac_sha256_uf+0x45>
     79b:	83 c4 10             	add    esp,0x10
     79e:	83 ec 0c             	sub    esp,0xc
     7a1:	6a 01                	push   0x1
     7a3:	e8 fc ff ff ff       	call   7a4 <hmac_sha256_uf+0x52>
     7a8:	8b 45 08             	mov    eax,DWORD PTR [ebp+0x8]
     7ab:	8b 40 24             	mov    eax,DWORD PTR [eax+0x24]
     7ae:	ba 20 00 00 00       	mov    edx,0x20
     7b3:	83 f8 20             	cmp    eax,0x20
     7b6:	0f 47 c2             	cmova  eax,edx
     7b9:	89 45 e8             	mov    DWORD PTR [ebp-0x18],eax
     7bc:	8b 45 08             	mov    eax,DWORD PTR [ebp+0x8]
     7bf:	8b 40 10             	mov    eax,DWORD PTR [eax+0x10]
     7c2:	8d 50 6c             	lea    edx,[eax+0x6c]
     7c5:	8b 45 ec             	mov    eax,DWORD PTR [ebp-0x14]
     7c8:	83 ec 04             	sub    esp,0x4
     7cb:	6a 20                	push   0x20
     7cd:	52                   	push   edx
     7ce:	50                   	push   eax
     7cf:	e8 fc ff ff ff       	call   7d0 <hmac_sha256_uf+0x7e>
     7d4:	83 c4 10             	add    esp,0x10
     7d7:	8b 45 08             	mov    eax,DWORD PTR [ebp+0x8]
     7da:	8b 40 20             	mov    eax,DWORD PTR [eax+0x20]
     7dd:	8b 55 ec             	mov    edx,DWORD PTR [ebp-0x14]
     7e0:	83 c2 20             	add    edx,0x20
     7e3:	83 ec 04             	sub    esp,0x4
     7e6:	ff 75 e8             	push   DWORD PTR [ebp-0x18]
     7e9:	50                   	push   eax
     7ea:	52                   	push   edx
     7eb:	e8 fc ff ff ff       	call   7ec <hmac_sha256_uf+0x9a>
     7f0:	83 c4 10             	add    esp,0x10
     7f3:	8b 45 08             	mov    eax,DWORD PTR [ebp+0x8]
     7f6:	8b 40 20             	mov    eax,DWORD PTR [eax+0x20]
     7f9:	8b 55 ec             	mov    edx,DWORD PTR [ebp-0x14]
     7fc:	83 c2 40             	add    edx,0x40
     7ff:	83 ec 04             	sub    esp,0x4
     802:	ff 75 e8             	push   DWORD PTR [ebp-0x18]
     805:	50                   	push   eax
     806:	52                   	push   edx
     807:	e8 fc ff ff ff       	call   808 <hmac_sha256_uf+0xb6>
     80c:	83 c4 10             	add    esp,0x10
     80f:	8b 45 e8             	mov    eax,DWORD PTR [ebp-0x18]
     812:	89 45 f4             	mov    DWORD PTR [ebp-0xc],eax
     815:	eb 20                	jmp    837 <hmac_sha256_uf+0xe5>
     817:	8b 55 ec             	mov    edx,DWORD PTR [ebp-0x14]
     81a:	8b 45 f4             	mov    eax,DWORD PTR [ebp-0xc]
     81d:	01 d0                	add    eax,edx
     81f:	83 c0 20             	add    eax,0x20
     822:	c6 00 00             	mov    BYTE PTR [eax],0x0
     825:	8b 55 ec             	mov    edx,DWORD PTR [ebp-0x14]
     828:	8b 45 f4             	mov    eax,DWORD PTR [ebp-0xc]
     82b:	01 d0                	add    eax,edx
     82d:	83 c0 40             	add    eax,0x40
     830:	c6 00 00             	mov    BYTE PTR [eax],0x0
     833:	83 45 f4 01          	add    DWORD PTR [ebp-0xc],0x1
     837:	83 7d f4 1f          	cmp    DWORD PTR [ebp-0xc],0x1f
     83b:	76 da                	jbe    817 <hmac_sha256_uf+0xc5>
     83d:	c7 45 f4 00 00 00 00 	mov    DWORD PTR [ebp-0xc],0x0
     844:	eb 44                	jmp    88a <hmac_sha256_uf+0x138>
     846:	8b 55 ec             	mov    edx,DWORD PTR [ebp-0x14]
     849:	8b 45 f4             	mov    eax,DWORD PTR [ebp-0xc]
     84c:	01 d0                	add    eax,edx
     84e:	83 c0 20             	add    eax,0x20
     851:	0f b6 00             	movzx  eax,BYTE PTR [eax]
     854:	83 f0 55             	xor    eax,0x55
     857:	89 c2                	mov    edx,eax
     859:	8b 4d ec             	mov    ecx,DWORD PTR [ebp-0x14]
     85c:	8b 45 f4             	mov    eax,DWORD PTR [ebp-0xc]
     85f:	01 c8                	add    eax,ecx
     861:	83 c0 20             	add    eax,0x20
     864:	88 10                	mov    BYTE PTR [eax],dl
     866:	8b 55 ec             	mov    edx,DWORD PTR [ebp-0x14]
     869:	8b 45 f4             	mov    eax,DWORD PTR [ebp-0xc]
     86c:	01 d0                	add    eax,edx
     86e:	83 c0 40             	add    eax,0x40
     871:	0f b6 00             	movzx  eax,BYTE PTR [eax]
     874:	83 f0 66             	xor    eax,0x66
     877:	89 c2                	mov    edx,eax
     879:	8b 4d ec             	mov    ecx,DWORD PTR [ebp-0x14]
     87c:	8b 45 f4             	mov    eax,DWORD PTR [ebp-0xc]
     87f:	01 c8                	add    eax,ecx
     881:	83 c0 40             	add    eax,0x40
     884:	88 10                	mov    BYTE PTR [eax],dl
     886:	83 45 f4 01          	add    DWORD PTR [ebp-0xc],0x1
     88a:	83 7d f4 1f          	cmp    DWORD PTR [ebp-0xc],0x1f
     88e:	76 b6                	jbe    846 <hmac_sha256_uf+0xf4>
     890:	8b 45 08             	mov    eax,DWORD PTR [ebp+0x8]
     893:	8b 50 14             	mov    edx,DWORD PTR [eax+0x14]
     896:	8b 45 08             	mov    eax,DWORD PTR [ebp+0x8]
     899:	8b 40 10             	mov    eax,DWORD PTR [eax+0x10]
     89c:	83 ec 04             	sub    esp,0x4
     89f:	52                   	push   edx
     8a0:	6a 00                	push   0x0
     8a2:	50                   	push   eax
     8a3:	e8 fc ff ff ff       	call   8a4 <hmac_sha256_uf+0x152>
     8a8:	83 c4 10             	add    esp,0x10
     8ab:	8b 45 08             	mov    eax,DWORD PTR [ebp+0x8]
     8ae:	8b 40 10             	mov    eax,DWORD PTR [eax+0x10]
     8b1:	83 ec 0c             	sub    esp,0xc
     8b4:	50                   	push   eax
     8b5:	e8 fc ff ff ff       	call   8b6 <hmac_sha256_uf+0x164>
     8ba:	83 c4 10             	add    esp,0x10
     8bd:	8b 45 ec             	mov    eax,DWORD PTR [ebp-0x14]
     8c0:	8d 50 20             	lea    edx,[eax+0x20]
     8c3:	8b 45 08             	mov    eax,DWORD PTR [ebp+0x8]
     8c6:	8b 40 10             	mov    eax,DWORD PTR [eax+0x10]
     8c9:	83 ec 04             	sub    esp,0x4
     8cc:	6a 20                	push   0x20
     8ce:	52                   	push   edx
     8cf:	50                   	push   eax
     8d0:	e8 fc ff ff ff       	call   8d1 <hmac_sha256_uf+0x17f>
     8d5:	83 c4 10             	add    esp,0x10
     8d8:	8b 55 ec             	mov    edx,DWORD PTR [ebp-0x14]
     8db:	8b 45 08             	mov    eax,DWORD PTR [ebp+0x8]
     8de:	8b 40 10             	mov    eax,DWORD PTR [eax+0x10]
     8e1:	83 ec 04             	sub    esp,0x4
     8e4:	6a 20                	push   0x20
     8e6:	52                   	push   edx
     8e7:	50                   	push   eax
     8e8:	e8 fc ff ff ff       	call   8e9 <hmac_sha256_uf+0x197>
     8ed:	83 c4 10             	add    esp,0x10
     8f0:	8b 45 08             	mov    eax,DWORD PTR [ebp+0x8]
     8f3:	8b 40 10             	mov    eax,DWORD PTR [eax+0x10]
     8f6:	83 ec 0c             	sub    esp,0xc
     8f9:	50                   	push   eax
     8fa:	e8 fc ff ff ff       	call   8fb <hmac_sha256_uf+0x1a9>
     8ff:	83 c4 10             	add    esp,0x10
     902:	8b 45 08             	mov    eax,DWORD PTR [ebp+0x8]
     905:	8b 40 10             	mov    eax,DWORD PTR [eax+0x10]
     908:	8d 50 6c             	lea    edx,[eax+0x6c]
     90b:	8b 45 ec             	mov    eax,DWORD PTR [ebp-0x14]
     90e:	83 ec 04             	sub    esp,0x4
     911:	6a 20                	push   0x20
     913:	52                   	push   edx
     914:	50                   	push   eax
     915:	e8 fc ff ff ff       	call   916 <hmac_sha256_uf+0x1c4>
     91a:	83 c4 10             	add    esp,0x10
     91d:	8b 45 08             	mov    eax,DWORD PTR [ebp+0x8]
     920:	8b 50 14             	mov    edx,DWORD PTR [eax+0x14]
     923:	8b 45 08             	mov    eax,DWORD PTR [ebp+0x8]
     926:	8b 40 10             	mov    eax,DWORD PTR [eax+0x10]
     929:	83 ec 04             	sub    esp,0x4
     92c:	52                   	push   edx
     92d:	6a 00                	push   0x0
     92f:	50                   	push   eax
     930:	e8 fc ff ff ff       	call   931 <hmac_sha256_uf+0x1df>
     935:	83 c4 10             	add    esp,0x10
     938:	8b 45 08             	mov    eax,DWORD PTR [ebp+0x8]
     93b:	8b 40 10             	mov    eax,DWORD PTR [eax+0x10]
     93e:	83 ec 0c             	sub    esp,0xc
     941:	50                   	push   eax
     942:	e8 fc ff ff ff       	call   943 <hmac_sha256_uf+0x1f1>
     947:	83 c4 10             	add    esp,0x10
     94a:	8b 45 ec             	mov    eax,DWORD PTR [ebp-0x14]
     94d:	8d 50 40             	lea    edx,[eax+0x40]
     950:	8b 45 08             	mov    eax,DWORD PTR [ebp+0x8]
     953:	8b 40 10             	mov    eax,DWORD PTR [eax+0x10]
     956:	83 ec 04             	sub    esp,0x4
     959:	6a 20                	push   0x20
     95b:	52                   	push   edx
     95c:	50                   	push   eax
     95d:	e8 fc ff ff ff       	call   95e <hmac_sha256_uf+0x20c>
     962:	83 c4 10             	add    esp,0x10
     965:	8b 55 ec             	mov    edx,DWORD PTR [ebp-0x14]
     968:	8b 45 08             	mov    eax,DWORD PTR [ebp+0x8]
     96b:	8b 40 10             	mov    eax,DWORD PTR [eax+0x10]
     96e:	83 ec 04             	sub    esp,0x4
     971:	6a 20                	push   0x20
     973:	52                   	push   edx
     974:	50                   	push   eax
     975:	e8 fc ff ff ff       	call   976 <hmac_sha256_uf+0x224>
     97a:	83 c4 10             	add    esp,0x10
     97d:	8b 45 08             	mov    eax,DWORD PTR [ebp+0x8]
     980:	8b 40 10             	mov    eax,DWORD PTR [eax+0x10]
     983:	83 ec 0c             	sub    esp,0xc
     986:	50                   	push   eax
     987:	e8 fc ff ff ff       	call   988 <hmac_sha256_uf+0x236>
     98c:	83 c4 10             	add    esp,0x10
     98f:	83 ec 04             	sub    esp,0x4
     992:	ff 75 f0             	push   DWORD PTR [ebp-0x10]
     995:	6a 00                	push   0x0
     997:	ff 75 ec             	push   DWORD PTR [ebp-0x14]
     99a:	e8 fc ff ff ff       	call   99b <hmac_sha256_uf+0x249>
     99f:	83 c4 10             	add    esp,0x10
     9a2:	83 ec 0c             	sub    esp,0xc
     9a5:	ff 75 ec             	push   DWORD PTR [ebp-0x14]
     9a8:	e8 fc ff ff ff       	call   9a9 <hmac_sha256_uf+0x257>
     9ad:	83 c4 10             	add    esp,0x10
     9b0:	90                   	nop
     9b1:	8b 5d fc             	mov    ebx,DWORD PTR [ebp-0x4]
     9b4:	c9                   	leave  
     9b5:	c3                   	ret    

000009b6 <control_sum_buffer>:
     9b6:	55                   	push   ebp
     9b7:	89 e5                	mov    ebp,esp
     9b9:	53                   	push   ebx
     9ba:	83 ec 14             	sub    esp,0x14
     9bd:	e8 fc ff ff ff       	call   9be <control_sum_buffer+0x8>
     9c2:	81 c3 02 00 00 00    	add    ebx,0x2
     9c8:	c7 45 f4 00 00 00 00 	mov    DWORD PTR [ebp-0xc],0x0
     9cf:	8b 45 0c             	mov    eax,DWORD PTR [ebp+0xc]
     9d2:	89 45 f0             	mov    DWORD PTR [ebp-0x10],eax
     9d5:	e9 8b 00 00 00       	jmp    a65 <control_sum_buffer+0xaf>
     9da:	81 7d f0 ff 03 00 00 	cmp    DWORD PTR [ebp-0x10],0x3ff
     9e1:	77 3a                	ja     a1d <control_sum_buffer+0x67>
     9e3:	8b 45 08             	mov    eax,DWORD PTR [ebp+0x8]
     9e6:	8b 80 44 00 00 01    	mov    eax,DWORD PTR [eax+0x1000044]
     9ec:	85 c0                	test   eax,eax
     9ee:	74 0a                	je     9fa <control_sum_buffer+0x44>
     9f0:	8b 45 08             	mov    eax,DWORD PTR [ebp+0x8]
     9f3:	05 28 00 80 00       	add    eax,0x800028
     9f8:	eb 06                	jmp    a00 <control_sum_buffer+0x4a>
     9fa:	8b 45 08             	mov    eax,DWORD PTR [ebp+0x8]
     9fd:	83 c0 28             	add    eax,0x28
     a00:	8b 55 f4             	mov    edx,DWORD PTR [ebp-0xc]
     a03:	01 c2                	add    edx,eax
     a05:	8b 45 08             	mov    eax,DWORD PTR [ebp+0x8]
     a08:	8b 40 10             	mov    eax,DWORD PTR [eax+0x10]
     a0b:	83 ec 04             	sub    esp,0x4
     a0e:	ff 75 f0             	push   DWORD PTR [ebp-0x10]
     a11:	52                   	push   edx
     a12:	50                   	push   eax
     a13:	e8 fc ff ff ff       	call   a14 <control_sum_buffer+0x5e>
     a18:	83 c4 10             	add    esp,0x10
     a1b:	eb 3a                	jmp    a57 <control_sum_buffer+0xa1>
     a1d:	8b 45 08             	mov    eax,DWORD PTR [ebp+0x8]
     a20:	8b 80 44 00 00 01    	mov    eax,DWORD PTR [eax+0x1000044]
     a26:	85 c0                	test   eax,eax
     a28:	74 0a                	je     a34 <control_sum_buffer+0x7e>
     a2a:	8b 45 08             	mov    eax,DWORD PTR [ebp+0x8]
     a2d:	05 28 00 80 00       	add    eax,0x800028
     a32:	eb 06                	jmp    a3a <control_sum_buffer+0x84>
     a34:	8b 45 08             	mov    eax,DWORD PTR [ebp+0x8]
     a37:	83 c0 28             	add    eax,0x28
     a3a:	8b 55 f4             	mov    edx,DWORD PTR [ebp-0xc]
     a3d:	01 c2                	add    edx,eax
     a3f:	8b 45 08             	mov    eax,DWORD PTR [ebp+0x8]
     a42:	8b 40 10             	mov    eax,DWORD PTR [eax+0x10]
     a45:	83 ec 04             	sub    esp,0x4
     a48:	68 00 04 00 00       	push   0x400
     a4d:	52                   	push   edx
     a4e:	50                   	push   eax
     a4f:	e8 fc ff ff ff       	call   a50 <control_sum_buffer+0x9a>
     a54:	83 c4 10             	add    esp,0x10
     a57:	81 45 f4 00 04 00 00 	add    DWORD PTR [ebp-0xc],0x400
     a5e:	81 6d f0 00 04 00 00 	sub    DWORD PTR [ebp-0x10],0x400
     a65:	8b 45 f4             	mov    eax,DWORD PTR [ebp-0xc]
     a68:	3b 45 0c             	cmp    eax,DWORD PTR [ebp+0xc]
     a6b:	0f 82 69 ff ff ff    	jb     9da <control_sum_buffer+0x24>
     a71:	90                   	nop
     a72:	90                   	nop
     a73:	8b 5d fc             	mov    ebx,DWORD PTR [ebp-0x4]
     a76:	c9                   	leave  
     a77:	c3                   	ret    

00000a78 <close_in_out_files>:
     a78:	55                   	push   ebp
     a79:	89 e5                	mov    ebp,esp
     a7b:	53                   	push   ebx
     a7c:	83 ec 04             	sub    esp,0x4
     a7f:	e8 fc ff ff ff       	call   a80 <close_in_out_files+0x8>
     a84:	81 c3 02 00 00 00    	add    ebx,0x2
     a8a:	83 ec 0c             	sub    esp,0xc
     a8d:	ff 75 08             	push   DWORD PTR [ebp+0x8]
     a90:	e8 fc ff ff ff       	call   a91 <close_in_out_files+0x19>
     a95:	83 c4 10             	add    esp,0x10
     a98:	83 f8 ff             	cmp    eax,0xffffffff
     a9b:	75 15                	jne    ab2 <close_in_out_files+0x3a>
     a9d:	83 ec 0c             	sub    esp,0xc
     aa0:	ff 75 0c             	push   DWORD PTR [ebp+0xc]
     aa3:	e8 fc ff ff ff       	call   aa4 <close_in_out_files+0x2c>
     aa8:	83 c4 10             	add    esp,0x10
     aab:	b8 06 00 00 00       	mov    eax,0x6
     ab0:	eb 1d                	jmp    acf <close_in_out_files+0x57>
     ab2:	83 ec 0c             	sub    esp,0xc
     ab5:	ff 75 0c             	push   DWORD PTR [ebp+0xc]
     ab8:	e8 fc ff ff ff       	call   ab9 <close_in_out_files+0x41>
     abd:	83 c4 10             	add    esp,0x10
     ac0:	83 f8 ff             	cmp    eax,0xffffffff
     ac3:	75 07                	jne    acc <close_in_out_files+0x54>
     ac5:	b8 07 00 00 00       	mov    eax,0x7
     aca:	eb 03                	jmp    acf <close_in_out_files+0x57>
     acc:	8b 45 10             	mov    eax,DWORD PTR [ebp+0x10]
     acf:	8b 5d fc             	mov    ebx,DWORD PTR [ebp-0x4]
     ad2:	c9                   	leave  
     ad3:	c3                   	ret    

00000ad4 <size_correct>:
     ad4:	55                   	push   ebp
     ad5:	89 e5                	mov    ebp,esp
     ad7:	53                   	push   ebx
     ad8:	83 ec 0c             	sub    esp,0xc
     adb:	e8 fc ff ff ff       	call   adc <size_correct+0x8>
     ae0:	81 c1 02 00 00 00    	add    ecx,0x2
     ae6:	8b 4d 0c             	mov    ecx,DWORD PTR [ebp+0xc]
     ae9:	89 4d f0             	mov    DWORD PTR [ebp-0x10],ecx
     aec:	8b 4d 10             	mov    ecx,DWORD PTR [ebp+0x10]
     aef:	89 4d f4             	mov    DWORD PTR [ebp-0xc],ecx
     af2:	8b 4d f0             	mov    ecx,DWORD PTR [ebp-0x10]
     af5:	80 f5 00             	xor    ch,0x0
     af8:	89 c8                	mov    eax,ecx
     afa:	8b 4d f4             	mov    ecx,DWORD PTR [ebp-0xc]
     afd:	80 f5 00             	xor    ch,0x0
     b00:	89 ca                	mov    edx,ecx
     b02:	09 d0                	or     eax,edx
     b04:	85 c0                	test   eax,eax
     b06:	75 07                	jne    b0f <size_correct+0x3b>
     b08:	b8 03 00 00 00       	mov    eax,0x3
     b0d:	eb 63                	jmp    b72 <size_correct+0x9e>
     b0f:	8b 45 08             	mov    eax,DWORD PTR [ebp+0x8]
     b12:	8b 80 44 00 00 01    	mov    eax,DWORD PTR [eax+0x1000044]
     b18:	85 c0                	test   eax,eax
     b1a:	75 32                	jne    b4e <size_correct+0x7a>
     b1c:	8b 45 f0             	mov    eax,DWORD PTR [ebp-0x10]
     b1f:	8b 55 f4             	mov    edx,DWORD PTR [ebp-0xc]
     b22:	83 c0 20             	add    eax,0x20
     b25:	83 d2 00             	adc    edx,0x0
     b28:	8b 4d 08             	mov    ecx,DWORD PTR [ebp+0x8]
     b2b:	8b 49 1c             	mov    ecx,DWORD PTR [ecx+0x1c]
     b2e:	bb 00 00 00 00       	mov    ebx,0x0
     b33:	01 c8                	add    eax,ecx
     b35:	11 da                	adc    edx,ebx
     b37:	bb 00 00 00 00       	mov    ebx,0x0
     b3c:	b9 00 00 00 00       	mov    ecx,0x0
     b41:	39 c3                	cmp    ebx,eax
     b43:	19 d1                	sbb    ecx,edx
     b45:	7c 26                	jl     b6d <size_correct+0x99>
     b47:	b8 03 00 00 00       	mov    eax,0x3
     b4c:	eb 24                	jmp    b72 <size_correct+0x9e>
     b4e:	8b 45 08             	mov    eax,DWORD PTR [ebp+0x8]
     b51:	8b 40 1c             	mov    eax,DWORD PTR [eax+0x1c]
     b54:	83 c0 21             	add    eax,0x21
     b57:	ba 00 00 00 00       	mov    edx,0x0
     b5c:	8b 4d f4             	mov    ecx,DWORD PTR [ebp-0xc]
     b5f:	39 45 f0             	cmp    DWORD PTR [ebp-0x10],eax
     b62:	19 d1                	sbb    ecx,edx
     b64:	7d 07                	jge    b6d <size_correct+0x99>
     b66:	b8 08 00 00 00       	mov    eax,0x8
     b6b:	eb 05                	jmp    b72 <size_correct+0x9e>
     b6d:	b8 00 00 00 00       	mov    eax,0x0
     b72:	8b 5d fc             	mov    ebx,DWORD PTR [ebp-0x4]
     b75:	c9                   	leave  
     b76:	c3                   	ret    

00000b77 <filecrypt>:
     b77:	55                   	push   ebp
     b78:	89 e5                	mov    ebp,esp
     b7a:	57                   	push   edi
     b7b:	56                   	push   esi
     b7c:	53                   	push   ebx
     b7d:	83 ec 7c             	sub    esp,0x7c
     b80:	e8 fc ff ff ff       	call   b81 <filecrypt+0xa>
     b85:	81 c3 02 00 00 00    	add    ebx,0x2
     b8b:	c7 45 cc 00 00 00 00 	mov    DWORD PTR [ebp-0x34],0x0
     b92:	c7 45 c8 00 00 00 00 	mov    DWORD PTR [ebp-0x38],0x0
     b99:	c7 45 c4 00 00 00 00 	mov    DWORD PTR [ebp-0x3c],0x0
     ba0:	c7 45 e0 00 00 00 00 	mov    DWORD PTR [ebp-0x20],0x0
     ba7:	c7 45 d8 00 00 00 00 	mov    DWORD PTR [ebp-0x28],0x0
     bae:	c7 45 d0 00 00 00 00 	mov    DWORD PTR [ebp-0x30],0x0
     bb5:	c7 45 d4 00 00 00 00 	mov    DWORD PTR [ebp-0x2c],0x0
     bbc:	8b 93 00 00 00 00    	mov    edx,DWORD PTR [ebx+0x0]
     bc2:	8b 45 08             	mov    eax,DWORD PTR [ebp+0x8]
     bc5:	8b 00                	mov    eax,DWORD PTR [eax]
     bc7:	83 ec 08             	sub    esp,0x8
     bca:	52                   	push   edx
     bcb:	50                   	push   eax
     bcc:	e8 fc ff ff ff       	call   bcd <filecrypt+0x56>
     bd1:	83 c4 10             	add    esp,0x10
     bd4:	89 45 cc             	mov    DWORD PTR [ebp-0x34],eax
     bd7:	83 7d cc 00          	cmp    DWORD PTR [ebp-0x34],0x0
     bdb:	75 0a                	jne    be7 <filecrypt+0x70>
     bdd:	b8 01 00 00 00       	mov    eax,0x1
     be2:	e9 9b 07 00 00       	jmp    1382 <.L90+0x365>
     be7:	83 ec 0c             	sub    esp,0xc
     bea:	ff 75 cc             	push   DWORD PTR [ebp-0x34]
     bed:	e8 a2 fa ff ff       	call   694 <size_of_file>
     bf2:	83 c4 10             	add    esp,0x10
     bf5:	89 45 b8             	mov    DWORD PTR [ebp-0x48],eax
     bf8:	89 55 bc             	mov    DWORD PTR [ebp-0x44],edx
     bfb:	83 ec 04             	sub    esp,0x4
     bfe:	ff 75 bc             	push   DWORD PTR [ebp-0x44]
     c01:	ff 75 b8             	push   DWORD PTR [ebp-0x48]
     c04:	ff 75 08             	push   DWORD PTR [ebp+0x8]
     c07:	e8 c8 fe ff ff       	call   ad4 <size_correct>
     c0c:	83 c4 10             	add    esp,0x10
     c0f:	89 45 b4             	mov    DWORD PTR [ebp-0x4c],eax
     c12:	83 7d b4 00          	cmp    DWORD PTR [ebp-0x4c],0x0
     c16:	74 25                	je     c3d <filecrypt+0xc6>
     c18:	83 ec 0c             	sub    esp,0xc
     c1b:	ff 75 cc             	push   DWORD PTR [ebp-0x34]
     c1e:	e8 fc ff ff ff       	call   c1f <filecrypt+0xa8>
     c23:	83 c4 10             	add    esp,0x10
     c26:	83 f8 ff             	cmp    eax,0xffffffff
     c29:	75 0a                	jne    c35 <filecrypt+0xbe>
     c2b:	b8 06 00 00 00       	mov    eax,0x6
     c30:	e9 4d 07 00 00       	jmp    1382 <.L90+0x365>
     c35:	8b 45 b4             	mov    eax,DWORD PTR [ebp-0x4c]
     c38:	e9 45 07 00 00       	jmp    1382 <.L90+0x365>
     c3d:	c7 45 b4 00 00 00 00 	mov    DWORD PTR [ebp-0x4c],0x0
     c44:	8b 93 00 00 00 00    	mov    edx,DWORD PTR [ebx+0x0]
     c4a:	8b 45 08             	mov    eax,DWORD PTR [ebp+0x8]
     c4d:	8b 40 04             	mov    eax,DWORD PTR [eax+0x4]
     c50:	83 ec 08             	sub    esp,0x8
     c53:	52                   	push   edx
     c54:	50                   	push   eax
     c55:	e8 fc ff ff ff       	call   c56 <filecrypt+0xdf>
     c5a:	83 c4 10             	add    esp,0x10
     c5d:	89 45 c8             	mov    DWORD PTR [ebp-0x38],eax
     c60:	83 7d c8 00          	cmp    DWORD PTR [ebp-0x38],0x0
     c64:	75 27                	jne    c8d <filecrypt+0x116>
     c66:	83 ec 0c             	sub    esp,0xc
     c69:	ff 75 cc             	push   DWORD PTR [ebp-0x34]
     c6c:	e8 fc ff ff ff       	call   c6d <filecrypt+0xf6>
     c71:	83 c4 10             	add    esp,0x10
     c74:	83 f8 ff             	cmp    eax,0xffffffff
     c77:	75 0a                	jne    c83 <filecrypt+0x10c>
     c79:	b8 06 00 00 00       	mov    eax,0x6
     c7e:	e9 ff 06 00 00       	jmp    1382 <.L90+0x365>
     c83:	b8 02 00 00 00       	mov    eax,0x2
     c88:	e9 f5 06 00 00       	jmp    1382 <.L90+0x365>
     c8d:	df 6d b8             	fild   QWORD PTR [ebp-0x48]
     c90:	dd 83 38 08 00 00    	fld    QWORD PTR [ebx+0x838]
     c96:	de f9                	fdivp  st(1),st
     c98:	dd 5d a8             	fstp   QWORD PTR [ebp-0x58]
     c9b:	83 ec 08             	sub    esp,0x8
     c9e:	ff 75 bc             	push   DWORD PTR [ebp-0x44]
     ca1:	ff 75 b8             	push   DWORD PTR [ebp-0x48]
     ca4:	e8 94 f4 ff ff       	call   13d <size_check>
     ca9:	83 c4 10             	add    esp,0x10
     cac:	89 45 b4             	mov    DWORD PTR [ebp-0x4c],eax
     caf:	df 6d b8             	fild   QWORD PTR [ebp-0x48]
     cb2:	83 ec 04             	sub    esp,0x4
     cb5:	8d 64 24 f8          	lea    esp,[esp-0x8]
     cb9:	dd 1c 24             	fstp   QWORD PTR [esp]
     cbc:	ff 75 b4             	push   DWORD PTR [ebp-0x4c]
     cbf:	e8 ce f5 ff ff       	call   292 <sizetodoubleprint>
     cc4:	83 c4 10             	add    esp,0x10
     cc7:	dd 5d a0             	fstp   QWORD PTR [ebp-0x60]
     cca:	8b 45 08             	mov    eax,DWORD PTR [ebp+0x8]
     ccd:	05 28 00 00 01       	add    eax,0x1000028
     cd2:	83 ec 04             	sub    esp,0x4
     cd5:	6a 19                	push   0x19
     cd7:	6a 2e                	push   0x2e
     cd9:	50                   	push   eax
     cda:	e8 fc ff ff ff       	call   cdb <filecrypt+0x164>
     cdf:	83 c4 10             	add    esp,0x10
     ce2:	8b 45 08             	mov    eax,DWORD PTR [ebp+0x8]
     ce5:	8b 40 10             	mov    eax,DWORD PTR [eax+0x10]
     ce8:	83 ec 0c             	sub    esp,0xc
     ceb:	50                   	push   eax
     cec:	e8 fc ff ff ff       	call   ced <filecrypt+0x176>
     cf1:	83 c4 10             	add    esp,0x10
     cf4:	e9 83 05 00 00       	jmp    127c <.L90+0x25f>
     cf9:	8b 45 d0             	mov    eax,DWORD PTR [ebp-0x30]
     cfc:	80 f4 00             	xor    ah,0x0
     cff:	89 45 88             	mov    DWORD PTR [ebp-0x78],eax
     d02:	8b 45 d4             	mov    eax,DWORD PTR [ebp-0x2c]
     d05:	80 f4 00             	xor    ah,0x0
     d08:	89 45 8c             	mov    DWORD PTR [ebp-0x74],eax
     d0b:	8b 75 88             	mov    esi,DWORD PTR [ebp-0x78]
     d0e:	8b 7d 8c             	mov    edi,DWORD PTR [ebp-0x74]
     d11:	89 f8                	mov    eax,edi
     d13:	09 f0                	or     eax,esi
     d15:	85 c0                	test   eax,eax
     d17:	0f 85 e4 01 00 00    	jne    f01 <.L80+0xf2>
     d1d:	8b 45 08             	mov    eax,DWORD PTR [ebp+0x8]
     d20:	8b 80 44 00 00 01    	mov    eax,DWORD PTR [eax+0x1000044]
     d26:	85 c0                	test   eax,eax
     d28:	0f 85 77 01 00 00    	jne    ea5 <.L80+0x96>
     d2e:	8b 45 08             	mov    eax,DWORD PTR [ebp+0x8]
     d31:	8b 80 48 00 00 01    	mov    eax,DWORD PTR [eax+0x1000048]
     d37:	83 f8 04             	cmp    eax,0x4
     d3a:	0f 87 f3 00 00 00    	ja     e33 <.L80+0x24>
     d40:	c1 e0 02             	shl    eax,0x2
     d43:	8b 84 18 68 01 00 00 	mov    eax,DWORD PTR [eax+ebx*1+0x168]
     d4a:	01 d8                	add    eax,ebx
     d4c:	ff e0                	jmp    eax

00000d4e <.L85>:
     d4e:	8b 45 08             	mov    eax,DWORD PTR [ebp+0x8]
     d51:	8d 88 28 00 80 00    	lea    ecx,[eax+0x800028]
     d57:	8b 45 08             	mov    eax,DWORD PTR [ebp+0x8]
     d5a:	8b 50 18             	mov    edx,DWORD PTR [eax+0x18]
     d5d:	8b 83 00 00 00 00    	mov    eax,DWORD PTR [ebx+0x0]
     d63:	83 ec 04             	sub    esp,0x4
     d66:	51                   	push   ecx
     d67:	52                   	push   edx
     d68:	50                   	push   eax
     d69:	e8 fc ff ff ff       	call   d6a <.L85+0x1c>
     d6e:	83 c4 10             	add    esp,0x10
     d71:	e9 bd 00 00 00       	jmp    e33 <.L80+0x24>

00000d76 <.L84>:
     d76:	8b 45 08             	mov    eax,DWORD PTR [ebp+0x8]
     d79:	8d 88 28 00 80 00    	lea    ecx,[eax+0x800028]
     d7f:	8b 45 08             	mov    eax,DWORD PTR [ebp+0x8]
     d82:	8b 50 18             	mov    edx,DWORD PTR [eax+0x18]
     d85:	8b 83 04 00 00 00    	mov    eax,DWORD PTR [ebx+0x4]
     d8b:	83 ec 04             	sub    esp,0x4
     d8e:	51                   	push   ecx
     d8f:	52                   	push   edx
     d90:	50                   	push   eax
     d91:	e8 fc ff ff ff       	call   d92 <.L84+0x1c>
     d96:	83 c4 10             	add    esp,0x10
     d99:	e9 95 00 00 00       	jmp    e33 <.L80+0x24>

00000d9e <.L83>:
     d9e:	8b 45 08             	mov    eax,DWORD PTR [ebp+0x8]
     da1:	8d 88 28 00 80 00    	lea    ecx,[eax+0x800028]
     da7:	8b 45 08             	mov    eax,DWORD PTR [ebp+0x8]
     daa:	8b 50 18             	mov    edx,DWORD PTR [eax+0x18]
     dad:	8b 83 08 00 00 00    	mov    eax,DWORD PTR [ebx+0x8]
     db3:	83 ec 04             	sub    esp,0x4
     db6:	51                   	push   ecx
     db7:	52                   	push   edx
     db8:	50                   	push   eax
     db9:	e8 fc ff ff ff       	call   dba <.L83+0x1c>
     dbe:	83 c4 10             	add    esp,0x10
     dc1:	eb 70                	jmp    e33 <.L80+0x24>

00000dc3 <.L82>:
     dc3:	8b 45 08             	mov    eax,DWORD PTR [ebp+0x8]
     dc6:	8b 48 1c             	mov    ecx,DWORD PTR [eax+0x1c]
     dc9:	8b 45 08             	mov    eax,DWORD PTR [ebp+0x8]
     dcc:	8b 50 18             	mov    edx,DWORD PTR [eax+0x18]
     dcf:	8b 45 08             	mov    eax,DWORD PTR [ebp+0x8]
     dd2:	05 28 00 80 00       	add    eax,0x800028
     dd7:	83 ec 04             	sub    esp,0x4
     dda:	51                   	push   ecx
     ddb:	52                   	push   edx
     ddc:	50                   	push   eax
     ddd:	e8 fc ff ff ff       	call   dde <.L82+0x1b>
     de2:	83 c4 10             	add    esp,0x10
     de5:	8b 45 08             	mov    eax,DWORD PTR [ebp+0x8]
     de8:	05 28 00 80 00       	add    eax,0x800028
     ded:	8d 48 04             	lea    ecx,[eax+0x4]
     df0:	8b 45 08             	mov    eax,DWORD PTR [ebp+0x8]
     df3:	8d 90 28 00 80 00    	lea    edx,[eax+0x800028]
     df9:	8b 83 0c 00 00 00    	mov    eax,DWORD PTR [ebx+0xc]
     dff:	83 ec 04             	sub    esp,0x4
     e02:	51                   	push   ecx
     e03:	52                   	push   edx
     e04:	50                   	push   eax
     e05:	e8 fc ff ff ff       	call   e06 <.L82+0x43>
     e0a:	83 c4 10             	add    esp,0x10
     e0d:	eb 24                	jmp    e33 <.L80+0x24>

00000e0f <.L80>:
     e0f:	8b 45 08             	mov    eax,DWORD PTR [ebp+0x8]
     e12:	8d 88 28 00 80 00    	lea    ecx,[eax+0x800028]
     e18:	8b 45 08             	mov    eax,DWORD PTR [ebp+0x8]
     e1b:	8b 50 18             	mov    edx,DWORD PTR [eax+0x18]
     e1e:	8b 83 10 00 00 00    	mov    eax,DWORD PTR [ebx+0x10]
     e24:	83 ec 04             	sub    esp,0x4
     e27:	51                   	push   ecx
     e28:	52                   	push   edx
     e29:	50                   	push   eax
     e2a:	e8 fc ff ff ff       	call   e2b <.L80+0x1c>
     e2f:	83 c4 10             	add    esp,0x10
     e32:	90                   	nop
     e33:	8b 45 08             	mov    eax,DWORD PTR [ebp+0x8]
     e36:	8b 50 1c             	mov    edx,DWORD PTR [eax+0x1c]
     e39:	8b 45 08             	mov    eax,DWORD PTR [ebp+0x8]
     e3c:	8d 88 28 00 80 00    	lea    ecx,[eax+0x800028]
     e42:	8b 45 08             	mov    eax,DWORD PTR [ebp+0x8]
     e45:	8b 40 18             	mov    eax,DWORD PTR [eax+0x18]
     e48:	83 ec 04             	sub    esp,0x4
     e4b:	52                   	push   edx
     e4c:	51                   	push   ecx
     e4d:	50                   	push   eax
     e4e:	e8 fc ff ff ff       	call   e4f <.L80+0x40>
     e53:	83 c4 10             	add    esp,0x10
     e56:	8b 45 08             	mov    eax,DWORD PTR [ebp+0x8]
     e59:	8b 50 1c             	mov    edx,DWORD PTR [eax+0x1c]
     e5c:	8b 45 08             	mov    eax,DWORD PTR [ebp+0x8]
     e5f:	8b 40 18             	mov    eax,DWORD PTR [eax+0x18]
     e62:	ff 75 c8             	push   DWORD PTR [ebp-0x38]
     e65:	52                   	push   edx
     e66:	6a 01                	push   0x1
     e68:	50                   	push   eax
     e69:	e8 fc ff ff ff       	call   e6a <.L80+0x5b>
     e6e:	83 c4 10             	add    esp,0x10
     e71:	89 c2                	mov    edx,eax
     e73:	8b 45 08             	mov    eax,DWORD PTR [ebp+0x8]
     e76:	8b 40 1c             	mov    eax,DWORD PTR [eax+0x1c]
     e79:	39 c2                	cmp    edx,eax
     e7b:	74 18                	je     e95 <.L80+0x86>
     e7d:	83 ec 04             	sub    esp,0x4
     e80:	6a 04                	push   0x4
     e82:	ff 75 c8             	push   DWORD PTR [ebp-0x38]
     e85:	ff 75 cc             	push   DWORD PTR [ebp-0x34]
     e88:	e8 eb fb ff ff       	call   a78 <close_in_out_files>
     e8d:	83 c4 10             	add    esp,0x10
     e90:	e9 ed 04 00 00       	jmp    1382 <.L90+0x365>
     e95:	83 ec 0c             	sub    esp,0xc
     e98:	ff 75 c8             	push   DWORD PTR [ebp-0x38]
     e9b:	e8 fc ff ff ff       	call   e9c <.L80+0x8d>
     ea0:	83 c4 10             	add    esp,0x10
     ea3:	eb 5c                	jmp    f01 <.L80+0xf2>
     ea5:	8b 45 08             	mov    eax,DWORD PTR [ebp+0x8]
     ea8:	8b 80 44 00 00 01    	mov    eax,DWORD PTR [eax+0x1000044]
     eae:	3d de 00 00 00       	cmp    eax,0xde
     eb3:	75 4c                	jne    f01 <.L80+0xf2>
     eb5:	8b 45 08             	mov    eax,DWORD PTR [ebp+0x8]
     eb8:	8b 50 1c             	mov    edx,DWORD PTR [eax+0x1c]
     ebb:	8b 45 08             	mov    eax,DWORD PTR [ebp+0x8]
     ebe:	8b 40 18             	mov    eax,DWORD PTR [eax+0x18]
     ec1:	ff 75 cc             	push   DWORD PTR [ebp-0x34]
     ec4:	52                   	push   edx
     ec5:	6a 01                	push   0x1
     ec7:	50                   	push   eax
     ec8:	e8 fc ff ff ff       	call   ec9 <.L80+0xba>
     ecd:	83 c4 10             	add    esp,0x10
     ed0:	89 c2                	mov    edx,eax
     ed2:	8b 45 08             	mov    eax,DWORD PTR [ebp+0x8]
     ed5:	8b 40 1c             	mov    eax,DWORD PTR [eax+0x1c]
     ed8:	39 c2                	cmp    edx,eax
     eda:	74 18                	je     ef4 <.L80+0xe5>
     edc:	83 ec 04             	sub    esp,0x4
     edf:	6a 05                	push   0x5
     ee1:	ff 75 c8             	push   DWORD PTR [ebp-0x38]
     ee4:	ff 75 cc             	push   DWORD PTR [ebp-0x34]
     ee7:	e8 8c fb ff ff       	call   a78 <close_in_out_files>
     eec:	83 c4 10             	add    esp,0x10
     eef:	e9 8e 04 00 00       	jmp    1382 <.L90+0x365>
     ef4:	8b 45 08             	mov    eax,DWORD PTR [ebp+0x8]
     ef7:	8b 40 1c             	mov    eax,DWORD PTR [eax+0x1c]
     efa:	99                   	cdq    
     efb:	01 45 d0             	add    DWORD PTR [ebp-0x30],eax
     efe:	11 55 d4             	adc    DWORD PTR [ebp-0x2c],edx
     f01:	8b 45 08             	mov    eax,DWORD PTR [ebp+0x8]
     f04:	83 c0 28             	add    eax,0x28
     f07:	ff 75 cc             	push   DWORD PTR [ebp-0x34]
     f0a:	68 00 00 80 00       	push   0x800000
     f0f:	6a 01                	push   0x1
     f11:	50                   	push   eax
     f12:	e8 fc ff ff ff       	call   f13 <.L80+0x104>
     f17:	83 c4 10             	add    esp,0x10
     f1a:	89 45 d8             	mov    DWORD PTR [ebp-0x28],eax
     f1d:	c7 45 dc 00 00 00 00 	mov    DWORD PTR [ebp-0x24],0x0
     f24:	e9 92 01 00 00       	jmp    10bb <.L90+0x9e>
     f29:	8b 45 08             	mov    eax,DWORD PTR [ebp+0x8]
     f2c:	8b 80 48 00 00 01    	mov    eax,DWORD PTR [eax+0x1000048]
     f32:	83 f8 04             	cmp    eax,0x4
     f35:	0f 87 0c 01 00 00    	ja     1047 <.L90+0x2a>
     f3b:	c1 e0 02             	shl    eax,0x2
     f3e:	8b 84 18 7c 01 00 00 	mov    eax,DWORD PTR [eax+ebx*1+0x17c]
     f45:	01 d8                	add    eax,ebx
     f47:	ff e0                	jmp    eax

00000f49 <.L95>:
     f49:	8b 45 08             	mov    eax,DWORD PTR [ebp+0x8]
     f4c:	8d 90 28 00 80 00    	lea    edx,[eax+0x800028]
     f52:	8b 45 dc             	mov    eax,DWORD PTR [ebp-0x24]
     f55:	8d 0c 02             	lea    ecx,[edx+eax*1]
     f58:	8b 45 08             	mov    eax,DWORD PTR [ebp+0x8]
     f5b:	8b 50 18             	mov    edx,DWORD PTR [eax+0x18]
     f5e:	8b 83 00 00 00 00    	mov    eax,DWORD PTR [ebx+0x0]
     f64:	83 ec 04             	sub    esp,0x4
     f67:	51                   	push   ecx
     f68:	52                   	push   edx
     f69:	50                   	push   eax
     f6a:	e8 fc ff ff ff       	call   f6b <.L95+0x22>
     f6f:	83 c4 10             	add    esp,0x10
     f72:	e9 d0 00 00 00       	jmp    1047 <.L90+0x2a>

00000f77 <.L94>:
     f77:	8b 45 08             	mov    eax,DWORD PTR [ebp+0x8]
     f7a:	8d 90 28 00 80 00    	lea    edx,[eax+0x800028]
     f80:	8b 45 dc             	mov    eax,DWORD PTR [ebp-0x24]
     f83:	8d 0c 02             	lea    ecx,[edx+eax*1]
     f86:	8b 45 08             	mov    eax,DWORD PTR [ebp+0x8]
     f89:	8b 50 18             	mov    edx,DWORD PTR [eax+0x18]
     f8c:	8b 83 04 00 00 00    	mov    eax,DWORD PTR [ebx+0x4]
     f92:	83 ec 04             	sub    esp,0x4
     f95:	51                   	push   ecx
     f96:	52                   	push   edx
     f97:	50                   	push   eax
     f98:	e8 fc ff ff ff       	call   f99 <.L94+0x22>
     f9d:	83 c4 10             	add    esp,0x10
     fa0:	e9 a2 00 00 00       	jmp    1047 <.L90+0x2a>

00000fa5 <.L93>:
     fa5:	8b 45 08             	mov    eax,DWORD PTR [ebp+0x8]
     fa8:	8d 90 28 00 80 00    	lea    edx,[eax+0x800028]
     fae:	8b 45 dc             	mov    eax,DWORD PTR [ebp-0x24]
     fb1:	8d 0c 02             	lea    ecx,[edx+eax*1]
     fb4:	8b 45 08             	mov    eax,DWORD PTR [ebp+0x8]
     fb7:	8b 50 18             	mov    edx,DWORD PTR [eax+0x18]
     fba:	8b 83 08 00 00 00    	mov    eax,DWORD PTR [ebx+0x8]
     fc0:	83 ec 04             	sub    esp,0x4
     fc3:	51                   	push   ecx
     fc4:	52                   	push   edx
     fc5:	50                   	push   eax
     fc6:	e8 fc ff ff ff       	call   fc7 <.L93+0x22>
     fcb:	83 c4 10             	add    esp,0x10
     fce:	eb 77                	jmp    1047 <.L90+0x2a>

00000fd0 <.L92>:
     fd0:	8b 45 08             	mov    eax,DWORD PTR [ebp+0x8]
     fd3:	8b 40 18             	mov    eax,DWORD PTR [eax+0x18]
     fd6:	8d 48 04             	lea    ecx,[eax+0x4]
     fd9:	8b 45 08             	mov    eax,DWORD PTR [ebp+0x8]
     fdc:	8b 50 18             	mov    edx,DWORD PTR [eax+0x18]
     fdf:	8b 83 0c 00 00 00    	mov    eax,DWORD PTR [ebx+0xc]
     fe5:	83 ec 04             	sub    esp,0x4
     fe8:	51                   	push   ecx
     fe9:	52                   	push   edx
     fea:	50                   	push   eax
     feb:	e8 fc ff ff ff       	call   fec <.L92+0x1c>
     ff0:	83 c4 10             	add    esp,0x10
     ff3:	8b 45 08             	mov    eax,DWORD PTR [ebp+0x8]
     ff6:	8b 70 1c             	mov    esi,DWORD PTR [eax+0x1c]
     ff9:	8b 45 08             	mov    eax,DWORD PTR [ebp+0x8]
     ffc:	8b 48 18             	mov    ecx,DWORD PTR [eax+0x18]
     fff:	8b 45 08             	mov    eax,DWORD PTR [ebp+0x8]
    1002:	8d 90 28 00 80 00    	lea    edx,[eax+0x800028]
    1008:	8b 45 dc             	mov    eax,DWORD PTR [ebp-0x24]
    100b:	01 d0                	add    eax,edx
    100d:	83 ec 04             	sub    esp,0x4
    1010:	56                   	push   esi
    1011:	51                   	push   ecx
    1012:	50                   	push   eax
    1013:	e8 fc ff ff ff       	call   1014 <.L92+0x44>
    1018:	83 c4 10             	add    esp,0x10
    101b:	eb 2a                	jmp    1047 <.L90+0x2a>

0000101d <.L90>:
    101d:	8b 45 08             	mov    eax,DWORD PTR [ebp+0x8]
    1020:	8d 90 28 00 80 00    	lea    edx,[eax+0x800028]
    1026:	8b 45 dc             	mov    eax,DWORD PTR [ebp-0x24]
    1029:	8d 0c 02             	lea    ecx,[edx+eax*1]
    102c:	8b 45 08             	mov    eax,DWORD PTR [ebp+0x8]
    102f:	8b 50 18             	mov    edx,DWORD PTR [eax+0x18]
    1032:	8b 83 10 00 00 00    	mov    eax,DWORD PTR [ebx+0x10]
    1038:	83 ec 04             	sub    esp,0x4
    103b:	51                   	push   ecx
    103c:	52                   	push   edx
    103d:	50                   	push   eax
    103e:	e8 fc ff ff ff       	call   103f <.L90+0x22>
    1043:	83 c4 10             	add    esp,0x10
    1046:	90                   	nop
    1047:	8b 45 08             	mov    eax,DWORD PTR [ebp+0x8]
    104a:	8b 70 1c             	mov    esi,DWORD PTR [eax+0x1c]
    104d:	8b 45 08             	mov    eax,DWORD PTR [ebp+0x8]
    1050:	8d 50 28             	lea    edx,[eax+0x28]
    1053:	8b 45 dc             	mov    eax,DWORD PTR [ebp-0x24]
    1056:	8d 0c 02             	lea    ecx,[edx+eax*1]
    1059:	8b 45 08             	mov    eax,DWORD PTR [ebp+0x8]
    105c:	8d 90 28 00 80 00    	lea    edx,[eax+0x800028]
    1062:	8b 45 dc             	mov    eax,DWORD PTR [ebp-0x24]
    1065:	01 d0                	add    eax,edx
    1067:	83 ec 04             	sub    esp,0x4
    106a:	56                   	push   esi
    106b:	51                   	push   ecx
    106c:	50                   	push   eax
    106d:	e8 fc ff ff ff       	call   106e <.L90+0x51>
    1072:	83 c4 10             	add    esp,0x10
    1075:	8b 45 08             	mov    eax,DWORD PTR [ebp+0x8]
    1078:	8b 48 1c             	mov    ecx,DWORD PTR [eax+0x1c]
    107b:	8b 45 08             	mov    eax,DWORD PTR [ebp+0x8]
    107e:	8b 80 44 00 00 01    	mov    eax,DWORD PTR [eax+0x1000044]
    1084:	85 c0                	test   eax,eax
    1086:	74 08                	je     1090 <.L90+0x73>
    1088:	8b 45 08             	mov    eax,DWORD PTR [ebp+0x8]
    108b:	8d 50 28             	lea    edx,[eax+0x28]
    108e:	eb 09                	jmp    1099 <.L90+0x7c>
    1090:	8b 45 08             	mov    eax,DWORD PTR [ebp+0x8]
    1093:	8d 90 28 00 80 00    	lea    edx,[eax+0x800028]
    1099:	8b 45 dc             	mov    eax,DWORD PTR [ebp-0x24]
    109c:	01 c2                	add    edx,eax
    109e:	8b 45 08             	mov    eax,DWORD PTR [ebp+0x8]
    10a1:	8b 40 18             	mov    eax,DWORD PTR [eax+0x18]
    10a4:	83 ec 04             	sub    esp,0x4
    10a7:	51                   	push   ecx
    10a8:	52                   	push   edx
    10a9:	50                   	push   eax
    10aa:	e8 fc ff ff ff       	call   10ab <.L90+0x8e>
    10af:	83 c4 10             	add    esp,0x10
    10b2:	8b 45 08             	mov    eax,DWORD PTR [ebp+0x8]
    10b5:	8b 40 1c             	mov    eax,DWORD PTR [eax+0x1c]
    10b8:	01 45 dc             	add    DWORD PTR [ebp-0x24],eax
    10bb:	8b 45 dc             	mov    eax,DWORD PTR [ebp-0x24]
    10be:	3b 45 d8             	cmp    eax,DWORD PTR [ebp-0x28]
    10c1:	0f 82 62 fe ff ff    	jb     f29 <.L80+0x11a>
    10c7:	8b 45 d8             	mov    eax,DWORD PTR [ebp-0x28]
    10ca:	ba 00 00 00 00       	mov    edx,0x0
    10cf:	01 45 d0             	add    DWORD PTR [ebp-0x30],eax
    10d2:	11 55 d4             	adc    DWORD PTR [ebp-0x2c],edx
    10d5:	df 6d d0             	fild   QWORD PTR [ebp-0x30]
    10d8:	dc 75 a8             	fdiv   QWORD PTR [ebp-0x58]
    10db:	dd 83 40 08 00 00    	fld    QWORD PTR [ebx+0x840]
    10e1:	de c1                	faddp  st(1),st
    10e3:	d9 7d 96             	fnstcw WORD PTR [ebp-0x6a]
    10e6:	0f b7 45 96          	movzx  eax,WORD PTR [ebp-0x6a]
    10ea:	80 cc 0c             	or     ah,0xc
    10ed:	66 89 45 94          	mov    WORD PTR [ebp-0x6c],ax
    10f1:	d9 6d 94             	fldcw  WORD PTR [ebp-0x6c]
    10f4:	db 5d e4             	fistp  DWORD PTR [ebp-0x1c]
    10f7:	d9 6d 96             	fldcw  WORD PTR [ebp-0x6a]
    10fa:	83 7d e4 64          	cmp    DWORD PTR [ebp-0x1c],0x64
    10fe:	7e 07                	jle    1107 <.L90+0xea>
    1100:	c7 45 e4 64 00 00 00 	mov    DWORD PTR [ebp-0x1c],0x64
    1107:	8b 45 d0             	mov    eax,DWORD PTR [ebp-0x30]
    110a:	8b 55 d4             	mov    edx,DWORD PTR [ebp-0x2c]
    110d:	89 c7                	mov    edi,eax
    110f:	33 7d b8             	xor    edi,DWORD PTR [ebp-0x48]
    1112:	89 7d 80             	mov    DWORD PTR [ebp-0x80],edi
    1115:	89 d0                	mov    eax,edx
    1117:	33 45 bc             	xor    eax,DWORD PTR [ebp-0x44]
    111a:	89 45 84             	mov    DWORD PTR [ebp-0x7c],eax
    111d:	8b 75 80             	mov    esi,DWORD PTR [ebp-0x80]
    1120:	8b 7d 84             	mov    edi,DWORD PTR [ebp-0x7c]
    1123:	89 f8                	mov    eax,edi
    1125:	09 f0                	or     eax,esi
    1127:	85 c0                	test   eax,eax
    1129:	75 14                	jne    113f <.L90+0x122>
    112b:	8b 45 08             	mov    eax,DWORD PTR [ebp+0x8]
    112e:	8b 80 44 00 00 01    	mov    eax,DWORD PTR [eax+0x1000044]
    1134:	3d de 00 00 00       	cmp    eax,0xde
    1139:	75 04                	jne    113f <.L90+0x122>
    113b:	83 6d d8 20          	sub    DWORD PTR [ebp-0x28],0x20
    113f:	83 ec 08             	sub    esp,0x8
    1142:	ff 75 d8             	push   DWORD PTR [ebp-0x28]
    1145:	ff 75 08             	push   DWORD PTR [ebp+0x8]
    1148:	e8 69 f8 ff ff       	call   9b6 <control_sum_buffer>
    114d:	83 c4 10             	add    esp,0x10
    1150:	8b 45 08             	mov    eax,DWORD PTR [ebp+0x8]
    1153:	05 28 00 80 00       	add    eax,0x800028
    1158:	ff 75 c8             	push   DWORD PTR [ebp-0x38]
    115b:	ff 75 d8             	push   DWORD PTR [ebp-0x28]
    115e:	6a 01                	push   0x1
    1160:	50                   	push   eax
    1161:	e8 fc ff ff ff       	call   1162 <.L90+0x145>
    1166:	83 c4 10             	add    esp,0x10
    1169:	39 45 d8             	cmp    DWORD PTR [ebp-0x28],eax
    116c:	74 18                	je     1186 <.L90+0x169>
    116e:	83 ec 04             	sub    esp,0x4
    1171:	6a 04                	push   0x4
    1173:	ff 75 c8             	push   DWORD PTR [ebp-0x38]
    1176:	ff 75 cc             	push   DWORD PTR [ebp-0x34]
    1179:	e8 fa f8 ff ff       	call   a78 <close_in_out_files>
    117e:	83 c4 10             	add    esp,0x10
    1181:	e9 fc 01 00 00       	jmp    1382 <.L90+0x365>
    1186:	83 ec 0c             	sub    esp,0xc
    1189:	ff 75 c8             	push   DWORD PTR [ebp-0x38]
    118c:	e8 fc ff ff ff       	call   118d <.L90+0x170>
    1191:	83 c4 10             	add    esp,0x10
    1194:	8b 45 e4             	mov    eax,DWORD PTR [ebp-0x1c]
    1197:	3b 45 e0             	cmp    eax,DWORD PTR [ebp-0x20]
    119a:	0f 8e dc 00 00 00    	jle    127c <.L90+0x25f>
    11a0:	8b 45 e4             	mov    eax,DWORD PTR [ebp-0x1c]
    11a3:	8d 50 03             	lea    edx,[eax+0x3]
    11a6:	85 c0                	test   eax,eax
    11a8:	0f 48 c2             	cmovs  eax,edx
    11ab:	c1 f8 02             	sar    eax,0x2
    11ae:	89 c2                	mov    edx,eax
    11b0:	8b 45 08             	mov    eax,DWORD PTR [ebp+0x8]
    11b3:	05 28 00 00 01       	add    eax,0x1000028
    11b8:	83 ec 04             	sub    esp,0x4
    11bb:	52                   	push   edx
    11bc:	6a 23                	push   0x23
    11be:	50                   	push   eax
    11bf:	e8 fc ff ff ff       	call   11c0 <.L90+0x1a3>
    11c4:	83 c4 10             	add    esp,0x10
    11c7:	83 ec 08             	sub    esp,0x8
    11ca:	ff 75 d4             	push   DWORD PTR [ebp-0x2c]
    11cd:	ff 75 d0             	push   DWORD PTR [ebp-0x30]
    11d0:	e8 68 ef ff ff       	call   13d <size_check>
    11d5:	83 c4 10             	add    esp,0x10
    11d8:	89 45 c4             	mov    DWORD PTR [ebp-0x3c],eax
    11db:	8b 45 b4             	mov    eax,DWORD PTR [ebp-0x4c]
    11de:	8b bc 83 0c 00 00 00 	mov    edi,DWORD PTR [ebx+eax*4+0xc]
    11e5:	8b 45 c4             	mov    eax,DWORD PTR [ebp-0x3c]
    11e8:	8b 84 83 0c 00 00 00 	mov    eax,DWORD PTR [ebx+eax*4+0xc]
    11ef:	89 45 90             	mov    DWORD PTR [ebp-0x70],eax
    11f2:	df 6d d0             	fild   QWORD PTR [ebp-0x30]
    11f5:	83 ec 04             	sub    esp,0x4
    11f8:	8d 64 24 f8          	lea    esp,[esp-0x8]
    11fc:	dd 1c 24             	fstp   QWORD PTR [esp]
    11ff:	ff 75 c4             	push   DWORD PTR [ebp-0x3c]
    1202:	e8 8b f0 ff ff       	call   292 <sizetodoubleprint>
    1207:	83 c4 10             	add    esp,0x10
    120a:	dd 9d 78 ff ff ff    	fstp   QWORD PTR [ebp-0x88]
    1210:	8b 45 08             	mov    eax,DWORD PTR [ebp+0x8]
    1213:	8d b0 28 00 00 01    	lea    esi,[eax+0x1000028]
    1219:	8b 45 08             	mov    eax,DWORD PTR [ebp+0x8]
    121c:	8b 80 44 00 00 01    	mov    eax,DWORD PTR [eax+0x1000044]
    1222:	83 ec 0c             	sub    esp,0xc
    1225:	50                   	push   eax
    1226:	e8 50 f4 ff ff       	call   67b <operation_variant>
    122b:	83 c4 10             	add    esp,0x10
    122e:	8b 84 83 28 00 00 00 	mov    eax,DWORD PTR [ebx+eax*4+0x28]
    1235:	83 ec 08             	sub    esp,0x8
    1238:	ff 75 e4             	push   DWORD PTR [ebp-0x1c]
    123b:	57                   	push   edi
    123c:	ff 75 a4             	push   DWORD PTR [ebp-0x5c]
    123f:	ff 75 a0             	push   DWORD PTR [ebp-0x60]
    1242:	ff 75 90             	push   DWORD PTR [ebp-0x70]
    1245:	ff b5 7c ff ff ff    	push   DWORD PTR [ebp-0x84]
    124b:	ff b5 78 ff ff ff    	push   DWORD PTR [ebp-0x88]
    1251:	56                   	push   esi
    1252:	50                   	push   eax
    1253:	8d 83 e0 00 00 00    	lea    eax,[ebx+0xe0]
    1259:	50                   	push   eax
    125a:	e8 fc ff ff ff       	call   125b <.L90+0x23e>
    125f:	83 c4 30             	add    esp,0x30
    1262:	8b 83 00 00 00 00    	mov    eax,DWORD PTR [ebx+0x0]
    1268:	8b 00                	mov    eax,DWORD PTR [eax]
    126a:	83 ec 0c             	sub    esp,0xc
    126d:	50                   	push   eax
    126e:	e8 fc ff ff ff       	call   126f <.L90+0x252>
    1273:	83 c4 10             	add    esp,0x10
    1276:	8b 45 e4             	mov    eax,DWORD PTR [ebp-0x1c]
    1279:	89 45 e0             	mov    DWORD PTR [ebp-0x20],eax
    127c:	8b 45 d0             	mov    eax,DWORD PTR [ebp-0x30]
    127f:	8b 55 d4             	mov    edx,DWORD PTR [ebp-0x2c]
    1282:	3b 45 b8             	cmp    eax,DWORD PTR [ebp-0x48]
    1285:	89 d0                	mov    eax,edx
    1287:	1b 45 bc             	sbb    eax,DWORD PTR [ebp-0x44]
    128a:	0f 8c 69 fa ff ff    	jl     cf9 <filecrypt+0x182>
    1290:	8b 83 00 00 00 00    	mov    eax,DWORD PTR [ebx+0x0]
    1296:	8b 00                	mov    eax,DWORD PTR [eax]
    1298:	83 ec 08             	sub    esp,0x8
    129b:	50                   	push   eax
    129c:	6a 0a                	push   0xa
    129e:	e8 fc ff ff ff       	call   129f <.L90+0x282>
    12a3:	83 c4 10             	add    esp,0x10
    12a6:	8b 45 08             	mov    eax,DWORD PTR [ebp+0x8]
    12a9:	8b 40 10             	mov    eax,DWORD PTR [eax+0x10]
    12ac:	83 ec 0c             	sub    esp,0xc
    12af:	50                   	push   eax
    12b0:	e8 fc ff ff ff       	call   12b1 <.L90+0x294>
    12b5:	83 c4 10             	add    esp,0x10
    12b8:	83 ec 0c             	sub    esp,0xc
    12bb:	ff 75 08             	push   DWORD PTR [ebp+0x8]
    12be:	e8 8f f4 ff ff       	call   752 <hmac_sha256_uf>
    12c3:	83 c4 10             	add    esp,0x10
    12c6:	8b 45 08             	mov    eax,DWORD PTR [ebp+0x8]
    12c9:	8b 80 44 00 00 01    	mov    eax,DWORD PTR [eax+0x1000044]
    12cf:	85 c0                	test   eax,eax
    12d1:	75 43                	jne    1316 <.L90+0x2f9>
    12d3:	8b 45 08             	mov    eax,DWORD PTR [ebp+0x8]
    12d6:	8b 40 10             	mov    eax,DWORD PTR [eax+0x10]
    12d9:	83 c0 6c             	add    eax,0x6c
    12dc:	ff 75 c8             	push   DWORD PTR [ebp-0x38]
    12df:	6a 20                	push   0x20
    12e1:	6a 01                	push   0x1
    12e3:	50                   	push   eax
    12e4:	e8 fc ff ff ff       	call   12e5 <.L90+0x2c8>
    12e9:	83 c4 10             	add    esp,0x10
    12ec:	83 f8 20             	cmp    eax,0x20
    12ef:	74 15                	je     1306 <.L90+0x2e9>
    12f1:	83 ec 04             	sub    esp,0x4
    12f4:	6a 04                	push   0x4
    12f6:	ff 75 c8             	push   DWORD PTR [ebp-0x38]
    12f9:	ff 75 cc             	push   DWORD PTR [ebp-0x34]
    12fc:	e8 77 f7 ff ff       	call   a78 <close_in_out_files>
    1301:	83 c4 10             	add    esp,0x10
    1304:	eb 7c                	jmp    1382 <.L90+0x365>
    1306:	83 ec 0c             	sub    esp,0xc
    1309:	ff 75 c8             	push   DWORD PTR [ebp-0x38]
    130c:	e8 fc ff ff ff       	call   130d <.L90+0x2f0>
    1311:	83 c4 10             	add    esp,0x10
    1314:	eb 59                	jmp    136f <.L90+0x352>
    1316:	8b 45 08             	mov    eax,DWORD PTR [ebp+0x8]
    1319:	8b 40 10             	mov    eax,DWORD PTR [eax+0x10]
    131c:	8d 50 6c             	lea    edx,[eax+0x6c]
    131f:	8b 45 08             	mov    eax,DWORD PTR [ebp+0x8]
    1322:	8d 48 28             	lea    ecx,[eax+0x28]
    1325:	8b 45 d8             	mov    eax,DWORD PTR [ebp-0x28]
    1328:	01 c8                	add    eax,ecx
    132a:	83 ec 04             	sub    esp,0x4
    132d:	6a 20                	push   0x20
    132f:	52                   	push   edx
    1330:	50                   	push   eax
    1331:	e8 fc ff ff ff       	call   1332 <.L90+0x315>
    1336:	83 c4 10             	add    esp,0x10
    1339:	85 c0                	test   eax,eax
    133b:	74 1a                	je     1357 <.L90+0x33a>
    133d:	8b 45 08             	mov    eax,DWORD PTR [ebp+0x8]
    1340:	8b 00                	mov    eax,DWORD PTR [eax]
    1342:	83 ec 08             	sub    esp,0x8
    1345:	50                   	push   eax
    1346:	8d 83 0c 01 00 00    	lea    eax,[ebx+0x10c]
    134c:	50                   	push   eax
    134d:	e8 fc ff ff ff       	call   134e <.L90+0x331>
    1352:	83 c4 10             	add    esp,0x10
    1355:	eb 18                	jmp    136f <.L90+0x352>
    1357:	8b 45 08             	mov    eax,DWORD PTR [ebp+0x8]
    135a:	8b 00                	mov    eax,DWORD PTR [eax]
    135c:	83 ec 08             	sub    esp,0x8
    135f:	50                   	push   eax
    1360:	8d 83 40 01 00 00    	lea    eax,[ebx+0x140]
    1366:	50                   	push   eax
    1367:	e8 fc ff ff ff       	call   1368 <.L90+0x34b>
    136c:	83 c4 10             	add    esp,0x10
    136f:	83 ec 04             	sub    esp,0x4
    1372:	6a 00                	push   0x0
    1374:	ff 75 c8             	push   DWORD PTR [ebp-0x38]
    1377:	ff 75 cc             	push   DWORD PTR [ebp-0x34]
    137a:	e8 f9 f6 ff ff       	call   a78 <close_in_out_files>
    137f:	83 c4 10             	add    esp,0x10
    1382:	8d 65 f4             	lea    esp,[ebp-0xc]
    1385:	5b                   	pop    ebx
    1386:	5e                   	pop    esi
    1387:	5f                   	pop    edi
    1388:	5d                   	pop    ebp
    1389:	c3                   	ret    

0000138a <random_vector_init>:
    138a:	55                   	push   ebp
    138b:	89 e5                	mov    ebp,esp
    138d:	56                   	push   esi
    138e:	53                   	push   ebx
    138f:	83 ec 20             	sub    esp,0x20
    1392:	e8 fc ff ff ff       	call   1393 <random_vector_init+0x9>
    1397:	81 c3 02 00 00 00    	add    ebx,0x2
    139d:	c7 45 f0 08 01 00 00 	mov    DWORD PTR [ebp-0x10],0x108
    13a4:	8b 45 0c             	mov    eax,DWORD PTR [ebp+0xc]
    13a7:	89 45 ec             	mov    DWORD PTR [ebp-0x14],eax
    13aa:	c7 45 e8 00 00 00 00 	mov    DWORD PTR [ebp-0x18],0x0
    13b1:	c7 45 e4 00 00 00 00 	mov    DWORD PTR [ebp-0x1c],0x0
    13b8:	83 ec 0c             	sub    esp,0xc
    13bb:	ff 75 ec             	push   DWORD PTR [ebp-0x14]
    13be:	e8 fc ff ff ff       	call   13bf <random_vector_init+0x35>
    13c3:	83 c4 10             	add    esp,0x10
    13c6:	89 45 e8             	mov    DWORD PTR [ebp-0x18],eax
    13c9:	83 ec 0c             	sub    esp,0xc
    13cc:	ff 75 f0             	push   DWORD PTR [ebp-0x10]
    13cf:	e8 fc ff ff ff       	call   13d0 <random_vector_init+0x46>
    13d4:	83 c4 10             	add    esp,0x10
    13d7:	89 45 e4             	mov    DWORD PTR [ebp-0x1c],eax
    13da:	83 7d e4 00          	cmp    DWORD PTR [ebp-0x1c],0x0
    13de:	74 06                	je     13e6 <random_vector_init+0x5c>
    13e0:	83 7d e8 00          	cmp    DWORD PTR [ebp-0x18],0x0
    13e4:	75 42                	jne    1428 <random_vector_init+0x9e>
    13e6:	83 ec 0c             	sub    esp,0xc
    13e9:	ff 75 e8             	push   DWORD PTR [ebp-0x18]
    13ec:	e8 fc ff ff ff       	call   13ed <random_vector_init+0x63>
    13f1:	83 c4 10             	add    esp,0x10
    13f4:	83 ec 0c             	sub    esp,0xc
    13f7:	ff 75 e4             	push   DWORD PTR [ebp-0x1c]
    13fa:	e8 fc ff ff ff       	call   13fb <random_vector_init+0x71>
    13ff:	83 c4 10             	add    esp,0x10
    1402:	8b 83 00 00 00 00    	mov    eax,DWORD PTR [ebx+0x0]
    1408:	8b 00                	mov    eax,DWORD PTR [eax]
    140a:	50                   	push   eax
    140b:	6a 1c                	push   0x1c
    140d:	6a 01                	push   0x1
    140f:	8d 83 c2 00 00 00    	lea    eax,[ebx+0xc2]
    1415:	50                   	push   eax
    1416:	e8 fc ff ff ff       	call   1417 <random_vector_init+0x8d>
    141b:	83 c4 10             	add    esp,0x10
    141e:	83 ec 0c             	sub    esp,0xc
    1421:	6a 01                	push   0x1
    1423:	e8 fc ff ff ff       	call   1424 <random_vector_init+0x9a>
    1428:	c7 45 f4 00 00 00 00 	mov    DWORD PTR [ebp-0xc],0x0
    142f:	eb 2f                	jmp    1460 <random_vector_init+0xd6>
    1431:	83 ec 08             	sub    esp,0x8
    1434:	68 ff 00 00 00       	push   0xff
    1439:	6a 00                	push   0x0
    143b:	e8 fc ff ff ff       	call   143c <random_vector_init+0xb2>
    1440:	83 c4 10             	add    esp,0x10
    1443:	89 c6                	mov    esi,eax
    1445:	8b 55 e8             	mov    edx,DWORD PTR [ebp-0x18]
    1448:	8b 45 f4             	mov    eax,DWORD PTR [ebp-0xc]
    144b:	01 d0                	add    eax,edx
    144d:	0f b6 10             	movzx  edx,BYTE PTR [eax]
    1450:	8b 4d e8             	mov    ecx,DWORD PTR [ebp-0x18]
    1453:	8b 45 f4             	mov    eax,DWORD PTR [ebp-0xc]
    1456:	01 c8                	add    eax,ecx
    1458:	31 f2                	xor    edx,esi
    145a:	88 10                	mov    BYTE PTR [eax],dl
    145c:	83 45 f4 01          	add    DWORD PTR [ebp-0xc],0x1
    1460:	8b 45 f4             	mov    eax,DWORD PTR [ebp-0xc]
    1463:	3b 45 ec             	cmp    eax,DWORD PTR [ebp-0x14]
    1466:	72 c9                	jb     1431 <random_vector_init+0xa7>
    1468:	83 ec 04             	sub    esp,0x4
    146b:	ff 75 0c             	push   DWORD PTR [ebp+0xc]
    146e:	ff 75 08             	push   DWORD PTR [ebp+0x8]
    1471:	ff 75 e4             	push   DWORD PTR [ebp-0x1c]
    1474:	e8 fc ff ff ff       	call   1475 <random_vector_init+0xeb>
    1479:	83 c4 10             	add    esp,0x10
    147c:	ff 75 0c             	push   DWORD PTR [ebp+0xc]
    147f:	ff 75 08             	push   DWORD PTR [ebp+0x8]
    1482:	ff 75 e8             	push   DWORD PTR [ebp-0x18]
    1485:	ff 75 e4             	push   DWORD PTR [ebp-0x1c]
    1488:	e8 fc ff ff ff       	call   1489 <random_vector_init+0xff>
    148d:	83 c4 10             	add    esp,0x10
    1490:	83 ec 04             	sub    esp,0x4
    1493:	ff 75 ec             	push   DWORD PTR [ebp-0x14]
    1496:	6a 00                	push   0x0
    1498:	ff 75 e8             	push   DWORD PTR [ebp-0x18]
    149b:	e8 fc ff ff ff       	call   149c <random_vector_init+0x112>
    14a0:	83 c4 10             	add    esp,0x10
    14a3:	83 ec 04             	sub    esp,0x4
    14a6:	ff 75 f0             	push   DWORD PTR [ebp-0x10]
    14a9:	6a 00                	push   0x0
    14ab:	ff 75 e4             	push   DWORD PTR [ebp-0x1c]
    14ae:	e8 fc ff ff ff       	call   14af <random_vector_init+0x125>
    14b3:	83 c4 10             	add    esp,0x10
    14b6:	83 ec 0c             	sub    esp,0xc
    14b9:	ff 75 e8             	push   DWORD PTR [ebp-0x18]
    14bc:	e8 fc ff ff ff       	call   14bd <random_vector_init+0x133>
    14c1:	83 c4 10             	add    esp,0x10
    14c4:	83 ec 0c             	sub    esp,0xc
    14c7:	ff 75 e4             	push   DWORD PTR [ebp-0x1c]
    14ca:	e8 fc ff ff ff       	call   14cb <random_vector_init+0x141>
    14cf:	83 c4 10             	add    esp,0x10
    14d2:	c7 45 e8 00 00 00 00 	mov    DWORD PTR [ebp-0x18],0x0
    14d9:	c7 45 e4 00 00 00 00 	mov    DWORD PTR [ebp-0x1c],0x0
    14e0:	c7 45 ec 00 00 00 00 	mov    DWORD PTR [ebp-0x14],0x0
    14e7:	c7 45 f0 00 00 00 00 	mov    DWORD PTR [ebp-0x10],0x0
    14ee:	90                   	nop
    14ef:	8d 65 f8             	lea    esp,[ebp-0x8]
    14f2:	5b                   	pop    ebx
    14f3:	5e                   	pop    esi
    14f4:	5d                   	pop    ebp
    14f5:	c3                   	ret    

000014f6 <vector_init>:
    14f6:	55                   	push   ebp
    14f7:	89 e5                	mov    ebp,esp
    14f9:	56                   	push   esi
    14fa:	53                   	push   ebx
    14fb:	83 ec 10             	sub    esp,0x10
    14fe:	e8 fc ff ff ff       	call   14ff <vector_init+0x9>
    1503:	81 c3 02 00 00 00    	add    ebx,0x2
    1509:	83 ec 08             	sub    esp,0x8
    150c:	8d 83 00 00 00 00    	lea    eax,[ebx+0x0]
    1512:	50                   	push   eax
    1513:	8d 83 90 01 00 00    	lea    eax,[ebx+0x190]
    1519:	50                   	push   eax
    151a:	e8 fc ff ff ff       	call   151b <vector_init+0x25>
    151f:	83 c4 10             	add    esp,0x10
    1522:	89 45 f0             	mov    DWORD PTR [ebp-0x10],eax
    1525:	83 7d f0 00          	cmp    DWORD PTR [ebp-0x10],0x0
    1529:	74 23                	je     154e <vector_init+0x58>
    152b:	ff 75 f0             	push   DWORD PTR [ebp-0x10]
    152e:	ff 75 0c             	push   DWORD PTR [ebp+0xc]
    1531:	6a 01                	push   0x1
    1533:	ff 75 08             	push   DWORD PTR [ebp+0x8]
    1536:	e8 fc ff ff ff       	call   1537 <vector_init+0x41>
    153b:	83 c4 10             	add    esp,0x10
    153e:	83 ec 0c             	sub    esp,0xc
    1541:	ff 75 f0             	push   DWORD PTR [ebp-0x10]
    1544:	e8 fc ff ff ff       	call   1545 <vector_init+0x4f>
    1549:	83 c4 10             	add    esp,0x10
    154c:	eb 1c                	jmp    156a <vector_init+0x74>
    154e:	8b 83 00 00 00 00    	mov    eax,DWORD PTR [ebx+0x0]
    1554:	8b 00                	mov    eax,DWORD PTR [eax]
    1556:	50                   	push   eax
    1557:	6a 27                	push   0x27
    1559:	6a 01                	push   0x1
    155b:	8d 83 a0 01 00 00    	lea    eax,[ebx+0x1a0]
    1561:	50                   	push   eax
    1562:	e8 fc ff ff ff       	call   1563 <vector_init+0x6d>
    1567:	83 c4 10             	add    esp,0x10
    156a:	c7 45 f4 00 00 00 00 	mov    DWORD PTR [ebp-0xc],0x0
    1571:	eb 3d                	jmp    15b0 <vector_init+0xba>
    1573:	8b 45 f4             	mov    eax,DWORD PTR [ebp-0xc]
    1576:	89 c6                	mov    esi,eax
    1578:	83 ec 08             	sub    esp,0x8
    157b:	68 ff 00 00 00       	push   0xff
    1580:	6a 00                	push   0x0
    1582:	e8 fc ff ff ff       	call   1583 <vector_init+0x8d>
    1587:	83 c4 10             	add    esp,0x10
    158a:	31 f0                	xor    eax,esi
    158c:	0f b6 d0             	movzx  edx,al
    158f:	8b 4d 08             	mov    ecx,DWORD PTR [ebp+0x8]
    1592:	8b 45 f4             	mov    eax,DWORD PTR [ebp-0xc]
    1595:	01 c8                	add    eax,ecx
    1597:	0f b6 00             	movzx  eax,BYTE PTR [eax]
    159a:	89 c1                	mov    ecx,eax
    159c:	89 d0                	mov    eax,edx
    159e:	31 c1                	xor    ecx,eax
    15a0:	8b 55 08             	mov    edx,DWORD PTR [ebp+0x8]
    15a3:	8b 45 f4             	mov    eax,DWORD PTR [ebp-0xc]
    15a6:	01 d0                	add    eax,edx
    15a8:	89 ca                	mov    edx,ecx
    15aa:	88 10                	mov    BYTE PTR [eax],dl
    15ac:	83 45 f4 01          	add    DWORD PTR [ebp-0xc],0x1
    15b0:	8b 45 f4             	mov    eax,DWORD PTR [ebp-0xc]
    15b3:	3b 45 0c             	cmp    eax,DWORD PTR [ebp+0xc]
    15b6:	72 bb                	jb     1573 <vector_init+0x7d>
    15b8:	83 ec 08             	sub    esp,0x8
    15bb:	ff 75 0c             	push   DWORD PTR [ebp+0xc]
    15be:	ff 75 08             	push   DWORD PTR [ebp+0x8]
    15c1:	e8 c4 fd ff ff       	call   138a <random_vector_init>
    15c6:	83 c4 10             	add    esp,0x10
    15c9:	90                   	nop
    15ca:	8d 65 f8             	lea    esp,[ebp-0x8]
    15cd:	5b                   	pop    ebx
    15ce:	5e                   	pop    esi
    15cf:	5d                   	pop    ebp
    15d0:	c3                   	ret    

000015d1 <cipher_init_memory>:
    15d1:	55                   	push   ebp
    15d2:	89 e5                	mov    ebp,esp
    15d4:	56                   	push   esi
    15d5:	53                   	push   ebx
    15d6:	83 ec 10             	sub    esp,0x10
    15d9:	e8 fc ff ff ff       	call   15da <cipher_init_memory+0x9>
    15de:	81 c3 02 00 00 00    	add    ebx,0x2
    15e4:	83 ec 08             	sub    esp,0x8
    15e7:	6a 01                	push   0x1
    15e9:	ff 75 0c             	push   DWORD PTR [ebp+0xc]
    15ec:	e8 fc ff ff ff       	call   15ed <cipher_init_memory+0x1c>
    15f1:	83 c4 10             	add    esp,0x10
    15f4:	89 45 f4             	mov    DWORD PTR [ebp-0xc],eax
    15f7:	83 7d f4 00          	cmp    DWORD PTR [ebp-0xc],0x0
    15fb:	75 0a                	jne    1607 <cipher_init_memory+0x36>
    15fd:	b8 00 00 00 00       	mov    eax,0x0
    1602:	e9 18 01 00 00       	jmp    171f <.L121+0x38>
    1607:	8b 45 08             	mov    eax,DWORD PTR [ebp+0x8]
    160a:	8b 80 48 00 00 01    	mov    eax,DWORD PTR [eax+0x1000048]
    1610:	83 f8 04             	cmp    eax,0x4
    1613:	0f 87 03 01 00 00    	ja     171c <.L121+0x35>
    1619:	c1 e0 02             	shl    eax,0x2
    161c:	8b 84 18 c8 01 00 00 	mov    eax,DWORD PTR [eax+ebx*1+0x1c8]
    1623:	01 d8                	add    eax,ebx
    1625:	ff e0                	jmp    eax

00001627 <.L126>:
    1627:	8b 45 f4             	mov    eax,DWORD PTR [ebp-0xc]
    162a:	89 83 00 00 00 00    	mov    DWORD PTR [ebx+0x0],eax
    1630:	8b 45 08             	mov    eax,DWORD PTR [ebp+0x8]
    1633:	8b 40 24             	mov    eax,DWORD PTR [eax+0x24]
    1636:	c1 e0 03             	shl    eax,0x3
    1639:	89 c1                	mov    ecx,eax
    163b:	8b 45 08             	mov    eax,DWORD PTR [ebp+0x8]
    163e:	8b 50 20             	mov    edx,DWORD PTR [eax+0x20]
    1641:	8b 83 00 00 00 00    	mov    eax,DWORD PTR [ebx+0x0]
    1647:	83 ec 04             	sub    esp,0x4
    164a:	51                   	push   ecx
    164b:	52                   	push   edx
    164c:	50                   	push   eax
    164d:	e8 fc ff ff ff       	call   164e <.L126+0x27>
    1652:	83 c4 10             	add    esp,0x10
    1655:	e9 c2 00 00 00       	jmp    171c <.L121+0x35>

0000165a <.L124>:
    165a:	8b 45 f4             	mov    eax,DWORD PTR [ebp-0xc]
    165d:	89 83 08 00 00 00    	mov    DWORD PTR [ebx+0x8],eax
    1663:	8b 45 08             	mov    eax,DWORD PTR [ebp+0x8]
    1666:	8b 40 24             	mov    eax,DWORD PTR [eax+0x24]
    1669:	89 c1                	mov    ecx,eax
    166b:	8b 45 08             	mov    eax,DWORD PTR [ebp+0x8]
    166e:	8b 50 20             	mov    edx,DWORD PTR [eax+0x20]
    1671:	8b 83 08 00 00 00    	mov    eax,DWORD PTR [ebx+0x8]
    1677:	83 ec 04             	sub    esp,0x4
    167a:	51                   	push   ecx
    167b:	52                   	push   edx
    167c:	50                   	push   eax
    167d:	e8 fc ff ff ff       	call   167e <.L124+0x24>
    1682:	83 c4 10             	add    esp,0x10
    1685:	e9 92 00 00 00       	jmp    171c <.L121+0x35>

0000168a <.L125>:
    168a:	8b 45 f4             	mov    eax,DWORD PTR [ebp-0xc]
    168d:	89 83 04 00 00 00    	mov    DWORD PTR [ebx+0x4],eax
    1693:	8b 45 08             	mov    eax,DWORD PTR [ebp+0x8]
    1696:	8b 50 20             	mov    edx,DWORD PTR [eax+0x20]
    1699:	8b 45 08             	mov    eax,DWORD PTR [ebp+0x8]
    169c:	8b 40 24             	mov    eax,DWORD PTR [eax+0x24]
    169f:	c1 e0 03             	shl    eax,0x3
    16a2:	89 c1                	mov    ecx,eax
    16a4:	8b 83 04 00 00 00    	mov    eax,DWORD PTR [ebx+0x4]
    16aa:	83 ec 04             	sub    esp,0x4
    16ad:	52                   	push   edx
    16ae:	51                   	push   ecx
    16af:	50                   	push   eax
    16b0:	e8 fc ff ff ff       	call   16b1 <.L125+0x27>
    16b5:	83 c4 10             	add    esp,0x10
    16b8:	eb 62                	jmp    171c <.L121+0x35>

000016ba <.L123>:
    16ba:	8b 45 f4             	mov    eax,DWORD PTR [ebp-0xc]
    16bd:	89 83 0c 00 00 00    	mov    DWORD PTR [ebx+0xc],eax
    16c3:	8b 45 08             	mov    eax,DWORD PTR [ebp+0x8]
    16c6:	8b 40 24             	mov    eax,DWORD PTR [eax+0x24]
    16c9:	89 c1                	mov    ecx,eax
    16cb:	8b 45 08             	mov    eax,DWORD PTR [ebp+0x8]
    16ce:	8b 50 20             	mov    edx,DWORD PTR [eax+0x20]
    16d1:	8b 83 0c 00 00 00    	mov    eax,DWORD PTR [ebx+0xc]
    16d7:	83 ec 04             	sub    esp,0x4
    16da:	51                   	push   ecx
    16db:	52                   	push   edx
    16dc:	50                   	push   eax
    16dd:	e8 fc ff ff ff       	call   16de <.L123+0x24>
    16e2:	83 c4 10             	add    esp,0x10
    16e5:	eb 35                	jmp    171c <.L121+0x35>

000016e7 <.L121>:
    16e7:	8b 45 f4             	mov    eax,DWORD PTR [ebp-0xc]
    16ea:	89 83 10 00 00 00    	mov    DWORD PTR [ebx+0x10],eax
    16f0:	8b 45 08             	mov    eax,DWORD PTR [ebp+0x8]
    16f3:	8b 48 20             	mov    ecx,DWORD PTR [eax+0x20]
    16f6:	8b 45 08             	mov    eax,DWORD PTR [ebp+0x8]
    16f9:	8b 50 20             	mov    edx,DWORD PTR [eax+0x20]
    16fc:	8b 45 08             	mov    eax,DWORD PTR [ebp+0x8]
    16ff:	8b 40 24             	mov    eax,DWORD PTR [eax+0x24]
    1702:	8d 34 c5 00 00 00 00 	lea    esi,[eax*8+0x0]
    1709:	8b 83 10 00 00 00    	mov    eax,DWORD PTR [ebx+0x10]
    170f:	51                   	push   ecx
    1710:	52                   	push   edx
    1711:	56                   	push   esi
    1712:	50                   	push   eax
    1713:	e8 fc ff ff ff       	call   1714 <.L121+0x2d>
    1718:	83 c4 10             	add    esp,0x10
    171b:	90                   	nop
    171c:	8b 45 f4             	mov    eax,DWORD PTR [ebp-0xc]
    171f:	8d 65 f8             	lea    esp,[ebp-0x8]
    1722:	5b                   	pop    ebx
    1723:	5e                   	pop    esi
    1724:	5d                   	pop    ebp
    1725:	c3                   	ret    

00001726 <PRINT_OPERATION_STATUS>:
    1726:	55                   	push   ebp
    1727:	89 e5                	mov    ebp,esp
    1729:	56                   	push   esi
    172a:	53                   	push   ebx
    172b:	e8 fc ff ff ff       	call   172c <PRINT_OPERATION_STATUS+0x6>
    1730:	81 c3 02 00 00 00    	add    ebx,0x2
    1736:	83 7d 0c 08          	cmp    DWORD PTR [ebp+0xc],0x8
    173a:	0f 87 7d 01 00 00    	ja     18bd <.L129+0x22>
    1740:	8b 45 0c             	mov    eax,DWORD PTR [ebp+0xc]
    1743:	c1 e0 02             	shl    eax,0x2
    1746:	8b 84 18 24 03 00 00 	mov    eax,DWORD PTR [eax+ebx*1+0x324]
    174d:	01 d8                	add    eax,ebx
    174f:	ff e0                	jmp    eax

00001751 <.L138>:
    1751:	8b 45 08             	mov    eax,DWORD PTR [ebp+0x8]
    1754:	8b 30                	mov    esi,DWORD PTR [eax]
    1756:	8b 45 08             	mov    eax,DWORD PTR [ebp+0x8]
    1759:	8b 80 44 00 00 01    	mov    eax,DWORD PTR [eax+0x1000044]
    175f:	50                   	push   eax
    1760:	e8 16 ef ff ff       	call   67b <operation_variant>
    1765:	83 c4 04             	add    esp,0x4
    1768:	8b 84 83 28 00 00 00 	mov    eax,DWORD PTR [ebx+eax*4+0x28]
    176f:	83 ec 04             	sub    esp,0x4
    1772:	56                   	push   esi
    1773:	50                   	push   eax
    1774:	8d 83 dc 01 00 00    	lea    eax,[ebx+0x1dc]
    177a:	50                   	push   eax
    177b:	e8 fc ff ff ff       	call   177c <.L138+0x2b>
    1780:	83 c4 10             	add    esp,0x10
    1783:	e9 35 01 00 00       	jmp    18bd <.L129+0x22>

00001788 <.L137>:
    1788:	8b 45 08             	mov    eax,DWORD PTR [ebp+0x8]
    178b:	8b 30                	mov    esi,DWORD PTR [eax]
    178d:	8b 45 08             	mov    eax,DWORD PTR [ebp+0x8]
    1790:	8b 80 44 00 00 01    	mov    eax,DWORD PTR [eax+0x1000044]
    1796:	83 ec 0c             	sub    esp,0xc
    1799:	50                   	push   eax
    179a:	e8 dc ee ff ff       	call   67b <operation_variant>
    179f:	83 c4 10             	add    esp,0x10
    17a2:	8b 94 83 28 00 00 00 	mov    edx,DWORD PTR [ebx+eax*4+0x28]
    17a9:	8b 83 00 00 00 00    	mov    eax,DWORD PTR [ebx+0x0]
    17af:	8b 00                	mov    eax,DWORD PTR [eax]
    17b1:	56                   	push   esi
    17b2:	52                   	push   edx
    17b3:	8d 93 f8 01 00 00    	lea    edx,[ebx+0x1f8]
    17b9:	52                   	push   edx
    17ba:	50                   	push   eax
    17bb:	e8 fc ff ff ff       	call   17bc <.L137+0x34>
    17c0:	83 c4 10             	add    esp,0x10
    17c3:	e9 f5 00 00 00       	jmp    18bd <.L129+0x22>

000017c8 <.L136>:
    17c8:	8b 45 08             	mov    eax,DWORD PTR [ebp+0x8]
    17cb:	8b 50 04             	mov    edx,DWORD PTR [eax+0x4]
    17ce:	8b 83 00 00 00 00    	mov    eax,DWORD PTR [ebx+0x0]
    17d4:	8b 00                	mov    eax,DWORD PTR [eax]
    17d6:	83 ec 04             	sub    esp,0x4
    17d9:	52                   	push   edx
    17da:	8d 93 1c 02 00 00    	lea    edx,[ebx+0x21c]
    17e0:	52                   	push   edx
    17e1:	50                   	push   eax
    17e2:	e8 fc ff ff ff       	call   17e3 <.L136+0x1b>
    17e7:	83 c4 10             	add    esp,0x10
    17ea:	e9 ce 00 00 00       	jmp    18bd <.L129+0x22>

000017ef <.L135>:
    17ef:	8b 45 08             	mov    eax,DWORD PTR [ebp+0x8]
    17f2:	8b 10                	mov    edx,DWORD PTR [eax]
    17f4:	8b 83 00 00 00 00    	mov    eax,DWORD PTR [ebx+0x0]
    17fa:	8b 00                	mov    eax,DWORD PTR [eax]
    17fc:	83 ec 04             	sub    esp,0x4
    17ff:	52                   	push   edx
    1800:	8d 93 40 02 00 00    	lea    edx,[ebx+0x240]
    1806:	52                   	push   edx
    1807:	50                   	push   eax
    1808:	e8 fc ff ff ff       	call   1809 <.L135+0x1a>
    180d:	83 c4 10             	add    esp,0x10
    1810:	e9 a8 00 00 00       	jmp    18bd <.L129+0x22>

00001815 <.L134>:
    1815:	8b 45 08             	mov    eax,DWORD PTR [ebp+0x8]
    1818:	8b 50 04             	mov    edx,DWORD PTR [eax+0x4]
    181b:	8b 83 00 00 00 00    	mov    eax,DWORD PTR [ebx+0x0]
    1821:	8b 00                	mov    eax,DWORD PTR [eax]
    1823:	83 ec 04             	sub    esp,0x4
    1826:	52                   	push   edx
    1827:	8d 93 70 02 00 00    	lea    edx,[ebx+0x270]
    182d:	52                   	push   edx
    182e:	50                   	push   eax
    182f:	e8 fc ff ff ff       	call   1830 <.L134+0x1b>
    1834:	83 c4 10             	add    esp,0x10
    1837:	e9 81 00 00 00       	jmp    18bd <.L129+0x22>

0000183c <.L133>:
    183c:	8b 45 08             	mov    eax,DWORD PTR [ebp+0x8]
    183f:	8b 10                	mov    edx,DWORD PTR [eax]
    1841:	8b 83 00 00 00 00    	mov    eax,DWORD PTR [ebx+0x0]
    1847:	8b 00                	mov    eax,DWORD PTR [eax]
    1849:	83 ec 04             	sub    esp,0x4
    184c:	52                   	push   edx
    184d:	8d 93 90 02 00 00    	lea    edx,[ebx+0x290]
    1853:	52                   	push   edx
    1854:	50                   	push   eax
    1855:	e8 fc ff ff ff       	call   1856 <.L133+0x1a>
    185a:	83 c4 10             	add    esp,0x10
    185d:	eb 5e                	jmp    18bd <.L129+0x22>

0000185f <.L132>:
    185f:	8b 83 00 00 00 00    	mov    eax,DWORD PTR [ebx+0x0]
    1865:	8b 00                	mov    eax,DWORD PTR [eax]
    1867:	50                   	push   eax
    1868:	6a 1e                	push   0x1e
    186a:	6a 01                	push   0x1
    186c:	8d 83 b4 02 00 00    	lea    eax,[ebx+0x2b4]
    1872:	50                   	push   eax
    1873:	e8 fc ff ff ff       	call   1874 <.L132+0x15>
    1878:	83 c4 10             	add    esp,0x10
    187b:	eb 40                	jmp    18bd <.L129+0x22>

0000187d <.L131>:
    187d:	8b 83 00 00 00 00    	mov    eax,DWORD PTR [ebx+0x0]
    1883:	8b 00                	mov    eax,DWORD PTR [eax]
    1885:	50                   	push   eax
    1886:	6a 1f                	push   0x1f
    1888:	6a 01                	push   0x1
    188a:	8d 83 d4 02 00 00    	lea    eax,[ebx+0x2d4]
    1890:	50                   	push   eax
    1891:	e8 fc ff ff ff       	call   1892 <.L131+0x15>
    1896:	83 c4 10             	add    esp,0x10
    1899:	eb 22                	jmp    18bd <.L129+0x22>

0000189b <.L129>:
    189b:	8b 45 08             	mov    eax,DWORD PTR [ebp+0x8]
    189e:	8b 10                	mov    edx,DWORD PTR [eax]
    18a0:	8b 83 00 00 00 00    	mov    eax,DWORD PTR [ebx+0x0]
    18a6:	8b 00                	mov    eax,DWORD PTR [eax]
    18a8:	83 ec 04             	sub    esp,0x4
    18ab:	52                   	push   edx
    18ac:	8d 93 f4 02 00 00    	lea    edx,[ebx+0x2f4]
    18b2:	52                   	push   edx
    18b3:	50                   	push   eax
    18b4:	e8 fc ff ff ff       	call   18b5 <.L129+0x1a>
    18b9:	83 c4 10             	add    esp,0x10
    18bc:	90                   	nop
    18bd:	90                   	nop
    18be:	8d 65 f8             	lea    esp,[ebp-0x8]
    18c1:	5b                   	pop    ebx
    18c2:	5e                   	pop    esi
    18c3:	5d                   	pop    ebp
    18c4:	c3                   	ret    

000018c5 <password_read>:
    18c5:	55                   	push   ebp
    18c6:	89 e5                	mov    ebp,esp
    18c8:	53                   	push   ebx
    18c9:	81 ec 84 00 00 00    	sub    esp,0x84
    18cf:	e8 fc ff ff ff       	call   18d0 <password_read+0xb>
    18d4:	81 c3 02 00 00 00    	add    ebx,0x2
    18da:	83 ec 08             	sub    esp,0x8
    18dd:	8d 45 b8             	lea    eax,[ebp-0x48]
    18e0:	50                   	push   eax
    18e1:	6a 00                	push   0x0
    18e3:	e8 fc ff ff ff       	call   18e4 <password_read+0x1f>
    18e8:	83 c4 10             	add    esp,0x10
    18eb:	8b 45 b8             	mov    eax,DWORD PTR [ebp-0x48]
    18ee:	89 85 7c ff ff ff    	mov    DWORD PTR [ebp-0x84],eax
    18f4:	8b 45 bc             	mov    eax,DWORD PTR [ebp-0x44]
    18f7:	89 45 80             	mov    DWORD PTR [ebp-0x80],eax
    18fa:	8b 45 c0             	mov    eax,DWORD PTR [ebp-0x40]
    18fd:	89 45 84             	mov    DWORD PTR [ebp-0x7c],eax
    1900:	8b 45 c4             	mov    eax,DWORD PTR [ebp-0x3c]
    1903:	89 45 88             	mov    DWORD PTR [ebp-0x78],eax
    1906:	8b 45 c8             	mov    eax,DWORD PTR [ebp-0x38]
    1909:	89 45 8c             	mov    DWORD PTR [ebp-0x74],eax
    190c:	8b 45 cc             	mov    eax,DWORD PTR [ebp-0x34]
    190f:	89 45 90             	mov    DWORD PTR [ebp-0x70],eax
    1912:	8b 45 d0             	mov    eax,DWORD PTR [ebp-0x30]
    1915:	89 45 94             	mov    DWORD PTR [ebp-0x6c],eax
    1918:	8b 45 d4             	mov    eax,DWORD PTR [ebp-0x2c]
    191b:	89 45 98             	mov    DWORD PTR [ebp-0x68],eax
    191e:	8b 45 d8             	mov    eax,DWORD PTR [ebp-0x28]
    1921:	89 45 9c             	mov    DWORD PTR [ebp-0x64],eax
    1924:	8b 45 dc             	mov    eax,DWORD PTR [ebp-0x24]
    1927:	89 45 a0             	mov    DWORD PTR [ebp-0x60],eax
    192a:	8b 45 e0             	mov    eax,DWORD PTR [ebp-0x20]
    192d:	89 45 a4             	mov    DWORD PTR [ebp-0x5c],eax
    1930:	8b 45 e4             	mov    eax,DWORD PTR [ebp-0x1c]
    1933:	89 45 a8             	mov    DWORD PTR [ebp-0x58],eax
    1936:	8b 45 e8             	mov    eax,DWORD PTR [ebp-0x18]
    1939:	89 45 ac             	mov    DWORD PTR [ebp-0x54],eax
    193c:	8b 45 ec             	mov    eax,DWORD PTR [ebp-0x14]
    193f:	89 45 b0             	mov    DWORD PTR [ebp-0x50],eax
    1942:	8b 45 f0             	mov    eax,DWORD PTR [ebp-0x10]
    1945:	89 45 b4             	mov    DWORD PTR [ebp-0x4c],eax
    1948:	8b 45 c4             	mov    eax,DWORD PTR [ebp-0x3c]
    194b:	83 e0 f7             	and    eax,0xfffffff7
    194e:	89 45 c4             	mov    DWORD PTR [ebp-0x3c],eax
    1951:	83 ec 04             	sub    esp,0x4
    1954:	8d 45 b8             	lea    eax,[ebp-0x48]
    1957:	50                   	push   eax
    1958:	6a 00                	push   0x0
    195a:	6a 00                	push   0x0
    195c:	e8 fc ff ff ff       	call   195d <password_read+0x98>
    1961:	83 c4 10             	add    esp,0x10
    1964:	8b 83 00 00 00 00    	mov    eax,DWORD PTR [ebx+0x0]
    196a:	8b 00                	mov    eax,DWORD PTR [eax]
    196c:	83 ec 0c             	sub    esp,0xc
    196f:	50                   	push   eax
    1970:	e8 fc ff ff ff       	call   1971 <password_read+0xac>
    1975:	83 c4 10             	add    esp,0x10
    1978:	8b 83 00 00 00 00    	mov    eax,DWORD PTR [ebx+0x0]
    197e:	8b 00                	mov    eax,DWORD PTR [eax]
    1980:	83 ec 0c             	sub    esp,0xc
    1983:	50                   	push   eax
    1984:	e8 fc ff ff ff       	call   1985 <password_read+0xc0>
    1989:	83 c4 10             	add    esp,0x10
    198c:	83 ec 0c             	sub    esp,0xc
    198f:	8d 83 48 03 00 00    	lea    eax,[ebx+0x348]
    1995:	50                   	push   eax
    1996:	e8 fc ff ff ff       	call   1997 <password_read+0xd2>
    199b:	83 c4 10             	add    esp,0x10
    199e:	8b 83 00 00 00 00    	mov    eax,DWORD PTR [ebx+0x0]
    19a4:	8b 10                	mov    edx,DWORD PTR [eax]
    19a6:	8b 45 08             	mov    eax,DWORD PTR [ebp+0x8]
    19a9:	8b 40 0c             	mov    eax,DWORD PTR [eax+0xc]
    19ac:	89 c1                	mov    ecx,eax
    19ae:	8b 45 08             	mov    eax,DWORD PTR [ebp+0x8]
    19b1:	8b 40 08             	mov    eax,DWORD PTR [eax+0x8]
    19b4:	83 ec 04             	sub    esp,0x4
    19b7:	52                   	push   edx
    19b8:	51                   	push   ecx
    19b9:	50                   	push   eax
    19ba:	e8 fc ff ff ff       	call   19bb <password_read+0xf6>
    19bf:	83 c4 10             	add    esp,0x10
    19c2:	85 c0                	test   eax,eax
    19c4:	75 23                	jne    19e9 <password_read+0x124>
    19c6:	8b 83 00 00 00 00    	mov    eax,DWORD PTR [ebx+0x0]
    19cc:	8b 00                	mov    eax,DWORD PTR [eax]
    19ce:	50                   	push   eax
    19cf:	6a 29                	push   0x29
    19d1:	6a 01                	push   0x1
    19d3:	8d 83 6c 03 00 00    	lea    eax,[ebx+0x36c]
    19d9:	50                   	push   eax
    19da:	e8 fc ff ff ff       	call   19db <password_read+0x116>
    19df:	83 c4 10             	add    esp,0x10
    19e2:	b8 03 00 00 00       	mov    eax,0x3
    19e7:	eb 6d                	jmp    1a56 <password_read+0x191>
    19e9:	c7 45 f4 00 00 00 00 	mov    DWORD PTR [ebp-0xc],0x0
    19f0:	eb 26                	jmp    1a18 <password_read+0x153>
    19f2:	8b 45 08             	mov    eax,DWORD PTR [ebp+0x8]
    19f5:	8b 50 08             	mov    edx,DWORD PTR [eax+0x8]
    19f8:	8b 45 f4             	mov    eax,DWORD PTR [ebp-0xc]
    19fb:	01 d0                	add    eax,edx
    19fd:	0f b6 00             	movzx  eax,BYTE PTR [eax]
    1a00:	3c 0a                	cmp    al,0xa
    1a02:	75 10                	jne    1a14 <password_read+0x14f>
    1a04:	8b 45 08             	mov    eax,DWORD PTR [ebp+0x8]
    1a07:	8b 50 08             	mov    edx,DWORD PTR [eax+0x8]
    1a0a:	8b 45 f4             	mov    eax,DWORD PTR [ebp-0xc]
    1a0d:	01 d0                	add    eax,edx
    1a0f:	c6 00 00             	mov    BYTE PTR [eax],0x0
    1a12:	eb 11                	jmp    1a25 <password_read+0x160>
    1a14:	83 45 f4 01          	add    DWORD PTR [ebp-0xc],0x1
    1a18:	8b 45 08             	mov    eax,DWORD PTR [ebp+0x8]
    1a1b:	8b 50 0c             	mov    edx,DWORD PTR [eax+0xc]
    1a1e:	8b 45 f4             	mov    eax,DWORD PTR [ebp-0xc]
    1a21:	39 c2                	cmp    edx,eax
    1a23:	77 cd                	ja     19f2 <password_read+0x12d>
    1a25:	83 ec 04             	sub    esp,0x4
    1a28:	8d 85 7c ff ff ff    	lea    eax,[ebp-0x84]
    1a2e:	50                   	push   eax
    1a2f:	6a 00                	push   0x0
    1a31:	6a 00                	push   0x0
    1a33:	e8 fc ff ff ff       	call   1a34 <password_read+0x16f>
    1a38:	83 c4 10             	add    esp,0x10
    1a3b:	8b 83 00 00 00 00    	mov    eax,DWORD PTR [ebx+0x0]
    1a41:	8b 00                	mov    eax,DWORD PTR [eax]
    1a43:	83 ec 08             	sub    esp,0x8
    1a46:	50                   	push   eax
    1a47:	6a 0a                	push   0xa
    1a49:	e8 fc ff ff ff       	call   1a4a <password_read+0x185>
    1a4e:	83 c4 10             	add    esp,0x10
    1a51:	b8 00 00 00 00       	mov    eax,0x0
    1a56:	8b 5d fc             	mov    ebx,DWORD PTR [ebp-0x4]
    1a59:	c9                   	leave  
    1a5a:	c3                   	ret    

00001a5b <INITIALIZED_GLOBAL_MEMORY>:
    1a5b:	55                   	push   ebp
    1a5c:	89 e5                	mov    ebp,esp
    1a5e:	56                   	push   esi
    1a5f:	53                   	push   ebx
    1a60:	e8 fc ff ff ff       	call   1a61 <INITIALIZED_GLOBAL_MEMORY+0x6>
    1a65:	81 c3 02 00 00 00    	add    ebx,0x2
    1a6b:	83 ec 0c             	sub    esp,0xc
    1a6e:	ff 75 0c             	push   DWORD PTR [ebp+0xc]
    1a71:	e8 fc ff ff ff       	call   1a72 <INITIALIZED_GLOBAL_MEMORY+0x17>
    1a76:	83 c4 10             	add    esp,0x10
    1a79:	89 c2                	mov    edx,eax
    1a7b:	8b 45 08             	mov    eax,DWORD PTR [ebp+0x8]
    1a7e:	89 10                	mov    DWORD PTR [eax],edx
    1a80:	8b 45 08             	mov    eax,DWORD PTR [ebp+0x8]
    1a83:	8b 00                	mov    eax,DWORD PTR [eax]
    1a85:	85 c0                	test   eax,eax
    1a87:	75 0a                	jne    1a93 <INITIALIZED_GLOBAL_MEMORY+0x38>
    1a89:	b8 01 00 00 00       	mov    eax,0x1
    1a8e:	e9 34 01 00 00       	jmp    1bc7 <INITIALIZED_GLOBAL_MEMORY+0x16c>
    1a93:	8b 45 08             	mov    eax,DWORD PTR [ebp+0x8]
    1a96:	8b 00                	mov    eax,DWORD PTR [eax]
    1a98:	83 ec 04             	sub    esp,0x4
    1a9b:	ff 75 0c             	push   DWORD PTR [ebp+0xc]
    1a9e:	6a 00                	push   0x0
    1aa0:	50                   	push   eax
    1aa1:	e8 fc ff ff ff       	call   1aa2 <INITIALIZED_GLOBAL_MEMORY+0x47>
    1aa6:	83 c4 10             	add    esp,0x10
    1aa9:	8b 45 08             	mov    eax,DWORD PTR [ebp+0x8]
    1aac:	8b 00                	mov    eax,DWORD PTR [eax]
    1aae:	c7 00 00 00 00 00    	mov    DWORD PTR [eax],0x0
    1ab4:	8b 45 08             	mov    eax,DWORD PTR [ebp+0x8]
    1ab7:	8b 00                	mov    eax,DWORD PTR [eax]
    1ab9:	c7 40 04 00 00 00 00 	mov    DWORD PTR [eax+0x4],0x0
    1ac0:	8b 45 08             	mov    eax,DWORD PTR [ebp+0x8]
    1ac3:	8b 00                	mov    eax,DWORD PTR [eax]
    1ac5:	c7 40 18 00 00 00 00 	mov    DWORD PTR [eax+0x18],0x0
    1acc:	8b 45 08             	mov    eax,DWORD PTR [ebp+0x8]
    1acf:	8b 00                	mov    eax,DWORD PTR [eax]
    1ad1:	c7 40 20 00 00 00 00 	mov    DWORD PTR [eax+0x20],0x0
    1ad8:	8b 45 08             	mov    eax,DWORD PTR [ebp+0x8]
    1adb:	8b 00                	mov    eax,DWORD PTR [eax]
    1add:	c7 80 44 00 00 01 00 	mov    DWORD PTR [eax+0x1000044],0x0
    1ae4:	00 00 00 
    1ae7:	8b 45 08             	mov    eax,DWORD PTR [ebp+0x8]
    1aea:	8b 00                	mov    eax,DWORD PTR [eax]
    1aec:	c7 80 48 00 00 01 00 	mov    DWORD PTR [eax+0x1000048],0x0
    1af3:	00 00 00 
    1af6:	8b 45 08             	mov    eax,DWORD PTR [ebp+0x8]
    1af9:	8b 00                	mov    eax,DWORD PTR [eax]
    1afb:	c7 40 1c 00 00 00 00 	mov    DWORD PTR [eax+0x1c],0x0
    1b02:	8b 45 08             	mov    eax,DWORD PTR [ebp+0x8]
    1b05:	8b 00                	mov    eax,DWORD PTR [eax]
    1b07:	c7 40 24 00 00 00 00 	mov    DWORD PTR [eax+0x24],0x0
    1b0e:	8b 45 08             	mov    eax,DWORD PTR [ebp+0x8]
    1b11:	8b 00                	mov    eax,DWORD PTR [eax]
    1b13:	c7 40 0c 00 08 00 00 	mov    DWORD PTR [eax+0xc],0x800
    1b1a:	8b 45 08             	mov    eax,DWORD PTR [ebp+0x8]
    1b1d:	8b 00                	mov    eax,DWORD PTR [eax]
    1b1f:	c7 40 14 8c 00 00 00 	mov    DWORD PTR [eax+0x14],0x8c
    1b26:	8b 45 08             	mov    eax,DWORD PTR [ebp+0x8]
    1b29:	8b 00                	mov    eax,DWORD PTR [eax]
    1b2b:	8b 40 0c             	mov    eax,DWORD PTR [eax+0xc]
    1b2e:	8b 55 08             	mov    edx,DWORD PTR [ebp+0x8]
    1b31:	8b 32                	mov    esi,DWORD PTR [edx]
    1b33:	83 ec 0c             	sub    esp,0xc
    1b36:	50                   	push   eax
    1b37:	e8 fc ff ff ff       	call   1b38 <INITIALIZED_GLOBAL_MEMORY+0xdd>
    1b3c:	83 c4 10             	add    esp,0x10
    1b3f:	89 46 08             	mov    DWORD PTR [esi+0x8],eax
    1b42:	8b 45 08             	mov    eax,DWORD PTR [ebp+0x8]
    1b45:	8b 00                	mov    eax,DWORD PTR [eax]
    1b47:	8b 40 08             	mov    eax,DWORD PTR [eax+0x8]
    1b4a:	85 c0                	test   eax,eax
    1b4c:	75 07                	jne    1b55 <INITIALIZED_GLOBAL_MEMORY+0xfa>
    1b4e:	b8 02 00 00 00       	mov    eax,0x2
    1b53:	eb 72                	jmp    1bc7 <INITIALIZED_GLOBAL_MEMORY+0x16c>
    1b55:	8b 45 08             	mov    eax,DWORD PTR [ebp+0x8]
    1b58:	8b 00                	mov    eax,DWORD PTR [eax]
    1b5a:	8b 40 14             	mov    eax,DWORD PTR [eax+0x14]
    1b5d:	8b 55 08             	mov    edx,DWORD PTR [ebp+0x8]
    1b60:	8b 32                	mov    esi,DWORD PTR [edx]
    1b62:	83 ec 0c             	sub    esp,0xc
    1b65:	50                   	push   eax
    1b66:	e8 fc ff ff ff       	call   1b67 <INITIALIZED_GLOBAL_MEMORY+0x10c>
    1b6b:	83 c4 10             	add    esp,0x10
    1b6e:	89 46 10             	mov    DWORD PTR [esi+0x10],eax
    1b71:	8b 45 08             	mov    eax,DWORD PTR [ebp+0x8]
    1b74:	8b 00                	mov    eax,DWORD PTR [eax]
    1b76:	8b 40 10             	mov    eax,DWORD PTR [eax+0x10]
    1b79:	85 c0                	test   eax,eax
    1b7b:	75 07                	jne    1b84 <INITIALIZED_GLOBAL_MEMORY+0x129>
    1b7d:	b8 03 00 00 00       	mov    eax,0x3
    1b82:	eb 43                	jmp    1bc7 <INITIALIZED_GLOBAL_MEMORY+0x16c>
    1b84:	8b 45 08             	mov    eax,DWORD PTR [ebp+0x8]
    1b87:	8b 00                	mov    eax,DWORD PTR [eax]
    1b89:	8b 50 0c             	mov    edx,DWORD PTR [eax+0xc]
    1b8c:	8b 45 08             	mov    eax,DWORD PTR [ebp+0x8]
    1b8f:	8b 00                	mov    eax,DWORD PTR [eax]
    1b91:	8b 40 08             	mov    eax,DWORD PTR [eax+0x8]
    1b94:	83 ec 04             	sub    esp,0x4
    1b97:	52                   	push   edx
    1b98:	6a 00                	push   0x0
    1b9a:	50                   	push   eax
    1b9b:	e8 fc ff ff ff       	call   1b9c <INITIALIZED_GLOBAL_MEMORY+0x141>
    1ba0:	83 c4 10             	add    esp,0x10
    1ba3:	8b 45 08             	mov    eax,DWORD PTR [ebp+0x8]
    1ba6:	8b 00                	mov    eax,DWORD PTR [eax]
    1ba8:	8b 50 14             	mov    edx,DWORD PTR [eax+0x14]
    1bab:	8b 45 08             	mov    eax,DWORD PTR [ebp+0x8]
    1bae:	8b 00                	mov    eax,DWORD PTR [eax]
    1bb0:	8b 40 10             	mov    eax,DWORD PTR [eax+0x10]
    1bb3:	83 ec 04             	sub    esp,0x4
    1bb6:	52                   	push   edx
    1bb7:	6a 00                	push   0x0
    1bb9:	50                   	push   eax
    1bba:	e8 fc ff ff ff       	call   1bbb <INITIALIZED_GLOBAL_MEMORY+0x160>
    1bbf:	83 c4 10             	add    esp,0x10
    1bc2:	b8 00 00 00 00       	mov    eax,0x0
    1bc7:	8d 65 f8             	lea    esp,[ebp-0x8]
    1bca:	5b                   	pop    ebx
    1bcb:	5e                   	pop    esi
    1bcc:	5d                   	pop    ebp
    1bcd:	c3                   	ret    

00001bce <main>:
    1bce:	8d 4c 24 04          	lea    ecx,[esp+0x4]
    1bd2:	83 e4 f0             	and    esp,0xfffffff0
    1bd5:	ff 71 fc             	push   DWORD PTR [ecx-0x4]
    1bd8:	55                   	push   ebp
    1bd9:	89 e5                	mov    ebp,esp
    1bdb:	57                   	push   edi
    1bdc:	56                   	push   esi
    1bdd:	53                   	push   ebx
    1bde:	51                   	push   ecx
    1bdf:	83 ec 28             	sub    esp,0x28
    1be2:	e8 fc ff ff ff       	call   1be3 <main+0x15>
    1be7:	81 c3 02 00 00 00    	add    ebx,0x2
    1bed:	89 ce                	mov    esi,ecx
    1bef:	c7 45 e0 00 00 00 00 	mov    DWORD PTR [ebp-0x20],0x0
    1bf6:	83 ec 0c             	sub    esp,0xc
    1bf9:	6a 00                	push   0x0
    1bfb:	e8 fc ff ff ff       	call   1bfc <main+0x2e>
    1c00:	83 c4 10             	add    esp,0x10
    1c03:	89 c2                	mov    edx,eax
    1c05:	8b 45 dc             	mov    eax,DWORD PTR [ebp-0x24]
    1c08:	01 d0                	add    eax,edx
    1c0a:	83 ec 0c             	sub    esp,0xc
    1c0d:	50                   	push   eax
    1c0e:	e8 fc ff ff ff       	call   1c0f <main+0x41>
    1c13:	83 c4 10             	add    esp,0x10
    1c16:	83 ec 0c             	sub    esp,0xc
    1c19:	6a 00                	push   0x0
    1c1b:	e8 fc ff ff ff       	call   1c1c <main+0x4e>
    1c20:	83 c4 10             	add    esp,0x10
    1c23:	85 c0                	test   eax,eax
    1c25:	75 26                	jne    1c4d <main+0x7f>
    1c27:	8b 83 00 00 00 00    	mov    eax,DWORD PTR [ebx+0x0]
    1c2d:	8b 00                	mov    eax,DWORD PTR [eax]
    1c2f:	50                   	push   eax
    1c30:	6a 12                	push   0x12
    1c32:	6a 01                	push   0x1
    1c34:	8d 83 96 03 00 00    	lea    eax,[ebx+0x396]
    1c3a:	50                   	push   eax
    1c3b:	e8 fc ff ff ff       	call   1c3c <main+0x6e>
    1c40:	83 c4 10             	add    esp,0x10
    1c43:	b8 01 00 00 00       	mov    eax,0x1
    1c48:	e9 59 0d 00 00       	jmp    29a6 <.L214+0x1d2>
    1c4d:	c7 45 d8 4c 00 00 01 	mov    DWORD PTR [ebp-0x28],0x100004c
    1c54:	83 ec 08             	sub    esp,0x8
    1c57:	ff 75 d8             	push   DWORD PTR [ebp-0x28]
    1c5a:	8d 45 c8             	lea    eax,[ebp-0x38]
    1c5d:	50                   	push   eax
    1c5e:	e8 fc ff ff ff       	call   1c5f <main+0x91>
    1c63:	83 c4 10             	add    esp,0x10
    1c66:	89 45 d4             	mov    DWORD PTR [ebp-0x2c],eax
    1c69:	83 7d d4 00          	cmp    DWORD PTR [ebp-0x2c],0x0
    1c6d:	74 36                	je     1ca5 <main+0xd7>
    1c6f:	8b 45 c8             	mov    eax,DWORD PTR [ebp-0x38]
    1c72:	83 ec 08             	sub    esp,0x8
    1c75:	ff 75 d8             	push   DWORD PTR [ebp-0x28]
    1c78:	50                   	push   eax
    1c79:	e8 82 e3 ff ff       	call   0 <free_global_memory>
    1c7e:	83 c4 10             	add    esp,0x10
    1c81:	8b 83 00 00 00 00    	mov    eax,DWORD PTR [ebx+0x0]
    1c87:	8b 00                	mov    eax,DWORD PTR [eax]
    1c89:	50                   	push   eax
    1c8a:	6a 1c                	push   0x1c
    1c8c:	6a 01                	push   0x1
    1c8e:	8d 83 c2 00 00 00    	lea    eax,[ebx+0xc2]
    1c94:	50                   	push   eax
    1c95:	e8 fc ff ff ff       	call   1c96 <main+0xc8>
    1c9a:	83 c4 10             	add    esp,0x10
    1c9d:	8b 45 d4             	mov    eax,DWORD PTR [ebp-0x2c]
    1ca0:	e9 01 0d 00 00       	jmp    29a6 <.L214+0x1d2>
    1ca5:	83 3e 01             	cmp    DWORD PTR [esi],0x1
    1ca8:	7e 71                	jle    1d1b <main+0x14d>
    1caa:	83 3e 06             	cmp    DWORD PTR [esi],0x6
    1cad:	7f 6c                	jg     1d1b <main+0x14d>
    1caf:	c7 45 e4 01 00 00 00 	mov    DWORD PTR [ebp-0x1c],0x1
    1cb6:	eb 57                	jmp    1d0f <main+0x141>
    1cb8:	8b 45 e4             	mov    eax,DWORD PTR [ebp-0x1c]
    1cbb:	8d 14 85 00 00 00 00 	lea    edx,[eax*4+0x0]
    1cc2:	8b 46 04             	mov    eax,DWORD PTR [esi+0x4]
    1cc5:	01 d0                	add    eax,edx
    1cc7:	8b 00                	mov    eax,DWORD PTR [eax]
    1cc9:	83 ec 08             	sub    esp,0x8
    1ccc:	68 00 08 00 00       	push   0x800
    1cd1:	50                   	push   eax
    1cd2:	e8 fc ff ff ff       	call   1cd3 <main+0x105>
    1cd7:	83 c4 10             	add    esp,0x10
    1cda:	3d 00 08 00 00       	cmp    eax,0x800
    1cdf:	75 2a                	jne    1d0b <main+0x13d>
    1ce1:	8b 83 00 00 00 00    	mov    eax,DWORD PTR [ebx+0x0]
    1ce7:	8b 00                	mov    eax,DWORD PTR [eax]
    1ce9:	68 00 08 00 00       	push   0x800
    1cee:	ff 75 e4             	push   DWORD PTR [ebp-0x1c]
    1cf1:	8d 93 ac 03 00 00    	lea    edx,[ebx+0x3ac]
    1cf7:	52                   	push   edx
    1cf8:	50                   	push   eax
    1cf9:	e8 fc ff ff ff       	call   1cfa <main+0x12c>
    1cfe:	83 c4 10             	add    esp,0x10
    1d01:	b8 01 00 00 00       	mov    eax,0x1
    1d06:	e9 9b 0c 00 00       	jmp    29a6 <.L214+0x1d2>
    1d0b:	83 45 e4 01          	add    DWORD PTR [ebp-0x1c],0x1
    1d0f:	8b 06                	mov    eax,DWORD PTR [esi]
    1d11:	83 e8 01             	sub    eax,0x1
    1d14:	39 45 e4             	cmp    DWORD PTR [ebp-0x1c],eax
    1d17:	7c 9f                	jl     1cb8 <main+0xea>
    1d19:	eb 31                	jmp    1d4c <main+0x17e>
    1d1b:	83 3e 01             	cmp    DWORD PTR [esi],0x1
    1d1e:	74 05                	je     1d25 <main+0x157>
    1d20:	83 3e 06             	cmp    DWORD PTR [esi],0x6
    1d23:	7e 27                	jle    1d4c <main+0x17e>
    1d25:	8b 83 00 00 00 00    	mov    eax,DWORD PTR [ebx+0x0]
    1d2b:	8b 00                	mov    eax,DWORD PTR [eax]
    1d2d:	83 ec 04             	sub    esp,0x4
    1d30:	ff 36                	push   DWORD PTR [esi]
    1d32:	8d 93 dc 03 00 00    	lea    edx,[ebx+0x3dc]
    1d38:	52                   	push   edx
    1d39:	50                   	push   eax
    1d3a:	e8 fc ff ff ff       	call   1d3b <main+0x16d>
    1d3f:	83 c4 10             	add    esp,0x10
    1d42:	b8 00 00 00 00       	mov    eax,0x0
    1d47:	e9 5a 0c 00 00       	jmp    29a6 <.L214+0x1d2>
    1d4c:	83 3e 02             	cmp    DWORD PTR [esi],0x2
    1d4f:	0f 85 e8 00 00 00    	jne    1e3d <main+0x26f>
    1d55:	8b 46 04             	mov    eax,DWORD PTR [esi+0x4]
    1d58:	83 c0 04             	add    eax,0x4
    1d5b:	8b 00                	mov    eax,DWORD PTR [eax]
    1d5d:	83 ec 08             	sub    esp,0x8
    1d60:	8d 93 19 04 00 00    	lea    edx,[ebx+0x419]
    1d66:	52                   	push   edx
    1d67:	50                   	push   eax
    1d68:	e8 fc ff ff ff       	call   1d69 <main+0x19b>
    1d6d:	83 c4 10             	add    esp,0x10
    1d70:	85 c0                	test   eax,eax
    1d72:	74 1f                	je     1d93 <main+0x1c5>
    1d74:	8b 46 04             	mov    eax,DWORD PTR [esi+0x4]
    1d77:	83 c0 04             	add    eax,0x4
    1d7a:	8b 00                	mov    eax,DWORD PTR [eax]
    1d7c:	83 ec 08             	sub    esp,0x8
    1d7f:	8d 93 1c 04 00 00    	lea    edx,[ebx+0x41c]
    1d85:	52                   	push   edx
    1d86:	50                   	push   eax
    1d87:	e8 fc ff ff ff       	call   1d88 <main+0x1ba>
    1d8c:	83 c4 10             	add    esp,0x10
    1d8f:	85 c0                	test   eax,eax
    1d91:	75 7c                	jne    1e0f <main+0x241>
    1d93:	8b 83 00 00 00 00    	mov    eax,DWORD PTR [ebx+0x0]
    1d99:	83 ec 0c             	sub    esp,0xc
    1d9c:	50                   	push   eax
    1d9d:	e8 fc ff ff ff       	call   1d9e <main+0x1d0>
    1da2:	83 c4 10             	add    esp,0x10
    1da5:	83 ec 0c             	sub    esp,0xc
    1da8:	8d 83 24 04 00 00    	lea    eax,[ebx+0x424]
    1dae:	50                   	push   eax
    1daf:	e8 fc ff ff ff       	call   1db0 <main+0x1e2>
    1db4:	83 c4 10             	add    esp,0x10
    1db7:	83 ec 0c             	sub    esp,0xc
    1dba:	8d 83 54 04 00 00    	lea    eax,[ebx+0x454]
    1dc0:	50                   	push   eax
    1dc1:	e8 fc ff ff ff       	call   1dc2 <main+0x1f4>
    1dc6:	83 c4 10             	add    esp,0x10
    1dc9:	83 ec 0c             	sub    esp,0xc
    1dcc:	8d 83 a4 04 00 00    	lea    eax,[ebx+0x4a4]
    1dd2:	50                   	push   eax
    1dd3:	e8 fc ff ff ff       	call   1dd4 <main+0x206>
    1dd8:	83 c4 10             	add    esp,0x10
    1ddb:	83 ec 0c             	sub    esp,0xc
    1dde:	8d 83 cc 04 00 00    	lea    eax,[ebx+0x4cc]
    1de4:	50                   	push   eax
    1de5:	e8 fc ff ff ff       	call   1de6 <main+0x218>
    1dea:	83 c4 10             	add    esp,0x10
    1ded:	8b 46 04             	mov    eax,DWORD PTR [esi+0x4]
    1df0:	8b 00                	mov    eax,DWORD PTR [eax]
    1df2:	83 ec 08             	sub    esp,0x8
    1df5:	50                   	push   eax
    1df6:	8d 83 0c 05 00 00    	lea    eax,[ebx+0x50c]
    1dfc:	50                   	push   eax
    1dfd:	e8 fc ff ff ff       	call   1dfe <main+0x230>
    1e02:	83 c4 10             	add    esp,0x10
    1e05:	b8 00 00 00 00       	mov    eax,0x0
    1e0a:	e9 97 0b 00 00       	jmp    29a6 <.L214+0x1d2>
    1e0f:	8b 46 04             	mov    eax,DWORD PTR [esi+0x4]
    1e12:	83 c0 04             	add    eax,0x4
    1e15:	8b 10                	mov    edx,DWORD PTR [eax]
    1e17:	8b 83 00 00 00 00    	mov    eax,DWORD PTR [ebx+0x0]
    1e1d:	8b 00                	mov    eax,DWORD PTR [eax]
    1e1f:	83 ec 04             	sub    esp,0x4
    1e22:	52                   	push   edx
    1e23:	8d 93 60 05 00 00    	lea    edx,[ebx+0x560]
    1e29:	52                   	push   edx
    1e2a:	50                   	push   eax
    1e2b:	e8 fc ff ff ff       	call   1e2c <main+0x25e>
    1e30:	83 c4 10             	add    esp,0x10
    1e33:	b8 01 00 00 00       	mov    eax,0x1
    1e38:	e9 69 0b 00 00       	jmp    29a6 <.L214+0x1d2>
    1e3d:	83 3e 03             	cmp    DWORD PTR [esi],0x3
    1e40:	7f 27                	jg     1e69 <main+0x29b>
    1e42:	8b 83 00 00 00 00    	mov    eax,DWORD PTR [ebx+0x0]
    1e48:	8b 00                	mov    eax,DWORD PTR [eax]
    1e4a:	83 ec 04             	sub    esp,0x4
    1e4d:	ff 36                	push   DWORD PTR [esi]
    1e4f:	8d 93 dc 03 00 00    	lea    edx,[ebx+0x3dc]
    1e55:	52                   	push   edx
    1e56:	50                   	push   eax
    1e57:	e8 fc ff ff ff       	call   1e58 <main+0x28a>
    1e5c:	83 c4 10             	add    esp,0x10
    1e5f:	b8 00 00 00 00       	mov    eax,0x0
    1e64:	e9 3d 0b 00 00       	jmp    29a6 <.L214+0x1d2>
    1e69:	8b 06                	mov    eax,DWORD PTR [esi]
    1e6b:	05 ff ff ff 3f       	add    eax,0x3fffffff
    1e70:	8d 14 85 00 00 00 00 	lea    edx,[eax*4+0x0]
    1e77:	8b 46 04             	mov    eax,DWORD PTR [esi+0x4]
    1e7a:	01 c2                	add    edx,eax
    1e7c:	8b 45 c8             	mov    eax,DWORD PTR [ebp-0x38]
    1e7f:	8b 12                	mov    edx,DWORD PTR [edx]
    1e81:	89 50 04             	mov    DWORD PTR [eax+0x4],edx
    1e84:	8b 06                	mov    eax,DWORD PTR [esi]
    1e86:	05 fe ff ff 3f       	add    eax,0x3ffffffe
    1e8b:	8d 14 85 00 00 00 00 	lea    edx,[eax*4+0x0]
    1e92:	8b 46 04             	mov    eax,DWORD PTR [esi+0x4]
    1e95:	01 c2                	add    edx,eax
    1e97:	8b 45 c8             	mov    eax,DWORD PTR [ebp-0x38]
    1e9a:	8b 12                	mov    edx,DWORD PTR [edx]
    1e9c:	89 10                	mov    DWORD PTR [eax],edx
    1e9e:	8b 46 04             	mov    eax,DWORD PTR [esi+0x4]
    1ea1:	83 c0 04             	add    eax,0x4
    1ea4:	8b 00                	mov    eax,DWORD PTR [eax]
    1ea6:	83 ec 08             	sub    esp,0x8
    1ea9:	8d 93 96 05 00 00    	lea    edx,[ebx+0x596]
    1eaf:	52                   	push   edx
    1eb0:	50                   	push   eax
    1eb1:	e8 fc ff ff ff       	call   1eb2 <main+0x2e4>
    1eb6:	83 c4 10             	add    esp,0x10
    1eb9:	85 c0                	test   eax,eax
    1ebb:	74 1f                	je     1edc <main+0x30e>
    1ebd:	8b 46 04             	mov    eax,DWORD PTR [esi+0x4]
    1ec0:	83 c0 04             	add    eax,0x4
    1ec3:	8b 00                	mov    eax,DWORD PTR [eax]
    1ec5:	83 ec 08             	sub    esp,0x8
    1ec8:	8d 93 99 05 00 00    	lea    edx,[ebx+0x599]
    1ece:	52                   	push   edx
    1ecf:	50                   	push   eax
    1ed0:	e8 fc ff ff ff       	call   1ed1 <main+0x303>
    1ed5:	83 c4 10             	add    esp,0x10
    1ed8:	85 c0                	test   eax,eax
    1eda:	75 12                	jne    1eee <main+0x320>
    1edc:	8b 45 c8             	mov    eax,DWORD PTR [ebp-0x38]
    1edf:	c7 80 48 00 00 01 03 	mov    DWORD PTR [eax+0x1000048],0x3
    1ee6:	00 00 00 
    1ee9:	e9 7d 01 00 00       	jmp    206b <main+0x49d>
    1eee:	8b 46 04             	mov    eax,DWORD PTR [esi+0x4]
    1ef1:	83 c0 04             	add    eax,0x4
    1ef4:	8b 00                	mov    eax,DWORD PTR [eax]
    1ef6:	83 ec 08             	sub    esp,0x8
    1ef9:	8d 93 a4 05 00 00    	lea    edx,[ebx+0x5a4]
    1eff:	52                   	push   edx
    1f00:	50                   	push   eax
    1f01:	e8 fc ff ff ff       	call   1f02 <main+0x334>
    1f06:	83 c4 10             	add    esp,0x10
    1f09:	85 c0                	test   eax,eax
    1f0b:	74 1f                	je     1f2c <main+0x35e>
    1f0d:	8b 46 04             	mov    eax,DWORD PTR [esi+0x4]
    1f10:	83 c0 04             	add    eax,0x4
    1f13:	8b 00                	mov    eax,DWORD PTR [eax]
    1f15:	83 ec 08             	sub    esp,0x8
    1f18:	8d 93 a7 05 00 00    	lea    edx,[ebx+0x5a7]
    1f1e:	52                   	push   edx
    1f1f:	50                   	push   eax
    1f20:	e8 fc ff ff ff       	call   1f21 <main+0x353>
    1f25:	83 c4 10             	add    esp,0x10
    1f28:	85 c0                	test   eax,eax
    1f2a:	75 12                	jne    1f3e <main+0x370>
    1f2c:	8b 45 c8             	mov    eax,DWORD PTR [ebp-0x38]
    1f2f:	c7 80 48 00 00 01 04 	mov    DWORD PTR [eax+0x1000048],0x4
    1f36:	00 00 00 
    1f39:	e9 2d 01 00 00       	jmp    206b <main+0x49d>
    1f3e:	8b 46 04             	mov    eax,DWORD PTR [esi+0x4]
    1f41:	83 c0 04             	add    eax,0x4
    1f44:	8b 00                	mov    eax,DWORD PTR [eax]
    1f46:	83 ec 08             	sub    esp,0x8
    1f49:	8d 93 b3 05 00 00    	lea    edx,[ebx+0x5b3]
    1f4f:	52                   	push   edx
    1f50:	50                   	push   eax
    1f51:	e8 fc ff ff ff       	call   1f52 <main+0x384>
    1f56:	83 c4 10             	add    esp,0x10
    1f59:	85 c0                	test   eax,eax
    1f5b:	74 1f                	je     1f7c <main+0x3ae>
    1f5d:	8b 46 04             	mov    eax,DWORD PTR [esi+0x4]
    1f60:	83 c0 04             	add    eax,0x4
    1f63:	8b 00                	mov    eax,DWORD PTR [eax]
    1f65:	83 ec 08             	sub    esp,0x8
    1f68:	8d 93 b6 05 00 00    	lea    edx,[ebx+0x5b6]
    1f6e:	52                   	push   edx
    1f6f:	50                   	push   eax
    1f70:	e8 fc ff ff ff       	call   1f71 <main+0x3a3>
    1f75:	83 c4 10             	add    esp,0x10
    1f78:	85 c0                	test   eax,eax
    1f7a:	75 12                	jne    1f8e <main+0x3c0>
    1f7c:	8b 45 c8             	mov    eax,DWORD PTR [ebp-0x38]
    1f7f:	c7 80 48 00 00 01 00 	mov    DWORD PTR [eax+0x1000048],0x0
    1f86:	00 00 00 
    1f89:	e9 dd 00 00 00       	jmp    206b <main+0x49d>
    1f8e:	8b 46 04             	mov    eax,DWORD PTR [esi+0x4]
    1f91:	83 c0 04             	add    eax,0x4
    1f94:	8b 00                	mov    eax,DWORD PTR [eax]
    1f96:	83 ec 08             	sub    esp,0x8
    1f99:	8d 93 bc 05 00 00    	lea    edx,[ebx+0x5bc]
    1f9f:	52                   	push   edx
    1fa0:	50                   	push   eax
    1fa1:	e8 fc ff ff ff       	call   1fa2 <main+0x3d4>
    1fa6:	83 c4 10             	add    esp,0x10
    1fa9:	85 c0                	test   eax,eax
    1fab:	74 1f                	je     1fcc <main+0x3fe>
    1fad:	8b 46 04             	mov    eax,DWORD PTR [esi+0x4]
    1fb0:	83 c0 04             	add    eax,0x4
    1fb3:	8b 00                	mov    eax,DWORD PTR [eax]
    1fb5:	83 ec 08             	sub    esp,0x8
    1fb8:	8d 93 bf 05 00 00    	lea    edx,[ebx+0x5bf]
    1fbe:	52                   	push   edx
    1fbf:	50                   	push   eax
    1fc0:	e8 fc ff ff ff       	call   1fc1 <main+0x3f3>
    1fc5:	83 c4 10             	add    esp,0x10
    1fc8:	85 c0                	test   eax,eax
    1fca:	75 12                	jne    1fde <main+0x410>
    1fcc:	8b 45 c8             	mov    eax,DWORD PTR [ebp-0x38]
    1fcf:	c7 80 48 00 00 01 01 	mov    DWORD PTR [eax+0x1000048],0x1
    1fd6:	00 00 00 
    1fd9:	e9 8d 00 00 00       	jmp    206b <main+0x49d>
    1fde:	8b 46 04             	mov    eax,DWORD PTR [esi+0x4]
    1fe1:	83 c0 04             	add    eax,0x4
    1fe4:	8b 00                	mov    eax,DWORD PTR [eax]
    1fe6:	83 ec 08             	sub    esp,0x8
    1fe9:	8d 93 c9 05 00 00    	lea    edx,[ebx+0x5c9]
    1fef:	52                   	push   edx
    1ff0:	50                   	push   eax
    1ff1:	e8 fc ff ff ff       	call   1ff2 <main+0x424>
    1ff6:	83 c4 10             	add    esp,0x10
    1ff9:	85 c0                	test   eax,eax
    1ffb:	74 1f                	je     201c <main+0x44e>
    1ffd:	8b 46 04             	mov    eax,DWORD PTR [esi+0x4]
    2000:	83 c0 04             	add    eax,0x4
    2003:	8b 00                	mov    eax,DWORD PTR [eax]
    2005:	83 ec 08             	sub    esp,0x8
    2008:	8d 93 cc 05 00 00    	lea    edx,[ebx+0x5cc]
    200e:	52                   	push   edx
    200f:	50                   	push   eax
    2010:	e8 fc ff ff ff       	call   2011 <main+0x443>
    2015:	83 c4 10             	add    esp,0x10
    2018:	85 c0                	test   eax,eax
    201a:	75 0f                	jne    202b <main+0x45d>
    201c:	8b 45 c8             	mov    eax,DWORD PTR [ebp-0x38]
    201f:	c7 80 48 00 00 01 02 	mov    DWORD PTR [eax+0x1000048],0x2
    2026:	00 00 00 
    2029:	eb 40                	jmp    206b <main+0x49d>
    202b:	8b 45 c8             	mov    eax,DWORD PTR [ebp-0x38]
    202e:	83 ec 08             	sub    esp,0x8
    2031:	ff 75 d8             	push   DWORD PTR [ebp-0x28]
    2034:	50                   	push   eax
    2035:	e8 c6 df ff ff       	call   0 <free_global_memory>
    203a:	83 c4 10             	add    esp,0x10
    203d:	8b 46 04             	mov    eax,DWORD PTR [esi+0x4]
    2040:	83 c0 04             	add    eax,0x4
    2043:	8b 10                	mov    edx,DWORD PTR [eax]
    2045:	8b 83 00 00 00 00    	mov    eax,DWORD PTR [ebx+0x0]
    204b:	8b 00                	mov    eax,DWORD PTR [eax]
    204d:	83 ec 04             	sub    esp,0x4
    2050:	52                   	push   edx
    2051:	8d 93 d8 05 00 00    	lea    edx,[ebx+0x5d8]
    2057:	52                   	push   edx
    2058:	50                   	push   eax
    2059:	e8 fc ff ff ff       	call   205a <main+0x48c>
    205e:	83 c4 10             	add    esp,0x10
    2061:	b8 01 00 00 00       	mov    eax,0x1
    2066:	e9 3b 09 00 00       	jmp    29a6 <.L214+0x1d2>
    206b:	8b 46 04             	mov    eax,DWORD PTR [esi+0x4]
    206e:	83 c0 08             	add    eax,0x8
    2071:	8b 00                	mov    eax,DWORD PTR [eax]
    2073:	83 ec 08             	sub    esp,0x8
    2076:	8d 93 f9 05 00 00    	lea    edx,[ebx+0x5f9]
    207c:	52                   	push   edx
    207d:	50                   	push   eax
    207e:	e8 fc ff ff ff       	call   207f <main+0x4b1>
    2083:	83 c4 10             	add    esp,0x10
    2086:	85 c0                	test   eax,eax
    2088:	74 1f                	je     20a9 <main+0x4db>
    208a:	8b 46 04             	mov    eax,DWORD PTR [esi+0x4]
    208d:	83 c0 08             	add    eax,0x8
    2090:	8b 00                	mov    eax,DWORD PTR [eax]
    2092:	83 ec 08             	sub    esp,0x8
    2095:	8d 93 fc 05 00 00    	lea    edx,[ebx+0x5fc]
    209b:	52                   	push   edx
    209c:	50                   	push   eax
    209d:	e8 fc ff ff ff       	call   209e <main+0x4d0>
    20a2:	83 c4 10             	add    esp,0x10
    20a5:	85 c0                	test   eax,eax
    20a7:	75 12                	jne    20bb <main+0x4ed>
    20a9:	8b 45 c8             	mov    eax,DWORD PTR [ebp-0x38]
    20ac:	c7 80 44 00 00 01 00 	mov    DWORD PTR [eax+0x1000044],0x0
    20b3:	00 00 00 
    20b6:	e9 8d 00 00 00       	jmp    2148 <main+0x57a>
    20bb:	8b 46 04             	mov    eax,DWORD PTR [esi+0x4]
    20be:	83 c0 08             	add    eax,0x8
    20c1:	8b 00                	mov    eax,DWORD PTR [eax]
    20c3:	83 ec 08             	sub    esp,0x8
    20c6:	8d 93 06 06 00 00    	lea    edx,[ebx+0x606]
    20cc:	52                   	push   edx
    20cd:	50                   	push   eax
    20ce:	e8 fc ff ff ff       	call   20cf <main+0x501>
    20d3:	83 c4 10             	add    esp,0x10
    20d6:	85 c0                	test   eax,eax
    20d8:	74 1f                	je     20f9 <main+0x52b>
    20da:	8b 46 04             	mov    eax,DWORD PTR [esi+0x4]
    20dd:	83 c0 08             	add    eax,0x8
    20e0:	8b 00                	mov    eax,DWORD PTR [eax]
    20e2:	83 ec 08             	sub    esp,0x8
    20e5:	8d 93 09 06 00 00    	lea    edx,[ebx+0x609]
    20eb:	52                   	push   edx
    20ec:	50                   	push   eax
    20ed:	e8 fc ff ff ff       	call   20ee <main+0x520>
    20f2:	83 c4 10             	add    esp,0x10
    20f5:	85 c0                	test   eax,eax
    20f7:	75 0f                	jne    2108 <main+0x53a>
    20f9:	8b 45 c8             	mov    eax,DWORD PTR [ebp-0x38]
    20fc:	c7 80 44 00 00 01 de 	mov    DWORD PTR [eax+0x1000044],0xde
    2103:	00 00 00 
    2106:	eb 40                	jmp    2148 <main+0x57a>
    2108:	8b 45 c8             	mov    eax,DWORD PTR [ebp-0x38]
    210b:	83 ec 08             	sub    esp,0x8
    210e:	ff 75 d8             	push   DWORD PTR [ebp-0x28]
    2111:	50                   	push   eax
    2112:	e8 e9 de ff ff       	call   0 <free_global_memory>
    2117:	83 c4 10             	add    esp,0x10
    211a:	8b 46 04             	mov    eax,DWORD PTR [esi+0x4]
    211d:	83 c0 08             	add    eax,0x8
    2120:	8b 10                	mov    edx,DWORD PTR [eax]
    2122:	8b 83 00 00 00 00    	mov    eax,DWORD PTR [ebx+0x0]
    2128:	8b 00                	mov    eax,DWORD PTR [eax]
    212a:	83 ec 04             	sub    esp,0x4
    212d:	52                   	push   edx
    212e:	8d 93 14 06 00 00    	lea    edx,[ebx+0x614]
    2134:	52                   	push   edx
    2135:	50                   	push   eax
    2136:	e8 fc ff ff ff       	call   2137 <main+0x569>
    213b:	83 c4 10             	add    esp,0x10
    213e:	b8 01 00 00 00       	mov    eax,0x1
    2143:	e9 5e 08 00 00       	jmp    29a6 <.L214+0x1d2>
    2148:	8b 45 c8             	mov    eax,DWORD PTR [ebp-0x38]
    214b:	8b 80 48 00 00 01    	mov    eax,DWORD PTR [eax+0x1000048]
    2151:	85 c0                	test   eax,eax
    2153:	74 20                	je     2175 <main+0x5a7>
    2155:	8b 45 c8             	mov    eax,DWORD PTR [ebp-0x38]
    2158:	8b 80 48 00 00 01    	mov    eax,DWORD PTR [eax+0x1000048]
    215e:	83 f8 01             	cmp    eax,0x1
    2161:	74 12                	je     2175 <main+0x5a7>
    2163:	8b 45 c8             	mov    eax,DWORD PTR [ebp-0x38]
    2166:	8b 80 48 00 00 01    	mov    eax,DWORD PTR [eax+0x1000048]
    216c:	83 f8 02             	cmp    eax,0x2
    216f:	0f 85 74 01 00 00    	jne    22e9 <main+0x71b>
    2175:	8b 46 04             	mov    eax,DWORD PTR [esi+0x4]
    2178:	83 c0 0c             	add    eax,0xc
    217b:	8b 00                	mov    eax,DWORD PTR [eax]
    217d:	83 ec 08             	sub    esp,0x8
    2180:	8d 93 33 06 00 00    	lea    edx,[ebx+0x633]
    2186:	52                   	push   edx
    2187:	50                   	push   eax
    2188:	e8 fc ff ff ff       	call   2189 <main+0x5bb>
    218d:	83 c4 10             	add    esp,0x10
    2190:	85 c0                	test   eax,eax
    2192:	74 1f                	je     21b3 <main+0x5e5>
    2194:	8b 46 04             	mov    eax,DWORD PTR [esi+0x4]
    2197:	83 c0 0c             	add    eax,0xc
    219a:	8b 00                	mov    eax,DWORD PTR [eax]
    219c:	83 ec 08             	sub    esp,0x8
    219f:	8d 93 36 06 00 00    	lea    edx,[ebx+0x636]
    21a5:	52                   	push   edx
    21a6:	50                   	push   eax
    21a7:	e8 fc ff ff ff       	call   21a8 <main+0x5da>
    21ac:	83 c4 10             	add    esp,0x10
    21af:	85 c0                	test   eax,eax
    21b1:	75 28                	jne    21db <main+0x60d>
    21b3:	8b 45 c8             	mov    eax,DWORD PTR [ebp-0x38]
    21b6:	8b 80 48 00 00 01    	mov    eax,DWORD PTR [eax+0x1000048]
    21bc:	85 c0                	test   eax,eax
    21be:	75 0c                	jne    21cc <main+0x5fe>
    21c0:	8b 83 00 00 00 00    	mov    eax,DWORD PTR [ebx+0x0]
    21c6:	c7 00 0a 00 00 00    	mov    DWORD PTR [eax],0xa
    21cc:	8b 45 c8             	mov    eax,DWORD PTR [ebp-0x38]
    21cf:	c7 40 24 80 00 00 00 	mov    DWORD PTR [eax+0x24],0x80
    21d6:	e9 09 01 00 00       	jmp    22e4 <main+0x716>
    21db:	8b 46 04             	mov    eax,DWORD PTR [esi+0x4]
    21de:	83 c0 0c             	add    eax,0xc
    21e1:	8b 00                	mov    eax,DWORD PTR [eax]
    21e3:	83 ec 08             	sub    esp,0x8
    21e6:	8d 93 96 05 00 00    	lea    edx,[ebx+0x596]
    21ec:	52                   	push   edx
    21ed:	50                   	push   eax
    21ee:	e8 fc ff ff ff       	call   21ef <main+0x621>
    21f3:	83 c4 10             	add    esp,0x10
    21f6:	85 c0                	test   eax,eax
    21f8:	74 1f                	je     2219 <main+0x64b>
    21fa:	8b 46 04             	mov    eax,DWORD PTR [esi+0x4]
    21fd:	83 c0 0c             	add    eax,0xc
    2200:	8b 00                	mov    eax,DWORD PTR [eax]
    2202:	83 ec 08             	sub    esp,0x8
    2205:	8d 93 3c 06 00 00    	lea    edx,[ebx+0x63c]
    220b:	52                   	push   edx
    220c:	50                   	push   eax
    220d:	e8 fc ff ff ff       	call   220e <main+0x640>
    2212:	83 c4 10             	add    esp,0x10
    2215:	85 c0                	test   eax,eax
    2217:	75 28                	jne    2241 <main+0x673>
    2219:	8b 45 c8             	mov    eax,DWORD PTR [ebp-0x38]
    221c:	8b 80 48 00 00 01    	mov    eax,DWORD PTR [eax+0x1000048]
    2222:	85 c0                	test   eax,eax
    2224:	75 0c                	jne    2232 <main+0x664>
    2226:	8b 83 00 00 00 00    	mov    eax,DWORD PTR [ebx+0x0]
    222c:	c7 00 0c 00 00 00    	mov    DWORD PTR [eax],0xc
    2232:	8b 45 c8             	mov    eax,DWORD PTR [ebp-0x38]
    2235:	c7 40 24 c0 00 00 00 	mov    DWORD PTR [eax+0x24],0xc0
    223c:	e9 a3 00 00 00       	jmp    22e4 <main+0x716>
    2241:	8b 46 04             	mov    eax,DWORD PTR [esi+0x4]
    2244:	83 c0 0c             	add    eax,0xc
    2247:	8b 00                	mov    eax,DWORD PTR [eax]
    2249:	83 ec 08             	sub    esp,0x8
    224c:	8d 93 42 06 00 00    	lea    edx,[ebx+0x642]
    2252:	52                   	push   edx
    2253:	50                   	push   eax
    2254:	e8 fc ff ff ff       	call   2255 <main+0x687>
    2259:	83 c4 10             	add    esp,0x10
    225c:	85 c0                	test   eax,eax
    225e:	74 1f                	je     227f <main+0x6b1>
    2260:	8b 46 04             	mov    eax,DWORD PTR [esi+0x4]
    2263:	83 c0 0c             	add    eax,0xc
    2266:	8b 00                	mov    eax,DWORD PTR [eax]
    2268:	83 ec 08             	sub    esp,0x8
    226b:	8d 93 45 06 00 00    	lea    edx,[ebx+0x645]
    2271:	52                   	push   edx
    2272:	50                   	push   eax
    2273:	e8 fc ff ff ff       	call   2274 <main+0x6a6>
    2278:	83 c4 10             	add    esp,0x10
    227b:	85 c0                	test   eax,eax
    227d:	75 25                	jne    22a4 <main+0x6d6>
    227f:	8b 45 c8             	mov    eax,DWORD PTR [ebp-0x38]
    2282:	8b 80 48 00 00 01    	mov    eax,DWORD PTR [eax+0x1000048]
    2288:	85 c0                	test   eax,eax
    228a:	75 0c                	jne    2298 <main+0x6ca>
    228c:	8b 83 00 00 00 00    	mov    eax,DWORD PTR [ebx+0x0]
    2292:	c7 00 0e 00 00 00    	mov    DWORD PTR [eax],0xe
    2298:	8b 45 c8             	mov    eax,DWORD PTR [ebp-0x38]
    229b:	c7 40 24 00 01 00 00 	mov    DWORD PTR [eax+0x24],0x100
    22a2:	eb 40                	jmp    22e4 <main+0x716>
    22a4:	8b 45 c8             	mov    eax,DWORD PTR [ebp-0x38]
    22a7:	83 ec 08             	sub    esp,0x8
    22aa:	ff 75 d8             	push   DWORD PTR [ebp-0x28]
    22ad:	50                   	push   eax
    22ae:	e8 4d dd ff ff       	call   0 <free_global_memory>
    22b3:	83 c4 10             	add    esp,0x10
    22b6:	8b 46 04             	mov    eax,DWORD PTR [esi+0x4]
    22b9:	83 c0 0c             	add    eax,0xc
    22bc:	8b 10                	mov    edx,DWORD PTR [eax]
    22be:	8b 83 00 00 00 00    	mov    eax,DWORD PTR [ebx+0x0]
    22c4:	8b 00                	mov    eax,DWORD PTR [eax]
    22c6:	83 ec 04             	sub    esp,0x4
    22c9:	52                   	push   edx
    22ca:	8d 93 4c 06 00 00    	lea    edx,[ebx+0x64c]
    22d0:	52                   	push   edx
    22d1:	50                   	push   eax
    22d2:	e8 fc ff ff ff       	call   22d3 <main+0x705>
    22d7:	83 c4 10             	add    esp,0x10
    22da:	b8 01 00 00 00       	mov    eax,0x1
    22df:	e9 c2 06 00 00       	jmp    29a6 <.L214+0x1d2>
    22e4:	e9 53 01 00 00       	jmp    243c <main+0x86e>
    22e9:	8b 45 c8             	mov    eax,DWORD PTR [ebp-0x38]
    22ec:	8b 80 48 00 00 01    	mov    eax,DWORD PTR [eax+0x1000048]
    22f2:	83 f8 03             	cmp    eax,0x3
    22f5:	75 0f                	jne    2306 <main+0x738>
    22f7:	8b 45 c8             	mov    eax,DWORD PTR [ebp-0x38]
    22fa:	c7 40 24 c0 01 00 00 	mov    DWORD PTR [eax+0x24],0x1c0
    2301:	e9 36 01 00 00       	jmp    243c <main+0x86e>
    2306:	8b 45 c8             	mov    eax,DWORD PTR [ebp-0x38]
    2309:	8b 80 48 00 00 01    	mov    eax,DWORD PTR [eax+0x1000048]
    230f:	83 f8 04             	cmp    eax,0x4
    2312:	0f 85 24 01 00 00    	jne    243c <main+0x86e>
    2318:	8b 46 04             	mov    eax,DWORD PTR [esi+0x4]
    231b:	83 c0 0c             	add    eax,0xc
    231e:	8b 00                	mov    eax,DWORD PTR [eax]
    2320:	83 ec 08             	sub    esp,0x8
    2323:	8d 93 33 06 00 00    	lea    edx,[ebx+0x633]
    2329:	52                   	push   edx
    232a:	50                   	push   eax
    232b:	e8 fc ff ff ff       	call   232c <main+0x75e>
    2330:	83 c4 10             	add    esp,0x10
    2333:	85 c0                	test   eax,eax
    2335:	74 1f                	je     2356 <main+0x788>
    2337:	8b 46 04             	mov    eax,DWORD PTR [esi+0x4]
    233a:	83 c0 0c             	add    eax,0xc
    233d:	8b 00                	mov    eax,DWORD PTR [eax]
    233f:	83 ec 08             	sub    esp,0x8
    2342:	8d 93 45 06 00 00    	lea    edx,[ebx+0x645]
    2348:	52                   	push   edx
    2349:	50                   	push   eax
    234a:	e8 fc ff ff ff       	call   234b <main+0x77d>
    234f:	83 c4 10             	add    esp,0x10
    2352:	85 c0                	test   eax,eax
    2354:	75 0f                	jne    2365 <main+0x797>
    2356:	8b 45 c8             	mov    eax,DWORD PTR [ebp-0x38]
    2359:	c7 40 24 00 01 00 00 	mov    DWORD PTR [eax+0x24],0x100
    2360:	e9 d7 00 00 00       	jmp    243c <main+0x86e>
    2365:	8b 46 04             	mov    eax,DWORD PTR [esi+0x4]
    2368:	83 c0 0c             	add    eax,0xc
    236b:	8b 00                	mov    eax,DWORD PTR [eax]
    236d:	83 ec 08             	sub    esp,0x8
    2370:	8d 93 96 05 00 00    	lea    edx,[ebx+0x596]
    2376:	52                   	push   edx
    2377:	50                   	push   eax
    2378:	e8 fc ff ff ff       	call   2379 <main+0x7ab>
    237d:	83 c4 10             	add    esp,0x10
    2380:	85 c0                	test   eax,eax
    2382:	74 1f                	je     23a3 <main+0x7d5>
    2384:	8b 46 04             	mov    eax,DWORD PTR [esi+0x4]
    2387:	83 c0 0c             	add    eax,0xc
    238a:	8b 00                	mov    eax,DWORD PTR [eax]
    238c:	83 ec 08             	sub    esp,0x8
    238f:	8d 93 6c 06 00 00    	lea    edx,[ebx+0x66c]
    2395:	52                   	push   edx
    2396:	50                   	push   eax
    2397:	e8 fc ff ff ff       	call   2398 <main+0x7ca>
    239c:	83 c4 10             	add    esp,0x10
    239f:	85 c0                	test   eax,eax
    23a1:	75 0f                	jne    23b2 <main+0x7e4>
    23a3:	8b 45 c8             	mov    eax,DWORD PTR [ebp-0x38]
    23a6:	c7 40 24 00 02 00 00 	mov    DWORD PTR [eax+0x24],0x200
    23ad:	e9 8a 00 00 00       	jmp    243c <main+0x86e>
    23b2:	8b 46 04             	mov    eax,DWORD PTR [esi+0x4]
    23b5:	83 c0 0c             	add    eax,0xc
    23b8:	8b 00                	mov    eax,DWORD PTR [eax]
    23ba:	83 ec 08             	sub    esp,0x8
    23bd:	8d 93 42 06 00 00    	lea    edx,[ebx+0x642]
    23c3:	52                   	push   edx
    23c4:	50                   	push   eax
    23c5:	e8 fc ff ff ff       	call   23c6 <main+0x7f8>
    23ca:	83 c4 10             	add    esp,0x10
    23cd:	85 c0                	test   eax,eax
    23cf:	74 1f                	je     23f0 <main+0x822>
    23d1:	8b 46 04             	mov    eax,DWORD PTR [esi+0x4]
    23d4:	83 c0 0c             	add    eax,0xc
    23d7:	8b 00                	mov    eax,DWORD PTR [eax]
    23d9:	83 ec 08             	sub    esp,0x8
    23dc:	8d 93 72 06 00 00    	lea    edx,[ebx+0x672]
    23e2:	52                   	push   edx
    23e3:	50                   	push   eax
    23e4:	e8 fc ff ff ff       	call   23e5 <main+0x817>
    23e9:	83 c4 10             	add    esp,0x10
    23ec:	85 c0                	test   eax,eax
    23ee:	75 0c                	jne    23fc <main+0x82e>
    23f0:	8b 45 c8             	mov    eax,DWORD PTR [ebp-0x38]
    23f3:	c7 40 24 00 04 00 00 	mov    DWORD PTR [eax+0x24],0x400
    23fa:	eb 40                	jmp    243c <main+0x86e>
    23fc:	8b 45 c8             	mov    eax,DWORD PTR [ebp-0x38]
    23ff:	83 ec 08             	sub    esp,0x8
    2402:	ff 75 d8             	push   DWORD PTR [ebp-0x28]
    2405:	50                   	push   eax
    2406:	e8 f5 db ff ff       	call   0 <free_global_memory>
    240b:	83 c4 10             	add    esp,0x10
    240e:	8b 46 04             	mov    eax,DWORD PTR [esi+0x4]
    2411:	83 c0 0c             	add    eax,0xc
    2414:	8b 10                	mov    edx,DWORD PTR [eax]
    2416:	8b 83 00 00 00 00    	mov    eax,DWORD PTR [ebx+0x0]
    241c:	8b 00                	mov    eax,DWORD PTR [eax]
    241e:	83 ec 04             	sub    esp,0x4
    2421:	52                   	push   edx
    2422:	8d 93 4c 06 00 00    	lea    edx,[ebx+0x64c]
    2428:	52                   	push   edx
    2429:	50                   	push   eax
    242a:	e8 fc ff ff ff       	call   242b <main+0x85d>
    242f:	83 c4 10             	add    esp,0x10
    2432:	b8 01 00 00 00       	mov    eax,0x1
    2437:	e9 6a 05 00 00       	jmp    29a6 <.L214+0x1d2>
    243c:	8b 45 c8             	mov    eax,DWORD PTR [ebp-0x38]
    243f:	83 ec 0c             	sub    esp,0xc
    2442:	50                   	push   eax
    2443:	e8 fc ff ff ff       	call   2444 <main+0x876>
    2448:	83 c4 10             	add    esp,0x10
    244b:	85 c0                	test   eax,eax
    244d:	74 1c                	je     246b <main+0x89d>
    244f:	8b 45 c8             	mov    eax,DWORD PTR [ebp-0x38]
    2452:	83 ec 08             	sub    esp,0x8
    2455:	ff 75 d8             	push   DWORD PTR [ebp-0x28]
    2458:	50                   	push   eax
    2459:	e8 a2 db ff ff       	call   0 <free_global_memory>
    245e:	83 c4 10             	add    esp,0x10
    2461:	b8 01 00 00 00       	mov    eax,0x1
    2466:	e9 3b 05 00 00       	jmp    29a6 <.L214+0x1d2>
    246b:	8b 45 c8             	mov    eax,DWORD PTR [ebp-0x38]
    246e:	8b 50 04             	mov    edx,DWORD PTR [eax+0x4]
    2471:	8b 45 c8             	mov    eax,DWORD PTR [ebp-0x38]
    2474:	8b 00                	mov    eax,DWORD PTR [eax]
    2476:	83 ec 08             	sub    esp,0x8
    2479:	52                   	push   edx
    247a:	50                   	push   eax
    247b:	e8 fc ff ff ff       	call   247c <main+0x8ae>
    2480:	83 c4 10             	add    esp,0x10
    2483:	85 c0                	test   eax,eax
    2485:	75 38                	jne    24bf <main+0x8f1>
    2487:	8b 45 c8             	mov    eax,DWORD PTR [ebp-0x38]
    248a:	83 ec 08             	sub    esp,0x8
    248d:	ff 75 d8             	push   DWORD PTR [ebp-0x28]
    2490:	50                   	push   eax
    2491:	e8 6a db ff ff       	call   0 <free_global_memory>
    2496:	83 c4 10             	add    esp,0x10
    2499:	8b 83 00 00 00 00    	mov    eax,DWORD PTR [ebx+0x0]
    249f:	8b 00                	mov    eax,DWORD PTR [eax]
    24a1:	50                   	push   eax
    24a2:	6a 28                	push   0x28
    24a4:	6a 01                	push   0x1
    24a6:	8d 83 7c 06 00 00    	lea    eax,[ebx+0x67c]
    24ac:	50                   	push   eax
    24ad:	e8 fc ff ff ff       	call   24ae <main+0x8e0>
    24b2:	83 c4 10             	add    esp,0x10
    24b5:	b8 01 00 00 00       	mov    eax,0x1
    24ba:	e9 e7 04 00 00       	jmp    29a6 <.L214+0x1d2>
    24bf:	8b 45 c8             	mov    eax,DWORD PTR [ebp-0x38]
    24c2:	8b 50 08             	mov    edx,DWORD PTR [eax+0x8]
    24c5:	8b 45 c8             	mov    eax,DWORD PTR [ebp-0x38]
    24c8:	8b 40 04             	mov    eax,DWORD PTR [eax+0x4]
    24cb:	83 ec 08             	sub    esp,0x8
    24ce:	52                   	push   edx
    24cf:	50                   	push   eax
    24d0:	e8 fc ff ff ff       	call   24d1 <main+0x903>
    24d5:	83 c4 10             	add    esp,0x10
    24d8:	85 c0                	test   eax,eax
    24da:	75 38                	jne    2514 <main+0x946>
    24dc:	8b 45 c8             	mov    eax,DWORD PTR [ebp-0x38]
    24df:	83 ec 08             	sub    esp,0x8
    24e2:	ff 75 d8             	push   DWORD PTR [ebp-0x28]
    24e5:	50                   	push   eax
    24e6:	e8 15 db ff ff       	call   0 <free_global_memory>
    24eb:	83 c4 10             	add    esp,0x10
    24ee:	8b 83 00 00 00 00    	mov    eax,DWORD PTR [ebx+0x0]
    24f4:	8b 00                	mov    eax,DWORD PTR [eax]
    24f6:	50                   	push   eax
    24f7:	6a 2a                	push   0x2a
    24f9:	6a 01                	push   0x1
    24fb:	8d 83 a8 06 00 00    	lea    eax,[ebx+0x6a8]
    2501:	50                   	push   eax
    2502:	e8 fc ff ff ff       	call   2503 <main+0x935>
    2507:	83 c4 10             	add    esp,0x10
    250a:	b8 01 00 00 00       	mov    eax,0x1
    250f:	e9 92 04 00 00       	jmp    29a6 <.L214+0x1d2>
    2514:	8b 45 c8             	mov    eax,DWORD PTR [ebp-0x38]
    2517:	8b 50 08             	mov    edx,DWORD PTR [eax+0x8]
    251a:	8b 45 c8             	mov    eax,DWORD PTR [ebp-0x38]
    251d:	8b 00                	mov    eax,DWORD PTR [eax]
    251f:	83 ec 08             	sub    esp,0x8
    2522:	52                   	push   edx
    2523:	50                   	push   eax
    2524:	e8 fc ff ff ff       	call   2525 <main+0x957>
    2529:	83 c4 10             	add    esp,0x10
    252c:	85 c0                	test   eax,eax
    252e:	75 38                	jne    2568 <main+0x99a>
    2530:	8b 45 c8             	mov    eax,DWORD PTR [ebp-0x38]
    2533:	83 ec 08             	sub    esp,0x8
    2536:	ff 75 d8             	push   DWORD PTR [ebp-0x28]
    2539:	50                   	push   eax
    253a:	e8 c1 da ff ff       	call   0 <free_global_memory>
    253f:	83 c4 10             	add    esp,0x10
    2542:	8b 83 00 00 00 00    	mov    eax,DWORD PTR [ebx+0x0]
    2548:	8b 00                	mov    eax,DWORD PTR [eax]
    254a:	50                   	push   eax
    254b:	6a 29                	push   0x29
    254d:	6a 01                	push   0x1
    254f:	8d 83 d4 06 00 00    	lea    eax,[ebx+0x6d4]
    2555:	50                   	push   eax
    2556:	e8 fc ff ff ff       	call   2557 <main+0x989>
    255b:	83 c4 10             	add    esp,0x10
    255e:	b8 01 00 00 00       	mov    eax,0x1
    2563:	e9 3e 04 00 00       	jmp    29a6 <.L214+0x1d2>
    2568:	8b 45 c8             	mov    eax,DWORD PTR [ebp-0x38]
    256b:	8b 50 24             	mov    edx,DWORD PTR [eax+0x24]
    256e:	8b 45 c8             	mov    eax,DWORD PTR [ebp-0x38]
    2571:	c1 ea 03             	shr    edx,0x3
    2574:	89 50 24             	mov    DWORD PTR [eax+0x24],edx
    2577:	8b 45 c8             	mov    eax,DWORD PTR [ebp-0x38]
    257a:	8b 40 24             	mov    eax,DWORD PTR [eax+0x24]
    257d:	8b 75 c8             	mov    esi,DWORD PTR [ebp-0x38]
    2580:	83 ec 08             	sub    esp,0x8
    2583:	6a 01                	push   0x1
    2585:	50                   	push   eax
    2586:	e8 fc ff ff ff       	call   2587 <main+0x9b9>
    258b:	83 c4 10             	add    esp,0x10
    258e:	89 46 20             	mov    DWORD PTR [esi+0x20],eax
    2591:	8b 45 c8             	mov    eax,DWORD PTR [ebp-0x38]
    2594:	8b 40 20             	mov    eax,DWORD PTR [eax+0x20]
    2597:	85 c0                	test   eax,eax
    2599:	75 38                	jne    25d3 <main+0xa05>
    259b:	8b 45 c8             	mov    eax,DWORD PTR [ebp-0x38]
    259e:	83 ec 08             	sub    esp,0x8
    25a1:	ff 75 d8             	push   DWORD PTR [ebp-0x28]
    25a4:	50                   	push   eax
    25a5:	e8 56 da ff ff       	call   0 <free_global_memory>
    25aa:	83 c4 10             	add    esp,0x10
    25ad:	8b 83 00 00 00 00    	mov    eax,DWORD PTR [ebx+0x0]
    25b3:	8b 00                	mov    eax,DWORD PTR [eax]
    25b5:	50                   	push   eax
    25b6:	6a 1c                	push   0x1c
    25b8:	6a 01                	push   0x1
    25ba:	8d 83 c2 00 00 00    	lea    eax,[ebx+0xc2]
    25c0:	50                   	push   eax
    25c1:	e8 fc ff ff ff       	call   25c2 <main+0x9f4>
    25c6:	83 c4 10             	add    esp,0x10
    25c9:	b8 01 00 00 00       	mov    eax,0x1
    25ce:	e9 d3 03 00 00       	jmp    29a6 <.L214+0x1d2>
    25d3:	8b 45 c8             	mov    eax,DWORD PTR [ebp-0x38]
    25d6:	8b 48 24             	mov    ecx,DWORD PTR [eax+0x24]
    25d9:	8b 45 c8             	mov    eax,DWORD PTR [ebp-0x38]
    25dc:	8b 50 20             	mov    edx,DWORD PTR [eax+0x20]
    25df:	8b 45 c8             	mov    eax,DWORD PTR [ebp-0x38]
    25e2:	8b 40 08             	mov    eax,DWORD PTR [eax+0x8]
    25e5:	83 ec 04             	sub    esp,0x4
    25e8:	51                   	push   ecx
    25e9:	52                   	push   edx
    25ea:	50                   	push   eax
    25eb:	e8 fc ff ff ff       	call   25ec <main+0xa1e>
    25f0:	83 c4 10             	add    esp,0x10
    25f3:	89 45 d0             	mov    DWORD PTR [ebp-0x30],eax
    25f6:	8b 45 c8             	mov    eax,DWORD PTR [ebp-0x38]
    25f9:	8b 40 24             	mov    eax,DWORD PTR [eax+0x24]
    25fc:	39 45 d0             	cmp    DWORD PTR [ebp-0x30],eax
    25ff:	75 1e                	jne    261f <main+0xa51>
    2601:	8b 45 c8             	mov    eax,DWORD PTR [ebp-0x38]
    2604:	8b 40 08             	mov    eax,DWORD PTR [eax+0x8]
    2607:	83 ec 08             	sub    esp,0x8
    260a:	50                   	push   eax
    260b:	8d 83 00 07 00 00    	lea    eax,[ebx+0x700]
    2611:	50                   	push   eax
    2612:	e8 fc ff ff ff       	call   2613 <main+0xa45>
    2617:	83 c4 10             	add    esp,0x10
    261a:	e9 27 01 00 00       	jmp    2746 <main+0xb78>
    261f:	83 7d d0 00          	cmp    DWORD PTR [ebp-0x30],0x0
    2623:	7e 43                	jle    2668 <main+0xa9a>
    2625:	8b 45 c8             	mov    eax,DWORD PTR [ebp-0x38]
    2628:	8b 40 24             	mov    eax,DWORD PTR [eax+0x24]
    262b:	39 45 d0             	cmp    DWORD PTR [ebp-0x30],eax
    262e:	7d 38                	jge    2668 <main+0xa9a>
    2630:	8b 45 c8             	mov    eax,DWORD PTR [ebp-0x38]
    2633:	8b 40 24             	mov    eax,DWORD PTR [eax+0x24]
    2636:	83 ec 04             	sub    esp,0x4
    2639:	50                   	push   eax
    263a:	ff 75 d0             	push   DWORD PTR [ebp-0x30]
    263d:	8d 83 24 07 00 00    	lea    eax,[ebx+0x724]
    2643:	50                   	push   eax
    2644:	e8 fc ff ff ff       	call   2645 <main+0xa77>
    2649:	83 c4 10             	add    esp,0x10
    264c:	8b 45 c8             	mov    eax,DWORD PTR [ebp-0x38]
    264f:	83 ec 08             	sub    esp,0x8
    2652:	ff 75 d8             	push   DWORD PTR [ebp-0x28]
    2655:	50                   	push   eax
    2656:	e8 a5 d9 ff ff       	call   0 <free_global_memory>
    265b:	83 c4 10             	add    esp,0x10
    265e:	b8 01 00 00 00       	mov    eax,0x1
    2663:	e9 3e 03 00 00       	jmp    29a6 <.L214+0x1d2>
    2668:	83 7d d0 00          	cmp    DWORD PTR [ebp-0x30],0x0
    266c:	74 0a                	je     2678 <main+0xaaa>
    266e:	83 7d d0 ff          	cmp    DWORD PTR [ebp-0x30],0xffffffff
    2672:	0f 85 ce 00 00 00    	jne    2746 <main+0xb78>
    2678:	8b 45 c8             	mov    eax,DWORD PTR [ebp-0x38]
    267b:	8b 40 08             	mov    eax,DWORD PTR [eax+0x8]
    267e:	83 ec 08             	sub    esp,0x8
    2681:	68 00 01 00 00       	push   0x100
    2686:	50                   	push   eax
    2687:	e8 fc ff ff ff       	call   2688 <main+0xaba>
    268c:	83 c4 10             	add    esp,0x10
    268f:	89 45 d0             	mov    DWORD PTR [ebp-0x30],eax
    2692:	83 7d d0 07          	cmp    DWORD PTR [ebp-0x30],0x7
    2696:	7e 74                	jle    270c <main+0xb3e>
    2698:	81 7d d0 00 01 00 00 	cmp    DWORD PTR [ebp-0x30],0x100
    269f:	7f 6b                	jg     270c <main+0xb3e>
    26a1:	8b 45 c8             	mov    eax,DWORD PTR [ebp-0x38]
    26a4:	8b 78 24             	mov    edi,DWORD PTR [eax+0x24]
    26a7:	8b 45 c8             	mov    eax,DWORD PTR [ebp-0x38]
    26aa:	8b 70 20             	mov    esi,DWORD PTR [eax+0x20]
    26ad:	8b 4d d0             	mov    ecx,DWORD PTR [ebp-0x30]
    26b0:	8b 45 c8             	mov    eax,DWORD PTR [ebp-0x38]
    26b3:	8b 50 08             	mov    edx,DWORD PTR [eax+0x8]
    26b6:	8b 45 c8             	mov    eax,DWORD PTR [ebp-0x38]
    26b9:	83 ec 0c             	sub    esp,0xc
    26bc:	57                   	push   edi
    26bd:	56                   	push   esi
    26be:	51                   	push   ecx
    26bf:	52                   	push   edx
    26c0:	50                   	push   eax
    26c1:	e8 80 de ff ff       	call   546 <KDFCLOMUL>
    26c6:	83 c4 20             	add    esp,0x20
    26c9:	8b 45 c8             	mov    eax,DWORD PTR [ebp-0x38]
    26cc:	8b 50 0c             	mov    edx,DWORD PTR [eax+0xc]
    26cf:	8b 45 c8             	mov    eax,DWORD PTR [ebp-0x38]
    26d2:	8b 40 08             	mov    eax,DWORD PTR [eax+0x8]
    26d5:	83 ec 04             	sub    esp,0x4
    26d8:	52                   	push   edx
    26d9:	6a 00                	push   0x0
    26db:	50                   	push   eax
    26dc:	e8 fc ff ff ff       	call   26dd <main+0xb0f>
    26e1:	83 c4 10             	add    esp,0x10
    26e4:	8b 45 c8             	mov    eax,DWORD PTR [ebp-0x38]
    26e7:	c7 40 08 00 00 00 00 	mov    DWORD PTR [eax+0x8],0x0
    26ee:	8b 45 c8             	mov    eax,DWORD PTR [ebp-0x38]
    26f1:	c7 40 0c 00 00 00 00 	mov    DWORD PTR [eax+0xc],0x0
    26f8:	83 ec 0c             	sub    esp,0xc
    26fb:	8d 83 58 07 00 00    	lea    eax,[ebx+0x758]
    2701:	50                   	push   eax
    2702:	e8 fc ff ff ff       	call   2703 <main+0xb35>
    2707:	83 c4 10             	add    esp,0x10
    270a:	eb 3a                	jmp    2746 <main+0xb78>
    270c:	8b 45 c8             	mov    eax,DWORD PTR [ebp-0x38]
    270f:	83 ec 08             	sub    esp,0x8
    2712:	ff 75 d8             	push   DWORD PTR [ebp-0x28]
    2715:	50                   	push   eax
    2716:	e8 e5 d8 ff ff       	call   0 <free_global_memory>
    271b:	83 c4 10             	add    esp,0x10
    271e:	8b 83 00 00 00 00    	mov    eax,DWORD PTR [ebx+0x0]
    2724:	8b 00                	mov    eax,DWORD PTR [eax]
    2726:	83 ec 04             	sub    esp,0x4
    2729:	ff 75 d0             	push   DWORD PTR [ebp-0x30]
    272c:	8d 93 80 07 00 00    	lea    edx,[ebx+0x780]
    2732:	52                   	push   edx
    2733:	50                   	push   eax
    2734:	e8 fc ff ff ff       	call   2735 <main+0xb67>
    2739:	83 c4 10             	add    esp,0x10
    273c:	b8 01 00 00 00       	mov    eax,0x1
    2741:	e9 60 02 00 00       	jmp    29a6 <.L214+0x1d2>
    2746:	8b 45 c8             	mov    eax,DWORD PTR [ebp-0x38]
    2749:	8b 40 24             	mov    eax,DWORD PTR [eax+0x24]
    274c:	c1 e0 03             	shl    eax,0x3
    274f:	83 ec 08             	sub    esp,0x8
    2752:	50                   	push   eax
    2753:	8d 83 b8 07 00 00    	lea    eax,[ebx+0x7b8]
    2759:	50                   	push   eax
    275a:	e8 fc ff ff ff       	call   275b <main+0xb8d>
    275f:	83 c4 10             	add    esp,0x10
    2762:	8b 45 c8             	mov    eax,DWORD PTR [ebp-0x38]
    2765:	8b 80 48 00 00 01    	mov    eax,DWORD PTR [eax+0x1000048]
    276b:	83 f8 04             	cmp    eax,0x4
    276e:	77 78                	ja     27e8 <.L214+0x14>
    2770:	c1 e0 02             	shl    eax,0x2
    2773:	8b 84 18 24 08 00 00 	mov    eax,DWORD PTR [eax+ebx*1+0x824]
    277a:	01 d8                	add    eax,ebx
    277c:	ff e0                	jmp    eax

0000277e <.L219>:
    277e:	8b 45 c8             	mov    eax,DWORD PTR [ebp-0x38]
    2781:	c7 40 1c 10 00 00 00 	mov    DWORD PTR [eax+0x1c],0x10
    2788:	8b 83 00 00 00 00    	mov    eax,DWORD PTR [ebx+0x0]
    278e:	8b 00                	mov    eax,DWORD PTR [eax]
    2790:	83 c0 01             	add    eax,0x1
    2793:	c1 e0 04             	shl    eax,0x4
    2796:	89 45 e0             	mov    DWORD PTR [ebp-0x20],eax
    2799:	eb 4d                	jmp    27e8 <.L214+0x14>

0000279b <.L218>:
    279b:	8b 45 c8             	mov    eax,DWORD PTR [ebp-0x38]
    279e:	c7 40 1c 10 00 00 00 	mov    DWORD PTR [eax+0x1c],0x10
    27a5:	c7 45 e0 54 06 00 00 	mov    DWORD PTR [ebp-0x20],0x654
    27ac:	eb 3a                	jmp    27e8 <.L214+0x14>

000027ae <.L217>:
    27ae:	8b 45 c8             	mov    eax,DWORD PTR [ebp-0x38]
    27b1:	c7 40 1c 10 00 00 00 	mov    DWORD PTR [eax+0x1c],0x10
    27b8:	c7 45 e0 a4 10 00 00 	mov    DWORD PTR [ebp-0x20],0x10a4
    27bf:	eb 27                	jmp    27e8 <.L214+0x14>

000027c1 <.L216>:
    27c1:	8b 45 c8             	mov    eax,DWORD PTR [ebp-0x38]
    27c4:	c7 40 1c 08 00 00 00 	mov    DWORD PTR [eax+0x1c],0x8
    27cb:	c7 45 e0 48 10 00 00 	mov    DWORD PTR [ebp-0x20],0x1048
    27d2:	eb 14                	jmp    27e8 <.L214+0x14>

000027d4 <.L214>:
    27d4:	8b 55 c8             	mov    edx,DWORD PTR [ebp-0x38]
    27d7:	8b 45 c8             	mov    eax,DWORD PTR [ebp-0x38]
    27da:	8b 52 24             	mov    edx,DWORD PTR [edx+0x24]
    27dd:	89 50 1c             	mov    DWORD PTR [eax+0x1c],edx
    27e0:	c7 45 e0 a8 00 00 00 	mov    DWORD PTR [ebp-0x20],0xa8
    27e7:	90                   	nop
    27e8:	8b 45 c8             	mov    eax,DWORD PTR [ebp-0x38]
    27eb:	8b 40 1c             	mov    eax,DWORD PTR [eax+0x1c]
    27ee:	8b 75 c8             	mov    esi,DWORD PTR [ebp-0x38]
    27f1:	83 ec 08             	sub    esp,0x8
    27f4:	6a 01                	push   0x1
    27f6:	50                   	push   eax
    27f7:	e8 fc ff ff ff       	call   27f8 <.L214+0x24>
    27fc:	83 c4 10             	add    esp,0x10
    27ff:	89 46 18             	mov    DWORD PTR [esi+0x18],eax
    2802:	8b 45 c8             	mov    eax,DWORD PTR [ebp-0x38]
    2805:	8b 40 18             	mov    eax,DWORD PTR [eax+0x18]
    2808:	85 c0                	test   eax,eax
    280a:	75 38                	jne    2844 <.L214+0x70>
    280c:	8b 45 c8             	mov    eax,DWORD PTR [ebp-0x38]
    280f:	83 ec 08             	sub    esp,0x8
    2812:	ff 75 d8             	push   DWORD PTR [ebp-0x28]
    2815:	50                   	push   eax
    2816:	e8 e5 d7 ff ff       	call   0 <free_global_memory>
    281b:	83 c4 10             	add    esp,0x10
    281e:	8b 83 00 00 00 00    	mov    eax,DWORD PTR [ebx+0x0]
    2824:	8b 00                	mov    eax,DWORD PTR [eax]
    2826:	50                   	push   eax
    2827:	6a 1c                	push   0x1c
    2829:	6a 01                	push   0x1
    282b:	8d 83 c2 00 00 00    	lea    eax,[ebx+0xc2]
    2831:	50                   	push   eax
    2832:	e8 fc ff ff ff       	call   2833 <.L214+0x5f>
    2837:	83 c4 10             	add    esp,0x10
    283a:	b8 01 00 00 00       	mov    eax,0x1
    283f:	e9 62 01 00 00       	jmp    29a6 <.L214+0x1d2>
    2844:	8b 45 c8             	mov    eax,DWORD PTR [ebp-0x38]
    2847:	8b 80 44 00 00 01    	mov    eax,DWORD PTR [eax+0x1000044]
    284d:	85 c0                	test   eax,eax
    284f:	75 42                	jne    2893 <.L214+0xbf>
    2851:	83 ec 08             	sub    esp,0x8
    2854:	6a ff                	push   0xffffffff
    2856:	6a 00                	push   0x0
    2858:	e8 fc ff ff ff       	call   2859 <.L214+0x85>
    285d:	83 c4 10             	add    esp,0x10
    2860:	89 c2                	mov    edx,eax
    2862:	8b 45 dc             	mov    eax,DWORD PTR [ebp-0x24]
    2865:	8d 0c 02             	lea    ecx,[edx+eax*1]
    2868:	8b 45 c8             	mov    eax,DWORD PTR [ebp-0x38]
    286b:	8b 40 18             	mov    eax,DWORD PTR [eax+0x18]
    286e:	8b 10                	mov    edx,DWORD PTR [eax]
    2870:	8b 45 c8             	mov    eax,DWORD PTR [ebp-0x38]
    2873:	8b 40 18             	mov    eax,DWORD PTR [eax+0x18]
    2876:	31 ca                	xor    edx,ecx
    2878:	89 10                	mov    DWORD PTR [eax],edx
    287a:	8b 45 c8             	mov    eax,DWORD PTR [ebp-0x38]
    287d:	8b 50 1c             	mov    edx,DWORD PTR [eax+0x1c]
    2880:	8b 45 c8             	mov    eax,DWORD PTR [ebp-0x38]
    2883:	8b 40 18             	mov    eax,DWORD PTR [eax+0x18]
    2886:	83 ec 08             	sub    esp,0x8
    2889:	52                   	push   edx
    288a:	50                   	push   eax
    288b:	e8 fc ff ff ff       	call   288c <.L214+0xb8>
    2890:	83 c4 10             	add    esp,0x10
    2893:	8b 45 c8             	mov    eax,DWORD PTR [ebp-0x38]
    2896:	83 ec 08             	sub    esp,0x8
    2899:	ff 75 e0             	push   DWORD PTR [ebp-0x20]
    289c:	50                   	push   eax
    289d:	e8 2f ed ff ff       	call   15d1 <cipher_init_memory>
    28a2:	83 c4 10             	add    esp,0x10
    28a5:	89 45 cc             	mov    DWORD PTR [ebp-0x34],eax
    28a8:	83 7d cc 00          	cmp    DWORD PTR [ebp-0x34],0x0
    28ac:	75 38                	jne    28e6 <.L214+0x112>
    28ae:	8b 45 c8             	mov    eax,DWORD PTR [ebp-0x38]
    28b1:	83 ec 08             	sub    esp,0x8
    28b4:	ff 75 d8             	push   DWORD PTR [ebp-0x28]
    28b7:	50                   	push   eax
    28b8:	e8 43 d7 ff ff       	call   0 <free_global_memory>
    28bd:	83 c4 10             	add    esp,0x10
    28c0:	8b 83 00 00 00 00    	mov    eax,DWORD PTR [ebx+0x0]
    28c6:	8b 00                	mov    eax,DWORD PTR [eax]
    28c8:	50                   	push   eax
    28c9:	6a 1c                	push   0x1c
    28cb:	6a 01                	push   0x1
    28cd:	8d 83 c2 00 00 00    	lea    eax,[ebx+0xc2]
    28d3:	50                   	push   eax
    28d4:	e8 fc ff ff ff       	call   28d5 <.L214+0x101>
    28d9:	83 c4 10             	add    esp,0x10
    28dc:	b8 01 00 00 00       	mov    eax,0x1
    28e1:	e9 c0 00 00 00       	jmp    29a6 <.L214+0x1d2>
    28e6:	8b 45 c8             	mov    eax,DWORD PTR [ebp-0x38]
    28e9:	8b 80 48 00 00 01    	mov    eax,DWORD PTR [eax+0x1000048]
    28ef:	8b 84 83 30 00 00 00 	mov    eax,DWORD PTR [ebx+eax*4+0x30]
    28f6:	83 ec 08             	sub    esp,0x8
    28f9:	50                   	push   eax
    28fa:	8d 83 dd 07 00 00    	lea    eax,[ebx+0x7dd]
    2900:	50                   	push   eax
    2901:	e8 fc ff ff ff       	call   2902 <.L214+0x12e>
    2906:	83 c4 10             	add    esp,0x10
    2909:	8b 45 c8             	mov    eax,DWORD PTR [ebp-0x38]
    290c:	8b 30                	mov    esi,DWORD PTR [eax]
    290e:	8b 45 c8             	mov    eax,DWORD PTR [ebp-0x38]
    2911:	8b 80 44 00 00 01    	mov    eax,DWORD PTR [eax+0x1000044]
    2917:	83 ec 0c             	sub    esp,0xc
    291a:	50                   	push   eax
    291b:	e8 5b dd ff ff       	call   67b <operation_variant>
    2920:	83 c4 10             	add    esp,0x10
    2923:	8b 84 83 28 00 00 00 	mov    eax,DWORD PTR [ebx+eax*4+0x28]
    292a:	83 ec 04             	sub    esp,0x4
    292d:	56                   	push   esi
    292e:	50                   	push   eax
    292f:	8d 83 fc 07 00 00    	lea    eax,[ebx+0x7fc]
    2935:	50                   	push   eax
    2936:	e8 fc ff ff ff       	call   2937 <.L214+0x163>
    293b:	83 c4 10             	add    esp,0x10
    293e:	8b 45 c8             	mov    eax,DWORD PTR [ebp-0x38]
    2941:	83 ec 0c             	sub    esp,0xc
    2944:	50                   	push   eax
    2945:	e8 2d e2 ff ff       	call   b77 <filecrypt>
    294a:	83 c4 10             	add    esp,0x10
    294d:	89 45 d4             	mov    DWORD PTR [ebp-0x2c],eax
    2950:	8b 45 c8             	mov    eax,DWORD PTR [ebp-0x38]
    2953:	83 ec 08             	sub    esp,0x8
    2956:	ff 75 d4             	push   DWORD PTR [ebp-0x2c]
    2959:	50                   	push   eax
    295a:	e8 fc ff ff ff       	call   295b <.L214+0x187>
    295f:	83 c4 10             	add    esp,0x10
    2962:	83 ec 08             	sub    esp,0x8
    2965:	ff 75 e0             	push   DWORD PTR [ebp-0x20]
    2968:	ff 75 cc             	push   DWORD PTR [ebp-0x34]
    296b:	e8 a9 dd ff ff       	call   719 <cipher_free>
    2970:	83 c4 10             	add    esp,0x10
    2973:	8b 45 c8             	mov    eax,DWORD PTR [ebp-0x38]
    2976:	83 ec 08             	sub    esp,0x8
    2979:	ff 75 d8             	push   DWORD PTR [ebp-0x28]
    297c:	50                   	push   eax
    297d:	e8 7e d6 ff ff       	call   0 <free_global_memory>
    2982:	83 c4 10             	add    esp,0x10
    2985:	c7 45 cc 00 00 00 00 	mov    DWORD PTR [ebp-0x34],0x0
    298c:	c7 45 c8 00 00 00 00 	mov    DWORD PTR [ebp-0x38],0x0
    2993:	c7 45 e0 00 00 00 00 	mov    DWORD PTR [ebp-0x20],0x0
    299a:	c7 45 d8 00 00 00 00 	mov    DWORD PTR [ebp-0x28],0x0
    29a1:	b8 00 00 00 00       	mov    eax,0x0
    29a6:	8d 65 f0             	lea    esp,[ebp-0x10]
    29a9:	59                   	pop    ecx
    29aa:	5b                   	pop    ebx
    29ab:	5e                   	pop    esi
    29ac:	5f                   	pop    edi
    29ad:	5d                   	pop    ebp
    29ae:	8d 61 fc             	lea    esp,[ecx-0x4]
    29b1:	c3                   	ret    

Дизассемблирование раздела .bss:

00000000 <rijndael_ctx>:
   0:	00 00                	add    BYTE PTR [eax],al
	...

00000004 <serpent_ctx>:
   4:	00 00                	add    BYTE PTR [eax],al
	...

00000008 <twofish_ctx>:
   8:	00 00                	add    BYTE PTR [eax],al
	...

0000000c <blowfish_ctx>:
   c:	00 00                	add    BYTE PTR [eax],al
	...

00000010 <threefish_ctx>:
  10:	00 00                	add    BYTE PTR [eax],al
	...

Дизассемблирование раздела .rodata:

00000000 <INT_SIZE_DATA-0x40>:
   0:	72 62                	jb     64 <INT_SIZE_DATA+0x24>
   2:	00 77 62             	add    BYTE PTR [edi+0x62],dh
   5:	00 00                	add    BYTE PTR [eax],al
   7:	00 50 6c             	add    BYTE PTR [eax+0x6c],dl
   a:	65 78 75             	gs js  82 <INT_SIZE_DATA+0x42>
   d:	73 54                	jae    63 <INT_SIZE_DATA+0x23>
   f:	43                   	inc    ebx
  10:	4c                   	dec    esp
  11:	20 43 6f             	and    BYTE PTR [ebx+0x6f],al
  14:	6e                   	outs   dx,BYTE PTR ds:[esi]
  15:	73 6f                	jae    86 <INT_SIZE_DATA+0x46>
  17:	6c                   	ins    BYTE PTR es:[edi],dx
  18:	65 20 43 72          	and    BYTE PTR gs:[ebx+0x72],al
  1c:	79 70                	jns    8e <INT_SIZE_DATA+0x4e>
  1e:	74 65                	je     85 <INT_SIZE_DATA+0x45>
  20:	72 20                	jb     42 <INT_SIZE_DATA+0x2>
  22:	35 2e 31 30 20       	xor    eax,0x2030312e
  27:	32 39                	xor    bh,BYTE PTR [ecx]
  29:	4a                   	dec    edx
  2a:	55                   	push   ebp
  2b:	4c                   	dec    esp
  2c:	32 34 20             	xor    dh,BYTE PTR [eax+eiz*1]
  2f:	5b                   	pop    ebx
  30:	45                   	inc    ebp
  31:	4e                   	dec    esi
  32:	5d                   	pop    ebp
	...

00000040 <INT_SIZE_DATA>:
  40:	00 04 00             	add    BYTE PTR [eax+eax*1],al
  43:	00 00                	add    BYTE PTR [eax],al
  45:	00 00                	add    BYTE PTR [eax],al
  47:	00 00                	add    BYTE PTR [eax],al
  49:	00 10                	add    BYTE PTR [eax],dl
	...
  53:	40                   	inc    eax
	...
  5c:	00 01                	add    BYTE PTR [ecx],al
	...
  66:	04 00                	add    al,0x0
  68:	00 00                	add    BYTE PTR [eax],al
  6a:	00 00                	add    BYTE PTR [eax],al
  6c:	00 00                	add    BYTE PTR [eax],al
  6e:	00 10                	add    BYTE PTR [eax],dl
  70:	42                   	inc    edx
  71:	74 00                	je     73 <INT_SIZE_DATA+0x33>
  73:	4b                   	dec    ebx
  74:	69 42 00 4d 69 42 00 	imul   eax,DWORD PTR [edx+0x0],0x42694d
  7b:	47                   	inc    edi
  7c:	69 42 00 54 69 42 00 	imul   eax,DWORD PTR [edx+0x0],0x426954
  83:	50                   	push   eax
  84:	69 42 00 45 69 42 00 	imul   eax,DWORD PTR [edx+0x0],0x426945
  8b:	45                   	inc    ebp
  8c:	6e                   	outs   dx,BYTE PTR ds:[esi]
  8d:	63 72 79             	arpl   WORD PTR [edx+0x79],si
  90:	70 74                	jo     106 <INT_SIZE_DATA+0xc6>
  92:	00 44 65 63          	add    BYTE PTR [ebp+eiz*2+0x63],al
  96:	72 79                	jb     111 <INT_SIZE_DATA+0xd1>
  98:	70 74                	jo     10e <INT_SIZE_DATA+0xce>
  9a:	00 41 45             	add    BYTE PTR [ecx+0x45],al
  9d:	53                   	push   ebx
  9e:	00 53 45             	add    BYTE PTR [ebx+0x45],dl
  a1:	52                   	push   edx
  a2:	50                   	push   eax
  a3:	45                   	inc    ebp
  a4:	4e                   	dec    esi
  a5:	54                   	push   esp
  a6:	00 54 57 4f          	add    BYTE PTR [edi+edx*2+0x4f],dl
  aa:	46                   	inc    esi
  ab:	49                   	dec    ecx
  ac:	53                   	push   ebx
  ad:	48                   	dec    eax
  ae:	00 42 4c             	add    BYTE PTR [edx+0x4c],al
  b1:	4f                   	dec    edi
  b2:	57                   	push   edi
  b3:	46                   	inc    esi
  b4:	49                   	dec    ecx
  b5:	53                   	push   ebx
  b6:	48                   	dec    eax
  b7:	00 54 48 52          	add    BYTE PTR [eax+ecx*2+0x52],dl
  bb:	45                   	inc    ebp
  bc:	45                   	inc    ebp
  bd:	46                   	inc    esi
  be:	49                   	dec    ecx
  bf:	53                   	push   ebx
  c0:	48                   	dec    eax
  c1:	00 5b 21             	add    BYTE PTR [ebx+0x21],bl
  c4:	5d                   	pop    ebp
  c5:	20 43 61             	and    BYTE PTR [ebx+0x61],al
  c8:	6e                   	outs   dx,BYTE PTR ds:[esi]
  c9:	6e                   	outs   dx,BYTE PTR ds:[esi]
  ca:	6f                   	outs   dx,DWORD PTR ds:[esi]
  cb:	74 20                	je     ed <INT_SIZE_DATA+0xad>
  cd:	61                   	popa   
  ce:	6c                   	ins    BYTE PTR es:[edi],dx
  cf:	6c                   	ins    BYTE PTR es:[edi],dx
  d0:	6f                   	outs   dx,DWORD PTR ds:[esi]
  d1:	63 61 74             	arpl   WORD PTR [ecx+0x74],sp
  d4:	65 20 6d 65          	and    BYTE PTR gs:[ebp+0x65],ch
  d8:	6d                   	ins    DWORD PTR es:[edi],dx
  d9:	6f                   	outs   dx,DWORD PTR ds:[esi]
  da:	72 79                	jb     155 <INT_SIZE_DATA+0x115>
  dc:	21 0a                	and    DWORD PTR [edx],ecx
  de:	00 00                	add    BYTE PTR [eax],al
  e0:	0d 20 3e 20 20       	or     eax,0x20203e20
  e5:	25 73 20 5b 25       	and    eax,0x255b2073
  ea:	73 5d                	jae    149 <INT_SIZE_DATA+0x109>
  ec:	20 28                	and    BYTE PTR [eax],ch
  ee:	25 34 2e 32 66       	and    eax,0x66322e34
  f3:	20 25 73 2f 25 34    	and    BYTE PTR ds:0x34252f73,ah
  f9:	2e 32 66 20          	xor    ah,BYTE PTR cs:[esi+0x20]
  fd:	25 73 29 20 25       	and    eax,0x25202973
 102:	33 64 20 25          	xor    esp,DWORD PTR [eax+eiz*1+0x25]
 106:	25 20 20 00 00       	and    eax,0x2020
 10b:	00 5b 21             	add    BYTE PTR [ebx+0x21],bl
 10e:	5d                   	pop    ebp
 10f:	20 57 41             	and    BYTE PTR [edi+0x41],dl
 112:	52                   	push   edx
 113:	4e                   	dec    esi
 114:	49                   	dec    ecx
 115:	4e                   	dec    esi
 116:	47                   	inc    edi
 117:	3a 20                	cmp    ah,BYTE PTR [eax]
 119:	43                   	inc    ebx
 11a:	6f                   	outs   dx,DWORD PTR ds:[esi]
 11b:	6e                   	outs   dx,BYTE PTR ds:[esi]
 11c:	74 72                	je     190 <INT_SIZE_DATA+0x150>
 11e:	6f                   	outs   dx,DWORD PTR ds:[esi]
 11f:	6c                   	ins    BYTE PTR es:[edi],dx
 120:	20 73 75             	and    BYTE PTR [ebx+0x75],dh
 123:	6d                   	ins    DWORD PTR es:[edi],dx
 124:	20 66 69             	and    BYTE PTR [esi+0x69],ah
 127:	6c                   	ins    BYTE PTR es:[edi],dx
 128:	65 20 22             	and    BYTE PTR gs:[edx],ah
 12b:	25 73 22 20 6e       	and    eax,0x6e202273
 130:	6f                   	outs   dx,DWORD PTR ds:[esi]
 131:	74 20                	je     153 <INT_SIZE_DATA+0x113>
 133:	63 6f 72             	arpl   WORD PTR [edi+0x72],bp
 136:	72 65                	jb     19d <INT_SIZE_DATA+0x15d>
 138:	63 74 21 0a          	arpl   WORD PTR [ecx+eiz*1+0xa],si
 13c:	00 00                	add    BYTE PTR [eax],al
 13e:	00 00                	add    BYTE PTR [eax],al
 140:	5b                   	pop    ebx
 141:	23 5d 20             	and    ebx,DWORD PTR [ebp+0x20]
 144:	43                   	inc    ebx
 145:	6f                   	outs   dx,DWORD PTR ds:[esi]
 146:	6e                   	outs   dx,BYTE PTR ds:[esi]
 147:	74 72                	je     1bb <INT_SIZE_DATA+0x17b>
 149:	6f                   	outs   dx,DWORD PTR ds:[esi]
 14a:	6c                   	ins    BYTE PTR es:[edi],dx
 14b:	20 73 75             	and    BYTE PTR [ebx+0x75],dh
 14e:	6d                   	ins    DWORD PTR es:[edi],dx
 14f:	20 66 69             	and    BYTE PTR [esi+0x69],ah
 152:	6c                   	ins    BYTE PTR es:[edi],dx
 153:	65 20 22             	and    BYTE PTR gs:[edx],ah
 156:	25 73 22 20 63       	and    eax,0x63202273
 15b:	68 65 63 6b 21       	push   0x216b6365
 160:	20 3a                	and    BYTE PTR [edx],bh
 162:	29 0a                	sub    DWORD PTR [edx],ecx
	...
 190:	2f                   	das    
 191:	64 65 76 2f          	fs gs jbe 1c4 <INT_SIZE_DATA+0x184>
 195:	75 72                	jne    209 <INT_SIZE_DATA+0x1c9>
 197:	61                   	popa   
 198:	6e                   	outs   dx,BYTE PTR ds:[esi]
 199:	64 6f                	outs   dx,DWORD PTR fs:[esi]
 19b:	6d                   	ins    DWORD PTR es:[edi],dx
 19c:	00 00                	add    BYTE PTR [eax],al
 19e:	00 00                	add    BYTE PTR [eax],al
 1a0:	5b                   	pop    ebx
 1a1:	21 5d 20             	and    DWORD PTR [ebp+0x20],ebx
 1a4:	44                   	inc    esp
 1a5:	65 76 69             	gs jbe 211 <INT_SIZE_DATA+0x1d1>
 1a8:	63 65 20             	arpl   WORD PTR [ebp+0x20],sp
 1ab:	22 2f                	and    ch,BYTE PTR [edi]
 1ad:	64 65 76 2f          	fs gs jbe 1e0 <INT_SIZE_DATA+0x1a0>
 1b1:	75 72                	jne    225 <INT_SIZE_DATA+0x1e5>
 1b3:	61                   	popa   
 1b4:	6e                   	outs   dx,BYTE PTR ds:[esi]
 1b5:	64 6f                	outs   dx,DWORD PTR fs:[esi]
 1b7:	6d                   	ins    DWORD PTR es:[edi],dx
 1b8:	22 20                	and    ah,BYTE PTR [eax]
 1ba:	6e                   	outs   dx,BYTE PTR ds:[esi]
 1bb:	6f                   	outs   dx,DWORD PTR ds:[esi]
 1bc:	74 20                	je     1de <INT_SIZE_DATA+0x19e>
 1be:	6f                   	outs   dx,DWORD PTR ds:[esi]
 1bf:	70 65                	jo     226 <INT_SIZE_DATA+0x1e6>
 1c1:	6e                   	outs   dx,BYTE PTR ds:[esi]
 1c2:	6e                   	outs   dx,BYTE PTR ds:[esi]
 1c3:	65 64 21 0a          	gs and DWORD PTR fs:[edx],ecx
	...
 1db:	00 5b 23             	add    BYTE PTR [ebx+0x23],bl
 1de:	5d                   	pop    ebp
 1df:	20 25 73 20 66 69    	and    BYTE PTR ds:0x69662073,ah
 1e5:	6c                   	ins    BYTE PTR es:[edi],dx
 1e6:	65 20 22             	and    BYTE PTR gs:[edx],ah
 1e9:	25 73 22 20 63       	and    eax,0x63202273
 1ee:	6f                   	outs   dx,DWORD PTR ds:[esi]
 1ef:	6d                   	ins    DWORD PTR es:[edi],dx
 1f0:	70 6c                	jo     25e <INT_SIZE_DATA+0x21e>
 1f2:	65 74 65             	gs je  25a <INT_SIZE_DATA+0x21a>
 1f5:	21 0a                	and    DWORD PTR [edx],ecx
 1f7:	00 5b 21             	add    BYTE PTR [ebx+0x21],bl
 1fa:	5d                   	pop    ebp
 1fb:	20 46 69             	and    BYTE PTR [esi+0x69],al
 1fe:	6c                   	ins    BYTE PTR es:[edi],dx
 1ff:	65 20 66 6f          	and    BYTE PTR gs:[esi+0x6f],ah
 203:	72 20                	jb     225 <INT_SIZE_DATA+0x1e5>
 205:	25 73 20 22 25       	and    eax,0x25222073
 20a:	73 22                	jae    22e <INT_SIZE_DATA+0x1ee>
 20c:	20 6e 6f             	and    BYTE PTR [esi+0x6f],ch
 20f:	74 20                	je     231 <INT_SIZE_DATA+0x1f1>
 211:	6f                   	outs   dx,DWORD PTR ds:[esi]
 212:	70 65                	jo     279 <INT_SIZE_DATA+0x239>
 214:	6e                   	outs   dx,BYTE PTR ds:[esi]
 215:	65 64 21 0a          	gs and DWORD PTR fs:[edx],ecx
 219:	00 00                	add    BYTE PTR [eax],al
 21b:	00 5b 21             	add    BYTE PTR [ebx+0x21],bl
 21e:	5d                   	pop    ebp
 21f:	20 4f 75             	and    BYTE PTR [edi+0x75],cl
 222:	74 70                	je     294 <INT_SIZE_DATA+0x254>
 224:	75 74                	jne    29a <INT_SIZE_DATA+0x25a>
 226:	20 66 69             	and    BYTE PTR [esi+0x69],ah
 229:	6c                   	ins    BYTE PTR es:[edi],dx
 22a:	65 20 22             	and    BYTE PTR gs:[edx],ah
 22d:	25 73 22 20 6e       	and    eax,0x6e202273
 232:	6f                   	outs   dx,DWORD PTR ds:[esi]
 233:	74 20                	je     255 <INT_SIZE_DATA+0x215>
 235:	6f                   	outs   dx,DWORD PTR ds:[esi]
 236:	70 65                	jo     29d <INT_SIZE_DATA+0x25d>
 238:	6e                   	outs   dx,BYTE PTR ds:[esi]
 239:	65 64 21 0a          	gs and DWORD PTR fs:[edx],ecx
 23d:	00 00                	add    BYTE PTR [eax],al
 23f:	00 5b 21             	add    BYTE PTR [ebx+0x21],bl
 242:	5d                   	pop    ebp
 243:	20 53 69             	and    BYTE PTR [ebx+0x69],dl
 246:	7a 65                	jp     2ad <INT_SIZE_DATA+0x26d>
 248:	20 6f 66             	and    BYTE PTR [edi+0x66],ch
 24b:	20 69 6e             	and    BYTE PTR [ecx+0x6e],ch
 24e:	70 75                	jo     2c5 <INT_SIZE_DATA+0x285>
 250:	74 20                	je     272 <INT_SIZE_DATA+0x232>
 252:	66 69 6c 65 20 22 25 	imul   bp,WORD PTR [ebp+eiz*2+0x20],0x2522
 259:	73 22                	jae    27d <INT_SIZE_DATA+0x23d>
 25b:	20 30                	and    BYTE PTR [eax],dh
 25d:	20 6f 72             	and    BYTE PTR [edi+0x72],ch
 260:	20 6d 6f             	and    BYTE PTR [ebp+0x6f],ch
 263:	72 65                	jb     2ca <INT_SIZE_DATA+0x28a>
 265:	20 38                	and    BYTE PTR [eax],bh
 267:	20 45 69             	and    BYTE PTR [ebp+0x69],al
 26a:	42                   	inc    edx
 26b:	21 0a                	and    DWORD PTR [edx],ecx
 26d:	00 00                	add    BYTE PTR [eax],al
 26f:	00 5b 21             	add    BYTE PTR [ebx+0x21],bl
 272:	5d                   	pop    ebp
 273:	20 45 72             	and    BYTE PTR [ebp+0x72],al
 276:	72 6f                	jb     2e7 <INT_SIZE_DATA+0x2a7>
 278:	72 20                	jb     29a <INT_SIZE_DATA+0x25a>
 27a:	77 72                	ja     2ee <INT_SIZE_DATA+0x2ae>
 27c:	69 74 65 20 69 6e 20 	imul   esi,DWORD PTR [ebp+eiz*2+0x20],0x66206e69
 283:	66 
 284:	69 6c 65 20 22 25 73 	imul   ebp,DWORD PTR [ebp+eiz*2+0x20],0x22732522
 28b:	22 
 28c:	20 21                	and    BYTE PTR [ecx],ah
 28e:	0a 00                	or     al,BYTE PTR [eax]
 290:	5b                   	pop    ebx
 291:	21 5d 20             	and    DWORD PTR [ebp+0x20],ebx
 294:	45                   	inc    ebp
 295:	72 72                	jb     309 <INT_SIZE_DATA+0x2c9>
 297:	6f                   	outs   dx,DWORD PTR ds:[esi]
 298:	72 20                	jb     2ba <INT_SIZE_DATA+0x27a>
 29a:	72 65                	jb     301 <INT_SIZE_DATA+0x2c1>
 29c:	61                   	popa   
 29d:	64 20 66 6f          	and    BYTE PTR fs:[esi+0x6f],ah
 2a1:	72 6d                	jb     310 <INT_SIZE_DATA+0x2d0>
 2a3:	20 66 69             	and    BYTE PTR [esi+0x69],ah
 2a6:	6c                   	ins    BYTE PTR es:[edi],dx
 2a7:	65 20 22             	and    BYTE PTR gs:[edx],ah
 2aa:	25 73 22 20 21       	and    eax,0x21202273
 2af:	0a 00                	or     al,BYTE PTR [eax]
 2b1:	00 00                	add    BYTE PTR [eax],al
 2b3:	00 5b 21             	add    BYTE PTR [ebx+0x21],bl
 2b6:	5d                   	pop    ebp
 2b7:	20 45 72             	and    BYTE PTR [ebp+0x72],al
 2ba:	72 6f                	jb     32b <INT_SIZE_DATA+0x2eb>
 2bc:	72 20                	jb     2de <INT_SIZE_DATA+0x29e>
 2be:	63 6c 6f 73          	arpl   WORD PTR [edi+ebp*2+0x73],bp
 2c2:	65 20 69 6e          	and    BYTE PTR gs:[ecx+0x6e],ch
 2c6:	70 75                	jo     33d <INT_SIZE_DATA+0x2fd>
 2c8:	74 20                	je     2ea <INT_SIZE_DATA+0x2aa>
 2ca:	73 74                	jae    340 <INT_SIZE_DATA+0x300>
 2cc:	72 65                	jb     333 <INT_SIZE_DATA+0x2f3>
 2ce:	61                   	popa   
 2cf:	6d                   	ins    DWORD PTR es:[edi],dx
 2d0:	21 0a                	and    DWORD PTR [edx],ecx
 2d2:	00 00                	add    BYTE PTR [eax],al
 2d4:	5b                   	pop    ebx
 2d5:	21 5d 20             	and    DWORD PTR [ebp+0x20],ebx
 2d8:	45                   	inc    ebp
 2d9:	72 72                	jb     34d <INT_SIZE_DATA+0x30d>
 2db:	6f                   	outs   dx,DWORD PTR ds:[esi]
 2dc:	72 20                	jb     2fe <INT_SIZE_DATA+0x2be>
 2de:	63 6c 6f 73          	arpl   WORD PTR [edi+ebp*2+0x73],bp
 2e2:	65 20 6f 75          	and    BYTE PTR gs:[edi+0x75],ch
 2e6:	74 70                	je     358 <INT_SIZE_DATA+0x318>
 2e8:	75 74                	jne    35e <INT_SIZE_DATA+0x31e>
 2ea:	20 73 74             	and    BYTE PTR [ebx+0x74],dh
 2ed:	72 65                	jb     354 <INT_SIZE_DATA+0x314>
 2ef:	61                   	popa   
 2f0:	6d                   	ins    DWORD PTR es:[edi],dx
 2f1:	21 0a                	and    DWORD PTR [edx],ecx
 2f3:	00 5b 21             	add    BYTE PTR [ebx+0x21],bl
 2f6:	5d                   	pop    ebp
 2f7:	20 53 69             	and    BYTE PTR [ebx+0x69],dl
 2fa:	7a 65                	jp     361 <INT_SIZE_DATA+0x321>
 2fc:	20 6f 66             	and    BYTE PTR [edi+0x66],ch
 2ff:	20 66 69             	and    BYTE PTR [esi+0x69],ah
 302:	6c                   	ins    BYTE PTR es:[edi],dx
 303:	65 20 66 6f          	and    BYTE PTR gs:[esi+0x6f],ah
 307:	72 20                	jb     329 <INT_SIZE_DATA+0x2e9>
 309:	64 65 63 72 79       	fs arpl WORD PTR gs:[edx+0x79],si
 30e:	70 74                	jo     384 <INT_SIZE_DATA+0x344>
 310:	20 22                	and    BYTE PTR [edx],ah
 312:	25 73 22 20 69       	and    eax,0x69202273
 317:	6e                   	outs   dx,BYTE PTR ds:[esi]
 318:	63 6f 72             	arpl   WORD PTR [edi+0x72],bp
 31b:	72 65                	jb     382 <INT_SIZE_DATA+0x342>
 31d:	63 74 21 0a          	arpl   WORD PTR [ecx+eiz*1+0xa],si
	...
 345:	00 00                	add    BYTE PTR [eax],al
 347:	00 5b 24             	add    BYTE PTR [ebx+0x24],bl
 34a:	5d                   	pop    ebp
 34b:	20 45 6e             	and    BYTE PTR [ebp+0x6e],al
 34e:	74 65                	je     3b5 <INT_SIZE_DATA+0x375>
 350:	72 20                	jb     372 <INT_SIZE_DATA+0x332>
 352:	70 61                	jo     3b5 <INT_SIZE_DATA+0x375>
 354:	73 73                	jae    3c9 <INT_SIZE_DATA+0x389>
 356:	77 6f                	ja     3c7 <INT_SIZE_DATA+0x387>
 358:	72 64                	jb     3be <INT_SIZE_DATA+0x37e>
 35a:	20 6f 72             	and    BYTE PTR [edi+0x72],ch
 35d:	20 6e 61             	and    BYTE PTR [esi+0x61],ch
 360:	6d                   	ins    DWORD PTR es:[edi],dx
 361:	65 20 6b 65          	and    BYTE PTR gs:[ebx+0x65],ch
 365:	79 66                	jns    3cd <INT_SIZE_DATA+0x38d>
 367:	69 6c 65 3a 00 5b 58 	imul   ebp,DWORD PTR [ebp+eiz*2+0x3a],0x5d585b00
 36e:	5d 
 36f:	20 50 61             	and    BYTE PTR [eax+0x61],dl
 372:	73 73                	jae    3e7 <INT_SIZE_DATA+0x3a7>
 374:	77 6f                	ja     3e5 <INT_SIZE_DATA+0x3a5>
 376:	72 64                	jb     3dc <INT_SIZE_DATA+0x39c>
 378:	20 6e 6f             	and    BYTE PTR [esi+0x6f],ch
 37b:	74 20                	je     39d <INT_SIZE_DATA+0x35d>
 37d:	72 65                	jb     3e4 <INT_SIZE_DATA+0x3a4>
 37f:	61                   	popa   
 380:	64 20 66 72          	and    BYTE PTR fs:[esi+0x72],ah
 384:	6f                   	outs   dx,DWORD PTR ds:[esi]
 385:	6d                   	ins    DWORD PTR es:[edi],dx
 386:	20 63 6f             	and    BYTE PTR [ebx+0x6f],ah
 389:	6d                   	ins    DWORD PTR es:[edi],dx
 38a:	6d                   	ins    DWORD PTR es:[edi],dx
 38b:	61                   	popa   
 38c:	6e                   	outs   dx,BYTE PTR ds:[esi]
 38d:	64 20 6c 69 6e       	and    BYTE PTR fs:[ecx+ebp*2+0x6e],ch
 392:	65 21 0a             	and    DWORD PTR gs:[edx],ecx
 395:	00 5b 58             	add    BYTE PTR [ebx+0x58],bl
 398:	5d                   	pop    ebp
 399:	20 4e 6f             	and    BYTE PTR [esi+0x6f],cl
 39c:	74 20                	je     3be <INT_SIZE_DATA+0x37e>
 39e:	74 65                	je     405 <INT_SIZE_DATA+0x3c5>
 3a0:	72 6d                	jb     40f <INT_SIZE_DATA+0x3cf>
 3a2:	69 6e 61 6c 21 0a 00 	imul   ebp,DWORD PTR [esi+0x61],0xa216c
 3a9:	00 00                	add    BYTE PTR [eax],al
 3ab:	00 5b 21             	add    BYTE PTR [ebx+0x21],bl
 3ae:	5d                   	pop    ebp
 3af:	20 57 61             	and    BYTE PTR [edi+0x61],dl
 3b2:	72 6e                	jb     422 <INT_SIZE_DATA+0x3e2>
 3b4:	69 6e 67 3a 20 61 72 	imul   ebp,DWORD PTR [esi+0x67],0x7261203a
 3bb:	67 75 6d             	addr16 jne 42b <INT_SIZE_DATA+0x3eb>
 3be:	65 6e                	outs   dx,BYTE PTR gs:[esi]
 3c0:	74 20                	je     3e2 <INT_SIZE_DATA+0x3a2>
 3c2:	22 25 64 22 20 6c    	and    ah,BYTE PTR ds:0x6c202264
 3c8:	65 6e                	outs   dx,BYTE PTR gs:[esi]
 3ca:	67 74 68             	addr16 je 435 <INT_SIZE_DATA+0x3f5>
 3cd:	20 6d 6f             	and    BYTE PTR [ebp+0x6f],ch
 3d0:	72 65                	jb     437 <INT_SIZE_DATA+0x3f7>
 3d2:	20 22                	and    BYTE PTR [edx],ah
 3d4:	25 64 22 21 0a       	and    eax,0xa212264
 3d9:	00 00                	add    BYTE PTR [eax],al
 3db:	00 5b 21             	add    BYTE PTR [ebx+0x21],bl
 3de:	5d                   	pop    ebp
 3df:	20 45 72             	and    BYTE PTR [ebp+0x72],al
 3e2:	72 6f                	jb     453 <INT_SIZE_DATA+0x413>
 3e4:	72 3a                	jb     420 <INT_SIZE_DATA+0x3e0>
 3e6:	20 63 6f             	and    BYTE PTR [ebx+0x6f],ah
 3e9:	75 6e                	jne    459 <INT_SIZE_DATA+0x419>
 3eb:	74 20                	je     40d <INT_SIZE_DATA+0x3cd>
 3ed:	61                   	popa   
 3ee:	72 67                	jb     457 <INT_SIZE_DATA+0x417>
 3f0:	75 6d                	jne    45f <INT_SIZE_DATA+0x41f>
 3f2:	65 6e                	outs   dx,BYTE PTR gs:[esi]
 3f4:	74 73                	je     469 <INT_SIZE_DATA+0x429>
 3f6:	20 25 64 3b 20 6e    	and    BYTE PTR ds:0x6e203b64,ah
 3fc:	65 63 65 73          	arpl   WORD PTR gs:[ebp+0x73],sp
 400:	73 61                	jae    463 <INT_SIZE_DATA+0x423>
 402:	72 79                	jb     47d <INT_SIZE_DATA+0x43d>
 404:	20 74 6f 20          	and    BYTE PTR [edi+ebp*2+0x20],dh
 408:	32 20                	xor    ah,BYTE PTR [eax]
 40a:	64 6f                	outs   dx,DWORD PTR fs:[esi]
 40c:	20 37                	and    BYTE PTR [edi],dh
 40e:	20 73 74             	and    BYTE PTR [ebx+0x74],dh
 411:	72 69                	jb     47c <INT_SIZE_DATA+0x43c>
 413:	6e                   	outs   dx,BYTE PTR ds:[esi]
 414:	67 73 21             	addr16 jae 438 <INT_SIZE_DATA+0x3f8>
 417:	0a 00                	or     al,BYTE PTR [eax]
 419:	2d 68 00 2d 2d       	sub    eax,0x2d2d0068
 41e:	68 65 6c 70 00       	push   0x706c65
 423:	00 54 68 69          	add    BYTE PTR [eax+ebp*2+0x69],dl
 427:	73 20                	jae    449 <INT_SIZE_DATA+0x409>
 429:	69 73 20 73 6f 66 74 	imul   esi,DWORD PTR [ebx+0x20],0x74666f73
 430:	77 61                	ja     493 <INT_SIZE_DATA+0x453>
 432:	72 65                	jb     499 <INT_SIZE_DATA+0x459>
 434:	20 66 6f             	and    BYTE PTR [esi+0x6f],ah
 437:	72 20                	jb     459 <INT_SIZE_DATA+0x419>
 439:	65 6e                	outs   dx,BYTE PTR gs:[esi]
 43b:	63 72 79             	arpl   WORD PTR [edx+0x79],si
 43e:	70 74                	jo     4b4 <INT_SIZE_DATA+0x474>
 440:	2f                   	das    
 441:	64 65 63 72 79       	fs arpl WORD PTR gs:[edx+0x79],si
 446:	70 74                	jo     4bc <INT_SIZE_DATA+0x47c>
 448:	20 66 69             	and    BYTE PTR [esi+0x69],ah
 44b:	6c                   	ins    BYTE PTR es:[edi],dx
 44c:	65 73 2e             	gs jae 47d <INT_SIZE_DATA+0x43d>
 44f:	0a 00                	or     al,BYTE PTR [eax]
 451:	00 00                	add    BYTE PTR [eax],al
 453:	00 41 6c             	add    BYTE PTR [ecx+0x6c],al
 456:	67 6f                	outs   dx,DWORD PTR ds:[si]
 458:	72 69                	jb     4c3 <INT_SIZE_DATA+0x483>
 45a:	74 6d                	je     4c9 <INT_SIZE_DATA+0x489>
 45c:	73 3a                	jae    498 <INT_SIZE_DATA+0x458>
 45e:	0a 09                	or     cl,BYTE PTR [ecx]
 460:	2d 72 2f 2d 2d       	sub    eax,0x2d2d2f72
 465:	61                   	popa   
 466:	65 73 0a             	gs jae 473 <INT_SIZE_DATA+0x433>
 469:	09 2d 73 2f 2d 2d    	or     DWORD PTR ds:0x2d2d2f73,ebp
 46f:	73 65                	jae    4d6 <INT_SIZE_DATA+0x496>
 471:	72 70                	jb     4e3 <INT_SIZE_DATA+0x4a3>
 473:	65 6e                	outs   dx,BYTE PTR gs:[esi]
 475:	74 0a                	je     481 <INT_SIZE_DATA+0x441>
 477:	09 2d 77 2f 2d 2d    	or     DWORD PTR ds:0x2d2d2f77,ebp
 47d:	74 77                	je     4f6 <INT_SIZE_DATA+0x4b6>
 47f:	6f                   	outs   dx,DWORD PTR ds:[esi]
 480:	66 69 73 68 0a 09    	imul   si,WORD PTR [ebx+0x68],0x90a
 486:	2d 62 2f 2d 2d       	sub    eax,0x2d2d2f62
 48b:	62 6c 6f 77          	bound  ebp,QWORD PTR [edi+ebp*2+0x77]
 48f:	66 69 73 68 0a 09    	imul   si,WORD PTR [ebx+0x68],0x90a
 495:	2d 74 2f 2d 2d       	sub    eax,0x2d2d2f74
 49a:	74 68                	je     504 <INT_SIZE_DATA+0x4c4>
 49c:	72 65                	jb     503 <INT_SIZE_DATA+0x4c3>
 49e:	65 66 69 73 68 00 4f 	imul   si,WORD PTR gs:[ebx+0x68],0x4f00
 4a5:	70 65                	jo     50c <INT_SIZE_DATA+0x4cc>
 4a7:	72 61                	jb     50a <INT_SIZE_DATA+0x4ca>
 4a9:	74 69                	je     514 <INT_SIZE_DATA+0x4d4>
 4ab:	6f                   	outs   dx,DWORD PTR ds:[esi]
 4ac:	6e                   	outs   dx,BYTE PTR ds:[esi]
 4ad:	73 3a                	jae    4e9 <INT_SIZE_DATA+0x4a9>
 4af:	0a 09                	or     cl,BYTE PTR [ecx]
 4b1:	2d 65 2f 2d 2d       	sub    eax,0x2d2d2f65
 4b6:	65 6e                	outs   dx,BYTE PTR gs:[esi]
 4b8:	63 72 79             	arpl   WORD PTR [edx+0x79],si
 4bb:	70 74                	jo     531 <INT_SIZE_DATA+0x4f1>
 4bd:	0a 09                	or     cl,BYTE PTR [ecx]
 4bf:	2d 64 2f 2d 2d       	sub    eax,0x2d2d2f64
 4c4:	64 65 63 72 79       	fs arpl WORD PTR gs:[edx+0x79],si
 4c9:	70 74                	jo     53f <INT_SIZE_DATA+0x4ff>
 4cb:	00 4c 65 6e          	add    BYTE PTR [ebp+eiz*2+0x6e],cl
 4cf:	67 74 68             	addr16 je 53a <INT_SIZE_DATA+0x4fa>
 4d2:	73 20                	jae    4f4 <INT_SIZE_DATA+0x4b4>
 4d4:	6b 65 79 3a          	imul   esp,DWORD PTR [ebp+0x79],0x3a
 4d8:	0a 09                	or     cl,BYTE PTR [ecx]
 4da:	2d 61 2f 2d 2d       	sub    eax,0x2d2d2f61
 4df:	31 32                	xor    DWORD PTR [edx],esi
 4e1:	38 2f                	cmp    BYTE PTR [edi],ch
 4e3:	2d 2d 32 35 36       	sub    eax,0x3635322d
 4e8:	0a 09                	or     cl,BYTE PTR [ecx]
 4ea:	2d 62 2f 2d 2d       	sub    eax,0x2d2d2f62
 4ef:	31 39                	xor    DWORD PTR [ecx],edi
 4f1:	32 2f                	xor    ch,BYTE PTR [edi]
 4f3:	2d 2d 35 31 32       	sub    eax,0x3231352d
 4f8:	0a 09                	or     cl,BYTE PTR [ecx]
 4fa:	2d 63 2f 2d 2d       	sub    eax,0x2d2d2f63
 4ff:	32 35 36 2f 2d 2d    	xor    dh,BYTE PTR ds:0x2d2d2f36
 505:	31 30                	xor    DWORD PTR [eax],esi
 507:	32 34 0a             	xor    dh,BYTE PTR [edx+ecx*1]
 50a:	00 00                	add    BYTE PTR [eax],al
 50c:	45                   	inc    ebp
 50d:	6e                   	outs   dx,BYTE PTR ds:[esi]
 50e:	74 65                	je     575 <INT_SIZE_DATA+0x535>
 510:	72 3a                	jb     54c <INT_SIZE_DATA+0x50c>
 512:	20 25 73 20 5b 61    	and    BYTE PTR ds:0x615b2073,ah
 518:	6c                   	ins    BYTE PTR es:[edi],dx
 519:	67 6f                	outs   dx,DWORD PTR ds:[si]
 51b:	72 69                	jb     586 <INT_SIZE_DATA+0x546>
 51d:	74 6d                	je     58c <INT_SIZE_DATA+0x54c>
 51f:	5d                   	pop    ebp
 520:	20 5b 6f             	and    BYTE PTR [ebx+0x6f],bl
 523:	70 65                	jo     58a <INT_SIZE_DATA+0x54a>
 525:	72 61                	jb     588 <INT_SIZE_DATA+0x548>
 527:	74 69                	je     592 <INT_SIZE_DATA+0x552>
 529:	6f                   	outs   dx,DWORD PTR ds:[esi]
 52a:	6e                   	outs   dx,BYTE PTR ds:[esi]
 52b:	5d                   	pop    ebp
 52c:	20 5b 6b             	and    BYTE PTR [ebx+0x6b],bl
 52f:	65 79 20             	gs jns 552 <INT_SIZE_DATA+0x512>
 532:	6c                   	ins    BYTE PTR es:[edi],dx
 533:	65 6e                	outs   dx,BYTE PTR gs:[esi]
 535:	67 74 68             	addr16 je 5a0 <INT_SIZE_DATA+0x560>
 538:	5d                   	pop    ebp
 539:	20 5b 69             	and    BYTE PTR [ebx+0x69],bl
 53c:	6e                   	outs   dx,BYTE PTR ds:[esi]
 53d:	70 75                	jo     5b4 <INT_SIZE_DATA+0x574>
 53f:	74 20                	je     561 <INT_SIZE_DATA+0x521>
 541:	66 69 6c 65 6e 61 6d 	imul   bp,WORD PTR [ebp+eiz*2+0x6e],0x6d61
 548:	65 5d                	gs pop ebp
 54a:	20 5b 6f             	and    BYTE PTR [ebx+0x6f],bl
 54d:	75 74                	jne    5c3 <INT_SIZE_DATA+0x583>
 54f:	70 75                	jo     5c6 <INT_SIZE_DATA+0x586>
 551:	74 20                	je     573 <INT_SIZE_DATA+0x533>
 553:	66 69 6c 65 6e 61 6d 	imul   bp,WORD PTR [ebp+eiz*2+0x6e],0x6d61
 55a:	65 5d                	gs pop ebp
 55c:	0a 00                	or     al,BYTE PTR [eax]
 55e:	00 00                	add    BYTE PTR [eax],al
 560:	5b                   	pop    ebx
 561:	21 5d 20             	and    DWORD PTR [ebp+0x20],ebx
 564:	49                   	dec    ecx
 565:	6e                   	outs   dx,BYTE PTR ds:[esi]
 566:	63 6f 72             	arpl   WORD PTR [edi+0x72],bp
 569:	72 65                	jb     5d0 <INT_SIZE_DATA+0x590>
 56b:	63 74 20 70          	arpl   WORD PTR [eax+eiz*1+0x70],si
 56f:	61                   	popa   
 570:	72 61                	jb     5d3 <INT_SIZE_DATA+0x593>
 572:	6d                   	ins    DWORD PTR es:[edi],dx
 573:	65 74 65             	gs je  5db <INT_SIZE_DATA+0x59b>
 576:	72 20                	jb     598 <INT_SIZE_DATA+0x558>
 578:	22 25 73 22 21 20    	and    ah,BYTE PTR ds:0x20212273
 57e:	4f                   	dec    edi
 57f:	6e                   	outs   dx,BYTE PTR ds:[esi]
 580:	6c                   	ins    BYTE PTR es:[edi],dx
 581:	79 20                	jns    5a3 <INT_SIZE_DATA+0x563>
 583:	22 2d 68 22 20 6f    	and    ch,BYTE PTR ds:0x6f202268
 589:	72 20                	jb     5ab <INT_SIZE_DATA+0x56b>
 58b:	22 2d 2d 68 65 6c    	and    ch,BYTE PTR ds:0x6c65682d
 591:	70 22                	jo     5b5 <INT_SIZE_DATA+0x575>
 593:	2e 0a 00             	or     al,BYTE PTR cs:[eax]
 596:	2d 62 00 2d 2d       	sub    eax,0x2d2d0062
 59b:	62 6c 6f 77          	bound  ebp,QWORD PTR [edi+ebp*2+0x77]
 59f:	66 69 73 68 00 2d    	imul   si,WORD PTR [ebx+0x68],0x2d00
 5a5:	74 00                	je     5a7 <INT_SIZE_DATA+0x567>
 5a7:	2d 2d 74 68 72       	sub    eax,0x7268742d
 5ac:	65 65 66 69 73 68 00 	gs imul si,WORD PTR gs:[ebx+0x68],0x2d00
 5b3:	2d 
 5b4:	72 00                	jb     5b6 <INT_SIZE_DATA+0x576>
 5b6:	2d 2d 61 65 73       	sub    eax,0x7365612d
 5bb:	00 2d 73 00 2d 2d    	add    BYTE PTR ds:0x2d2d0073,ch
 5c1:	73 65                	jae    628 <INT_SIZE_DATA+0x5e8>
 5c3:	72 70                	jb     635 <INT_SIZE_DATA+0x5f5>
 5c5:	65 6e                	outs   dx,BYTE PTR gs:[esi]
 5c7:	74 00                	je     5c9 <INT_SIZE_DATA+0x589>
 5c9:	2d 77 00 2d 2d       	sub    eax,0x2d2d0077
 5ce:	74 77                	je     647 <INT_SIZE_DATA+0x607>
 5d0:	6f                   	outs   dx,DWORD PTR ds:[esi]
 5d1:	66 69 73 68 00 00    	imul   si,WORD PTR [ebx+0x68],0x0
 5d7:	00 5b 21             	add    BYTE PTR [ebx+0x21],bl
 5da:	5d                   	pop    ebp
 5db:	20 4e 61             	and    BYTE PTR [esi+0x61],cl
 5de:	6d                   	ins    DWORD PTR es:[edi],dx
 5df:	65 20 63 69          	and    BYTE PTR gs:[ebx+0x69],ah
 5e3:	70 68                	jo     64d <INT_SIZE_DATA+0x60d>
 5e5:	65 72 20             	gs jb  608 <INT_SIZE_DATA+0x5c8>
 5e8:	22 25 73 22 20 69    	and    ah,BYTE PTR ds:0x69202273
 5ee:	6e                   	outs   dx,BYTE PTR ds:[esi]
 5ef:	63 6f 72             	arpl   WORD PTR [edi+0x72],bp
 5f2:	72 65                	jb     659 <INT_SIZE_DATA+0x619>
 5f4:	63 74 21 0a          	arpl   WORD PTR [ecx+eiz*1+0xa],si
 5f8:	00 2d 65 00 2d 2d    	add    BYTE PTR ds:0x2d2d0065,ch
 5fe:	65 6e                	outs   dx,BYTE PTR gs:[esi]
 600:	63 72 79             	arpl   WORD PTR [edx+0x79],si
 603:	70 74                	jo     679 <INT_SIZE_DATA+0x639>
 605:	00 2d 64 00 2d 2d    	add    BYTE PTR ds:0x2d2d0064,ch
 60b:	64 65 63 72 79       	fs arpl WORD PTR gs:[edx+0x79],si
 610:	70 74                	jo     686 <INT_SIZE_DATA+0x646>
 612:	00 00                	add    BYTE PTR [eax],al
 614:	5b                   	pop    ebx
 615:	21 5d 20             	and    DWORD PTR [ebp+0x20],ebx
 618:	4f                   	dec    edi
 619:	70 65                	jo     680 <INT_SIZE_DATA+0x640>
 61b:	72 61                	jb     67e <INT_SIZE_DATA+0x63e>
 61d:	74 69                	je     688 <INT_SIZE_DATA+0x648>
 61f:	6f                   	outs   dx,DWORD PTR ds:[esi]
 620:	6e                   	outs   dx,BYTE PTR ds:[esi]
 621:	20 22                	and    BYTE PTR [edx],ah
 623:	25 73 22 20 69       	and    eax,0x69202273
 628:	6e                   	outs   dx,BYTE PTR ds:[esi]
 629:	63 6f 72             	arpl   WORD PTR [edi+0x72],bp
 62c:	72 65                	jb     693 <INT_SIZE_DATA+0x653>
 62e:	63 74 21 0a          	arpl   WORD PTR [ecx+eiz*1+0xa],si
 632:	00 2d 61 00 2d 2d    	add    BYTE PTR ds:0x2d2d0061,ch
 638:	31 32                	xor    DWORD PTR [edx],esi
 63a:	38 00                	cmp    BYTE PTR [eax],al
 63c:	2d 2d 31 39 32       	sub    eax,0x3239312d
 641:	00 2d 63 00 2d 2d    	add    BYTE PTR ds:0x2d2d0063,ch
 647:	32 35 36 00 00 5b    	xor    dh,BYTE PTR ds:0x5b000036
 64d:	21 5d 20             	and    DWORD PTR [ebp+0x20],ebx
 650:	4b                   	dec    ebx
 651:	65 79 20             	gs jns 674 <INT_SIZE_DATA+0x634>
 654:	6c                   	ins    BYTE PTR es:[edi],dx
 655:	65 6e                	outs   dx,BYTE PTR gs:[esi]
 657:	67 74 68             	addr16 je 6c2 <INT_SIZE_DATA+0x682>
 65a:	20 22                	and    BYTE PTR [edx],ah
 65c:	25 73 22 20 69       	and    eax,0x69202273
 661:	6e                   	outs   dx,BYTE PTR ds:[esi]
 662:	63 6f 72             	arpl   WORD PTR [edi+0x72],bp
 665:	72 65                	jb     6cc <INT_SIZE_DATA+0x68c>
 667:	63 74 21 0a          	arpl   WORD PTR [ecx+eiz*1+0xa],si
 66b:	00 2d 2d 35 31 32    	add    BYTE PTR ds:0x3231352d,ch
 671:	00 2d 2d 31 30 32    	add    BYTE PTR ds:0x3230312d,ch
 677:	34 00                	xor    al,0x0
 679:	00 00                	add    BYTE PTR [eax],al
 67b:	00 5b 21             	add    BYTE PTR [ebx+0x21],bl
 67e:	5d                   	pop    ebp
 67f:	20 4e 61             	and    BYTE PTR [esi+0x61],cl
 682:	6d                   	ins    DWORD PTR es:[edi],dx
 683:	65 73 20             	gs jae 6a6 <INT_SIZE_DATA+0x666>
 686:	69 6e 70 75 74 20 61 	imul   ebp,DWORD PTR [esi+0x70],0x61207475
 68d:	6e                   	outs   dx,BYTE PTR ds:[esi]
 68e:	64 20 6f 75          	and    BYTE PTR fs:[edi+0x75],ch
 692:	74 70                	je     704 <INT_SIZE_DATA+0x6c4>
 694:	75 74                	jne    70a <INT_SIZE_DATA+0x6ca>
 696:	20 66 69             	and    BYTE PTR [esi+0x69],ah
 699:	6c                   	ins    BYTE PTR es:[edi],dx
 69a:	65 73 20             	gs jae 6bd <INT_SIZE_DATA+0x67d>
 69d:	65 71 75             	gs jno 715 <INT_SIZE_DATA+0x6d5>
 6a0:	61                   	popa   
 6a1:	6c                   	ins    BYTE PTR es:[edi],dx
 6a2:	21 0a                	and    DWORD PTR [edx],ecx
 6a4:	00 00                	add    BYTE PTR [eax],al
 6a6:	00 00                	add    BYTE PTR [eax],al
 6a8:	5b                   	pop    ebx
 6a9:	21 5d 20             	and    DWORD PTR [ebp+0x20],ebx
 6ac:	4e                   	dec    esi
 6ad:	61                   	popa   
 6ae:	6d                   	ins    DWORD PTR es:[edi],dx
 6af:	65 73 20             	gs jae 6d2 <INT_SIZE_DATA+0x692>
 6b2:	6b 65 79 66          	imul   esp,DWORD PTR [ebp+0x79],0x66
 6b6:	69 6c 65 20 61 6e 64 	imul   ebp,DWORD PTR [ebp+eiz*2+0x20],0x20646e61
 6bd:	20 
 6be:	6f                   	outs   dx,DWORD PTR ds:[esi]
 6bf:	75 74                	jne    735 <INT_SIZE_DATA+0x6f5>
 6c1:	70 75                	jo     738 <INT_SIZE_DATA+0x6f8>
 6c3:	74 20                	je     6e5 <INT_SIZE_DATA+0x6a5>
 6c5:	66 69 6c 65 73 20 65 	imul   bp,WORD PTR [ebp+eiz*2+0x73],0x6520
 6cc:	71 75                	jno    743 <INT_SIZE_DATA+0x703>
 6ce:	61                   	popa   
 6cf:	6c                   	ins    BYTE PTR es:[edi],dx
 6d0:	21 0a                	and    DWORD PTR [edx],ecx
 6d2:	00 00                	add    BYTE PTR [eax],al
 6d4:	5b                   	pop    ebx
 6d5:	21 5d 20             	and    DWORD PTR [ebp+0x20],ebx
 6d8:	4e                   	dec    esi
 6d9:	61                   	popa   
 6da:	6d                   	ins    DWORD PTR es:[edi],dx
 6db:	65 73 20             	gs jae 6fe <INT_SIZE_DATA+0x6be>
 6de:	6b 65 79 66          	imul   esp,DWORD PTR [ebp+0x79],0x66
 6e2:	69 6c 65 20 61 6e 64 	imul   ebp,DWORD PTR [ebp+eiz*2+0x20],0x20646e61
 6e9:	20 
 6ea:	69 6e 70 75 74 20 66 	imul   ebp,DWORD PTR [esi+0x70],0x66207475
 6f1:	69 6c 65 73 20 65 71 	imul   ebp,DWORD PTR [ebp+eiz*2+0x73],0x75716520
 6f8:	75 
 6f9:	61                   	popa   
 6fa:	6c                   	ins    BYTE PTR es:[edi],dx
 6fb:	21 0a                	and    DWORD PTR [edx],ecx
 6fd:	00 00                	add    BYTE PTR [eax],al
 6ff:	00 5b 23             	add    BYTE PTR [ebx+0x23],bl
 702:	5d                   	pop    ebp
 703:	20 43 72             	and    BYTE PTR [ebx+0x72],al
 706:	79 70                	jns    778 <INT_SIZE_DATA+0x738>
 708:	74 20                	je     72a <INT_SIZE_DATA+0x6ea>
 70a:	6b 65 79 20          	imul   esp,DWORD PTR [ebp+0x79],0x20
 70e:	72 65                	jb     775 <INT_SIZE_DATA+0x735>
 710:	61                   	popa   
 711:	64 20 66 72          	and    BYTE PTR fs:[esi+0x72],ah
 715:	6f                   	outs   dx,DWORD PTR ds:[esi]
 716:	6d                   	ins    DWORD PTR es:[edi],dx
 717:	20 66 69             	and    BYTE PTR [esi+0x69],ah
 71a:	6c                   	ins    BYTE PTR es:[edi],dx
 71b:	65 20 22             	and    BYTE PTR gs:[edx],ah
 71e:	25 73 22 21 0a       	and    eax,0xa212273
 723:	00 5b 21             	add    BYTE PTR [ebx+0x21],bl
 726:	5d                   	pop    ebp
 727:	20 44 61 74          	and    BYTE PTR [ecx+eiz*2+0x74],al
 72b:	61                   	popa   
 72c:	20 69 6e             	and    BYTE PTR [ecx+0x6e],ch
 72f:	20 6b 65             	and    BYTE PTR [ebx+0x65],ch
 732:	79 20                	jns    754 <INT_SIZE_DATA+0x714>
 734:	66 69 6c 65 20 25 64 	imul   bp,WORD PTR [ebp+eiz*2+0x20],0x6425
 73b:	20 62 79             	and    BYTE PTR [edx+0x79],ah
 73e:	74 65                	je     7a5 <INT_SIZE_DATA+0x765>
 740:	3b 20                	cmp    esp,DWORD PTR [eax]
 742:	6e                   	outs   dx,BYTE PTR ds:[esi]
 743:	65 63 65 73          	arpl   WORD PTR gs:[ebp+0x73],sp
 747:	73 61                	jae    7aa <INT_SIZE_DATA+0x76a>
 749:	72 79                	jb     7c4 <INT_SIZE_DATA+0x784>
 74b:	20 25 64 20 62 79    	and    BYTE PTR ds:0x79622064,ah
 751:	74 65                	je     7b8 <INT_SIZE_DATA+0x778>
 753:	21 0a                	and    DWORD PTR [edx],ecx
 755:	00 00                	add    BYTE PTR [eax],al
 757:	00 5b 23             	add    BYTE PTR [ebx+0x23],bl
 75a:	5d                   	pop    ebp
 75b:	20 43 72             	and    BYTE PTR [ebx+0x72],al
 75e:	79 70                	jns    7d0 <INT_SIZE_DATA+0x790>
 760:	74 20                	je     782 <INT_SIZE_DATA+0x742>
 762:	6b 65 79 20          	imul   esp,DWORD PTR [ebp+0x79],0x20
 766:	72 65                	jb     7cd <INT_SIZE_DATA+0x78d>
 768:	61                   	popa   
 769:	64 20 66 72          	and    BYTE PTR fs:[esi+0x72],ah
 76d:	6f                   	outs   dx,DWORD PTR ds:[esi]
 76e:	6d                   	ins    DWORD PTR es:[edi],dx
 76f:	20 63 6f             	and    BYTE PTR [ebx+0x6f],ah
 772:	6d                   	ins    DWORD PTR es:[edi],dx
 773:	6d                   	ins    DWORD PTR es:[edi],dx
 774:	61                   	popa   
 775:	6e                   	outs   dx,BYTE PTR ds:[esi]
 776:	64 20 6c 69 6e       	and    BYTE PTR fs:[ecx+ebp*2+0x6e],ch
 77b:	65 21 00             	and    DWORD PTR gs:[eax],eax
 77e:	00 00                	add    BYTE PTR [eax],al
 780:	5b                   	pop    ebx
 781:	21 5d 20             	and    DWORD PTR [ebp+0x20],ebx
 784:	44                   	inc    esp
 785:	61                   	popa   
 786:	74 61                	je     7e9 <INT_SIZE_DATA+0x7a9>
 788:	20 69 6e             	and    BYTE PTR [ecx+0x6e],ch
 78b:	20 73 74             	and    BYTE PTR [ebx+0x74],dh
 78e:	72 69                	jb     7f9 <INT_SIZE_DATA+0x7b9>
 790:	6e                   	outs   dx,BYTE PTR ds:[esi]
 791:	67 20 6b 65          	and    BYTE PTR [bp+di+0x65],ch
 795:	79 20                	jns    7b7 <INT_SIZE_DATA+0x777>
 797:	25 64 20 62 79       	and    eax,0x79622064
 79c:	74 65                	je     803 <INT_SIZE_DATA+0x7c3>
 79e:	3b 20                	cmp    esp,DWORD PTR [eax]
 7a0:	6e                   	outs   dx,BYTE PTR ds:[esi]
 7a1:	65 63 65 73          	arpl   WORD PTR gs:[ebp+0x73],sp
 7a5:	73 61                	jae    808 <INT_SIZE_DATA+0x7c8>
 7a7:	72 79                	jb     822 <INT_SIZE_DATA+0x7e2>
 7a9:	20 38                	and    BYTE PTR [eax],bh
 7ab:	2e 2e 32 35 36 20 62 	cs xor dh,BYTE PTR cs:0x79622036
 7b2:	79 
 7b3:	74 65                	je     81a <INT_SIZE_DATA+0x7da>
 7b5:	21 0a                	and    DWORD PTR [edx],ecx
 7b7:	00 5b 23             	add    BYTE PTR [ebx+0x23],bl
 7ba:	5d                   	pop    ebp
 7bb:	20 4b 65             	and    BYTE PTR [ebx+0x65],cl
 7be:	79 20                	jns    7e0 <INT_SIZE_DATA+0x7a0>
 7c0:	6c                   	ins    BYTE PTR es:[edi],dx
 7c1:	65 6e                	outs   dx,BYTE PTR gs:[esi]
 7c3:	67 74 68             	addr16 je 82e <INT_SIZE_DATA+0x7ee>
 7c6:	20 25 64 2d 62 69    	and    BYTE PTR ds:0x69622d64,ah
 7cc:	74 73                	je     841 <INT_SIZE_DATA+0x801>
 7ce:	20 69 6e             	and    BYTE PTR [ecx+0x6e],ch
 7d1:	69 74 69 61 6c 69 7a 	imul   esi,DWORD PTR [ecx+ebp*2+0x61],0x657a696c
 7d8:	65 
 7d9:	64 21 0a             	and    DWORD PTR fs:[edx],ecx
 7dc:	00 5b 23             	add    BYTE PTR [ebx+0x23],bl
 7df:	5d                   	pop    ebp
 7e0:	20 41 6c             	and    BYTE PTR [ecx+0x6c],al
 7e3:	67 6f                	outs   dx,DWORD PTR ds:[si]
 7e5:	72 69                	jb     850 <hmac_sha256_uf+0xfe>
 7e7:	74 6d                	je     856 <hmac_sha256_uf+0x104>
 7e9:	20 25 73 20 69 6e    	and    BYTE PTR ds:0x6e692073,ah
 7ef:	69 74 69 61 6c 69 7a 	imul   esi,DWORD PTR [ecx+ebp*2+0x61],0x657a696c
 7f6:	65 
 7f7:	64 21 0a             	and    DWORD PTR fs:[edx],ecx
 7fa:	00 00                	add    BYTE PTR [eax],al
 7fc:	5b                   	pop    ebx
 7fd:	23 5d 20             	and    ebx,DWORD PTR [ebp+0x20]
 800:	4f                   	dec    edi
 801:	70 65                	jo     868 <hmac_sha256_uf+0x116>
 803:	72 61                	jb     866 <hmac_sha256_uf+0x114>
 805:	74 69                	je     870 <hmac_sha256_uf+0x11e>
 807:	6f                   	outs   dx,DWORD PTR ds:[esi]
 808:	6e                   	outs   dx,BYTE PTR ds:[esi]
 809:	20 25 73 20 66 69    	and    BYTE PTR ds:0x69662073,ah
 80f:	6c                   	ins    BYTE PTR es:[edi],dx
 810:	65 20 22             	and    BYTE PTR gs:[edx],ah
 813:	25 73 22 20 73       	and    eax,0x73202273
 818:	74 61                	je     87b <hmac_sha256_uf+0x129>
 81a:	72 74                	jb     890 <hmac_sha256_uf+0x13e>
 81c:	65 64 21 0a          	gs and DWORD PTR fs:[edx],ecx
	...
 83c:	00 00                	add    BYTE PTR [eax],al
 83e:	59                   	pop    ecx
 83f:	40                   	inc    eax
 840:	9a 99 99 99 99 99 b9 	call   0xb999:0x99999999
 847:	3f                   	aas    

Дизассемблирование раздела .data.rel.local:

00000000 <PARAM_READ_BYTE>:
   0:	00 00                	add    BYTE PTR [eax],al
	...

00000004 <PARAM_WRITE_BYTE>:
   4:	03 00                	add    eax,DWORD PTR [eax]
	...

00000008 <PROGRAMM_NAME>:
   8:	08 00                	or     BYTE PTR [eax],al
	...

0000000c <CHAR_SIZE_DATA>:
   c:	70 00                	jo     e <CHAR_SIZE_DATA+0x2>
   e:	00 00                	add    BYTE PTR [eax],al
  10:	73 00                	jae    12 <CHAR_SIZE_DATA+0x6>
  12:	00 00                	add    BYTE PTR [eax],al
  14:	77 00                	ja     16 <CHAR_SIZE_DATA+0xa>
  16:	00 00                	add    BYTE PTR [eax],al
  18:	7b 00                	jnp    1a <CHAR_SIZE_DATA+0xe>
  1a:	00 00                	add    BYTE PTR [eax],al
  1c:	7f 00                	jg     1e <CHAR_SIZE_DATA+0x12>
  1e:	00 00                	add    BYTE PTR [eax],al
  20:	83 00 00             	add    DWORD PTR [eax],0x0
  23:	00 87 00 00 00     	add    BYTE PTR [edi-0x75000000],al

00000028 <OPERATION_NAME>:
  28:	8b 00                	mov    eax,DWORD PTR [eax]
  2a:	00 00                	add    BYTE PTR [eax],al
  2c:	93                   	xchg   ebx,eax
  2d:	00 00                	add    BYTE PTR [eax],al
	...

00000030 <ALGORITM_NAME>:
  30:	9b                   	fwait
  31:	00 00                	add    BYTE PTR [eax],al
  33:	00 9f 00 00 00 a7    	add    BYTE PTR [edi-0x59000000],bl
  39:	00 00                	add    BYTE PTR [eax],al
  3b:	00 af 00 00 00 b8    	add    BYTE PTR [edi-0x48000000],ch
  41:	00 00                	add    BYTE PTR [eax],al
	...

Дизассемблирование раздела .text.__x86.get_pc_thunk.ax:

00000000 <__x86.get_pc_thunk.ax>:
   0:	8b 04 24             	mov    eax,DWORD PTR [esp]
   3:	c3                   	ret    

Дизассемблирование раздела .text.__x86.get_pc_thunk.cx:

00000000 <__x86.get_pc_thunk.cx>:
   0:	8b 0c 24             	mov    ecx,DWORD PTR [esp]
   3:	c3                   	ret    

Дизассемблирование раздела .text.__x86.get_pc_thunk.bx:

00000000 <__x86.get_pc_thunk.bx>:
   0:	8b 1c 24             	mov    ebx,DWORD PTR [esp]
   3:	c3                   	ret    

Дизассемблирование раздела .comment:

00000000 <.comment>:
   0:	00 47 43             	add    BYTE PTR [edi+0x43],al
   3:	43                   	inc    ebx
   4:	3a 20                	cmp    ah,BYTE PTR [eax]
   6:	28 44 65 62          	sub    BYTE PTR [ebp+eiz*2+0x62],al
   a:	69 61 6e 20 31 30 2e 	imul   esp,DWORD PTR [ecx+0x6e],0x2e303120
  11:	32 2e                	xor    ch,BYTE PTR [esi]
  13:	31 2d 36 29 20 31    	xor    DWORD PTR ds:0x31202936,ebp
  19:	30 2e                	xor    BYTE PTR [esi],ch
  1b:	32 2e                	xor    ch,BYTE PTR [esi]
  1d:	31 20                	xor    DWORD PTR [eax],esp
  1f:	32 30                	xor    dh,BYTE PTR [eax]
  21:	32 31                	xor    dh,BYTE PTR [ecx]
  23:	30 31                	xor    BYTE PTR [ecx],dh
  25:	31 30                	xor    DWORD PTR [eax],esi
	...

Дизассемблирование раздела .eh_frame:

00000000 <.eh_frame>:
   0:	14 00                	adc    al,0x0
   2:	00 00                	add    BYTE PTR [eax],al
   4:	00 00                	add    BYTE PTR [eax],al
   6:	00 00                	add    BYTE PTR [eax],al
   8:	01 7a 52             	add    DWORD PTR [edx+0x52],edi
   b:	00 01                	add    BYTE PTR [ecx],al
   d:	7c 08                	jl     17 <.eh_frame+0x17>
   f:	01 1b                	add    DWORD PTR [ebx],ebx
  11:	0c 04                	or     al,0x4
  13:	04 88                	add    al,0x88
  15:	01 00                	add    DWORD PTR [eax],eax
  17:	00 20                	add    BYTE PTR [eax],ah
  19:	00 00                	add    BYTE PTR [eax],al
  1b:	00 1c 00             	add    BYTE PTR [eax+eax*1],bl
  1e:	00 00                	add    BYTE PTR [eax],al
  20:	00 00                	add    BYTE PTR [eax],al
  22:	00 00                	add    BYTE PTR [eax],al
  24:	3d 01 00 00 00       	cmp    eax,0x1
  29:	41                   	inc    ecx
  2a:	0e                   	push   cs
  2b:	08 85 02 42 0d 05    	or     BYTE PTR [ebp+0x50d4202],al
  31:	44                   	inc    esp
  32:	83 03 03             	add    DWORD PTR [ebx],0x3
  35:	35 01 c5 c3 0c       	xor    eax,0xcc3c501
  3a:	04 04                	add    al,0x4
  3c:	1c 00                	sbb    al,0x0
  3e:	00 00                	add    BYTE PTR [eax],al
  40:	40                   	inc    eax
  41:	00 00                	add    BYTE PTR [eax],al
  43:	00 3d 01 00 00 55    	add    BYTE PTR ds:0x55000001,bh
  49:	01 00                	add    DWORD PTR [eax],eax
  4b:	00 00                	add    BYTE PTR [eax],al
  4d:	41                   	inc    ecx
  4e:	0e                   	push   cs
  4f:	08 85 02 42 0d 05    	or     BYTE PTR [ebp+0x50d4202],al
  55:	03 51 01             	add    edx,DWORD PTR [ecx+0x1]
  58:	c5 0c 04             	lds    ecx,FWORD PTR [esp+eax*1]
  5b:	04 1c                	add    al,0x1c
  5d:	00 00                	add    BYTE PTR [eax],al
  5f:	00 60 00             	add    BYTE PTR [eax+0x0],ah
  62:	00 00                	add    BYTE PTR [eax],al
  64:	92                   	xchg   edx,eax
  65:	02 00                	add    al,BYTE PTR [eax]
  67:	00 49 00             	add    BYTE PTR [ecx+0x0],cl
  6a:	00 00                	add    BYTE PTR [eax],al
  6c:	00 41 0e             	add    BYTE PTR [ecx+0xe],al
  6f:	08 85 02 42 0d 05    	or     BYTE PTR [ebp+0x50d4202],al
  75:	02 45 c5             	add    al,BYTE PTR [ebp-0x3b]
  78:	0c 04                	or     al,0x4
  7a:	04 00                	add    al,0x0
  7c:	20 00                	and    BYTE PTR [eax],al
  7e:	00 00                	add    BYTE PTR [eax],al
  80:	80 00 00             	add    BYTE PTR [eax],0x0
  83:	00 db                	add    bl,bl
  85:	02 00                	add    al,BYTE PTR [eax]
  87:	00 6b 02             	add    BYTE PTR [ebx+0x2],ch
  8a:	00 00                	add    BYTE PTR [eax],al
  8c:	00 41 0e             	add    BYTE PTR [ecx+0xe],al
  8f:	08 85 02 42 0d 05    	or     BYTE PTR [ebp+0x50d4202],al
  95:	44                   	inc    esp
  96:	83 03 03             	add    DWORD PTR [ebx],0x3
  99:	63 02                	arpl   WORD PTR [edx],ax
  9b:	c5 c3 0c             	(bad)
  9e:	04 04                	add    al,0x4
  a0:	20 00                	and    BYTE PTR [eax],al
  a2:	00 00                	add    BYTE PTR [eax],al
  a4:	a4                   	movs   BYTE PTR es:[edi],BYTE PTR ds:[esi]
  a5:	00 00                	add    BYTE PTR [eax],al
  a7:	00 46 05             	add    BYTE PTR [esi+0x5],al
  aa:	00 00                	add    BYTE PTR [eax],al
  ac:	35 01 00 00 00       	xor    eax,0x1
  b1:	41                   	inc    ecx
  b2:	0e                   	push   cs
  b3:	08 85 02 42 0d 05    	or     BYTE PTR [ebp+0x50d4202],al
  b9:	44                   	inc    esp
  ba:	83 03 03             	add    DWORD PTR [ebx],0x3
  bd:	2d 01 c5 c3 0c       	sub    eax,0xcc3c501
  c2:	04 04                	add    al,0x4
  c4:	1c 00                	sbb    al,0x0
  c6:	00 00                	add    BYTE PTR [eax],al
  c8:	c8 00 00 00          	enter  0x0,0x0
  cc:	7b 06                	jnp    d4 <.eh_frame+0xd4>
  ce:	00 00                	add    BYTE PTR [eax],al
  d0:	19 00                	sbb    DWORD PTR [eax],eax
  d2:	00 00                	add    BYTE PTR [eax],al
  d4:	00 41 0e             	add    BYTE PTR [ecx+0xe],al
  d7:	08 85 02 42 0d 05    	or     BYTE PTR [ebp+0x50d4202],al
  dd:	55                   	push   ebp
  de:	c5 0c 04             	lds    ecx,FWORD PTR [esp+eax*1]
  e1:	04 00                	add    al,0x0
  e3:	00 20                	add    BYTE PTR [eax],ah
  e5:	00 00                	add    BYTE PTR [eax],al
  e7:	00 e8                	add    al,ch
  e9:	00 00                	add    BYTE PTR [eax],al
  eb:	00 94 06 00 00 85 00 	add    BYTE PTR [esi+eax*1+0x850000],dl
  f2:	00 00                	add    BYTE PTR [eax],al
  f4:	00 41 0e             	add    BYTE PTR [ecx+0xe],al
  f7:	08 85 02 42 0d 05    	or     BYTE PTR [ebp+0x50d4202],al
  fd:	44                   	inc    esp
  fe:	83 03 02             	add    DWORD PTR [ebx],0x2
 101:	7d c5                	jge    c8 <.eh_frame+0xc8>
 103:	c3                   	ret    
 104:	0c 04                	or     al,0x4
 106:	04 00                	add    al,0x0
 108:	20 00                	and    BYTE PTR [eax],al
 10a:	00 00                	add    BYTE PTR [eax],al
 10c:	0c 01                	or     al,0x1
 10e:	00 00                	add    BYTE PTR [eax],al
 110:	19 07                	sbb    DWORD PTR [edi],eax
 112:	00 00                	add    BYTE PTR [eax],al
 114:	39 00                	cmp    DWORD PTR [eax],eax
 116:	00 00                	add    BYTE PTR [eax],al
 118:	00 41 0e             	add    BYTE PTR [ecx+0xe],al
 11b:	08 85 02 42 0d 05    	or     BYTE PTR [ebp+0x50d4202],al
 121:	44                   	inc    esp
 122:	83 03 71             	add    DWORD PTR [ebx],0x71
 125:	c5 c3 0c             	(bad)
 128:	04 04                	add    al,0x4
 12a:	00 00                	add    BYTE PTR [eax],al
 12c:	20 00                	and    BYTE PTR [eax],al
 12e:	00 00                	add    BYTE PTR [eax],al
 130:	30 01                	xor    BYTE PTR [ecx],al
 132:	00 00                	add    BYTE PTR [eax],al
 134:	52                   	push   edx
 135:	07                   	pop    es
 136:	00 00                	add    BYTE PTR [eax],al
 138:	64 02 00             	add    al,BYTE PTR fs:[eax]
 13b:	00 00                	add    BYTE PTR [eax],al
 13d:	41                   	inc    ecx
 13e:	0e                   	push   cs
 13f:	08 85 02 42 0d 05    	or     BYTE PTR [ebp+0x50d4202],al
 145:	44                   	inc    esp
 146:	83 03 03             	add    DWORD PTR [ebx],0x3
 149:	5c                   	pop    esp
 14a:	02 c5                	add    al,ch
 14c:	c3                   	ret    
 14d:	0c 04                	or     al,0x4
 14f:	04 20                	add    al,0x20
 151:	00 00                	add    BYTE PTR [eax],al
 153:	00 54 01 00          	add    BYTE PTR [ecx+eax*1+0x0],dl
 157:	00 b6 09 00 00 c2    	add    BYTE PTR [esi-0x3dfffff7],dh
 15d:	00 00                	add    BYTE PTR [eax],al
 15f:	00 00                	add    BYTE PTR [eax],al
 161:	41                   	inc    ecx
 162:	0e                   	push   cs
 163:	08 85 02 42 0d 05    	or     BYTE PTR [ebp+0x50d4202],al
 169:	44                   	inc    esp
 16a:	83 03 02             	add    DWORD PTR [ebx],0x2
 16d:	ba c5 c3 0c 04       	mov    edx,0x40cc3c5
 172:	04 00                	add    al,0x0
 174:	20 00                	and    BYTE PTR [eax],al
 176:	00 00                	add    BYTE PTR [eax],al
 178:	78 01                	js     17b <.eh_frame+0x17b>
 17a:	00 00                	add    BYTE PTR [eax],al
 17c:	78 0a                	js     188 <.eh_frame+0x188>
 17e:	00 00                	add    BYTE PTR [eax],al
 180:	5c                   	pop    esp
 181:	00 00                	add    BYTE PTR [eax],al
 183:	00 00                	add    BYTE PTR [eax],al
 185:	41                   	inc    ecx
 186:	0e                   	push   cs
 187:	08 85 02 42 0d 05    	or     BYTE PTR [ebp+0x50d4202],al
 18d:	44                   	inc    esp
 18e:	83 03 02             	add    DWORD PTR [ebx],0x2
 191:	54                   	push   esp
 192:	c5 c3 0c             	(bad)
 195:	04 04                	add    al,0x4
 197:	00 20                	add    BYTE PTR [eax],ah
 199:	00 00                	add    BYTE PTR [eax],al
 19b:	00 9c 01 00 00 d4 0a 	add    BYTE PTR [ecx+eax*1+0xad40000],bl
 1a2:	00 00                	add    BYTE PTR [eax],al
 1a4:	a3 00 00 00 00       	mov    ds:0x0,eax
 1a9:	41                   	inc    ecx
 1aa:	0e                   	push   cs
 1ab:	08 85 02 42 0d 05    	or     BYTE PTR [ebp+0x50d4202],al
 1b1:	44                   	inc    esp
 1b2:	83 03 02             	add    DWORD PTR [ebx],0x2
 1b5:	9b                   	fwait
 1b6:	c5 c3 0c             	(bad)
 1b9:	04 04                	add    al,0x4
 1bb:	00 2c 00             	add    BYTE PTR [eax+eax*1],ch
 1be:	00 00                	add    BYTE PTR [eax],al
 1c0:	c0 01 00             	rol    BYTE PTR [ecx],0x0
 1c3:	00 77 0b             	add    BYTE PTR [edi+0xb],dh
 1c6:	00 00                	add    BYTE PTR [eax],al
 1c8:	13 08                	adc    ecx,DWORD PTR [eax]
 1ca:	00 00                	add    BYTE PTR [eax],al
 1cc:	00 41 0e             	add    BYTE PTR [ecx+0xe],al
 1cf:	08 85 02 42 0d 05    	or     BYTE PTR [ebp+0x50d4202],al
 1d5:	46                   	inc    esi
 1d6:	87 03                	xchg   DWORD PTR [ebx],eax
 1d8:	86 04 83             	xchg   BYTE PTR [ebx+eax*4],al
 1db:	05 03 06 08 c3       	add    eax,0xc3080603
 1e0:	41                   	inc    ecx
 1e1:	c6 41 c7 41          	mov    BYTE PTR [ecx-0x39],0x41
 1e5:	c5 0c 04             	lds    ecx,FWORD PTR [esp+eax*1]
 1e8:	04 00                	add    al,0x0
 1ea:	00 00                	add    BYTE PTR [eax],al
 1ec:	28 00                	sub    BYTE PTR [eax],al
 1ee:	00 00                	add    BYTE PTR [eax],al
 1f0:	f0 01 00             	lock add DWORD PTR [eax],eax
 1f3:	00 8a 13 00 00 6c    	add    BYTE PTR [edx+0x6c000013],cl
 1f9:	01 00                	add    DWORD PTR [eax],eax
 1fb:	00 00                	add    BYTE PTR [eax],al
 1fd:	41                   	inc    ecx
 1fe:	0e                   	push   cs
 1ff:	08 85 02 42 0d 05    	or     BYTE PTR [ebp+0x50d4202],al
 205:	45                   	inc    ebp
 206:	86 03                	xchg   BYTE PTR [ebx],al
 208:	83 04 03 61          	add    DWORD PTR [ebx+eax*1],0x61
 20c:	01 c3                	add    ebx,eax
 20e:	41                   	inc    ecx
 20f:	c6 41 c5 0c          	mov    BYTE PTR [ecx-0x3b],0xc
 213:	04 04                	add    al,0x4
 215:	00 00                	add    BYTE PTR [eax],al
 217:	00 24 00             	add    BYTE PTR [eax+eax*1],ah
 21a:	00 00                	add    BYTE PTR [eax],al
 21c:	1c 02                	sbb    al,0x2
 21e:	00 00                	add    BYTE PTR [eax],al
 220:	f6 14 00             	not    BYTE PTR [eax+eax*1]
 223:	00 db                	add    bl,bl
 225:	00 00                	add    BYTE PTR [eax],al
 227:	00 00                	add    BYTE PTR [eax],al
 229:	41                   	inc    ecx
 22a:	0e                   	push   cs
 22b:	08 85 02 42 0d 05    	or     BYTE PTR [ebp+0x50d4202],al
 231:	45                   	inc    ebp
 232:	86 03                	xchg   BYTE PTR [ebx],al
 234:	83 04 02 d0          	add    DWORD PTR [edx+eax*1],0xffffffd0
 238:	c3                   	ret    
 239:	41                   	inc    ecx
 23a:	c6 41 c5 0c          	mov    BYTE PTR [ecx-0x3b],0xc
 23e:	04 04                	add    al,0x4
 240:	28 00                	sub    BYTE PTR [eax],al
 242:	00 00                	add    BYTE PTR [eax],al
 244:	44                   	inc    esp
 245:	02 00                	add    al,BYTE PTR [eax]
 247:	00 d1                	add    cl,dl
 249:	15 00 00 55 01       	adc    eax,0x1550000
 24e:	00 00                	add    BYTE PTR [eax],al
 250:	00 41 0e             	add    BYTE PTR [ecx+0xe],al
 253:	08 85 02 42 0d 05    	or     BYTE PTR [ebp+0x50d4202],al
 259:	45                   	inc    ebp
 25a:	86 03                	xchg   BYTE PTR [ebx],al
 25c:	83 04 03 4a          	add    DWORD PTR [ebx+eax*1],0x4a
 260:	01 c3                	add    ebx,eax
 262:	41                   	inc    ecx
 263:	c6 41 c5 0c          	mov    BYTE PTR [ecx-0x3b],0xc
 267:	04 04                	add    al,0x4
 269:	00 00                	add    BYTE PTR [eax],al
 26b:	00 28                	add    BYTE PTR [eax],ch
 26d:	00 00                	add    BYTE PTR [eax],al
 26f:	00 70 02             	add    BYTE PTR [eax+0x2],dh
 272:	00 00                	add    BYTE PTR [eax],al
 274:	26 17                	es pop ss
 276:	00 00                	add    BYTE PTR [eax],al
 278:	9f                   	lahf   
 279:	01 00                	add    DWORD PTR [eax],eax
 27b:	00 00                	add    BYTE PTR [eax],al
 27d:	41                   	inc    ecx
 27e:	0e                   	push   cs
 27f:	08 85 02 42 0d 05    	or     BYTE PTR [ebp+0x50d4202],al
 285:	42                   	inc    edx
 286:	86 03                	xchg   BYTE PTR [ebx],al
 288:	83 04 03 97          	add    DWORD PTR [ebx+eax*1],0xffffff97
 28c:	01 c3                	add    ebx,eax
 28e:	41                   	inc    ecx
 28f:	c6 41 c5 0c          	mov    BYTE PTR [ecx-0x3b],0xc
 293:	04 04                	add    al,0x4
 295:	00 00                	add    BYTE PTR [eax],al
 297:	00 20                	add    BYTE PTR [eax],ah
 299:	00 00                	add    BYTE PTR [eax],al
 29b:	00 9c 02 00 00 c5 18 	add    BYTE PTR [edx+eax*1+0x18c50000],bl
 2a2:	00 00                	add    BYTE PTR [eax],al
 2a4:	96                   	xchg   esi,eax
 2a5:	01 00                	add    DWORD PTR [eax],eax
 2a7:	00 00                	add    BYTE PTR [eax],al
 2a9:	41                   	inc    ecx
 2aa:	0e                   	push   cs
 2ab:	08 85 02 42 0d 05    	or     BYTE PTR [ebp+0x50d4202],al
 2b1:	47                   	inc    edi
 2b2:	83 03 03             	add    DWORD PTR [ebx],0x3
 2b5:	8b 01                	mov    eax,DWORD PTR [ecx]
 2b7:	c5 c3 0c             	(bad)
 2ba:	04 04                	add    al,0x4
 2bc:	28 00                	sub    BYTE PTR [eax],al
 2be:	00 00                	add    BYTE PTR [eax],al
 2c0:	c0 02 00             	rol    BYTE PTR [edx],0x0
 2c3:	00 5b 1a             	add    BYTE PTR [ebx+0x1a],bl
 2c6:	00 00                	add    BYTE PTR [eax],al
