
crycon_linux.o:     формат файла elf32-i386


Дизассемблирование раздела .group:

00000000 <.group>:
   0:	01 00                	add    DWORD PTR [eax],eax
   2:	00 00                	add    BYTE PTR [eax],al
   4:	0c 00                	or     al,0x0
	...

Дизассемблирование раздела .group:

00000000 <.group>:
   0:	01 00                	add    DWORD PTR [eax],eax
   2:	00 00                	add    BYTE PTR [eax],al
   4:	0d                   	.byte 0xd
   5:	00 00                	add    BYTE PTR [eax],al
	...

Дизассемблирование раздела .group:

00000000 <.group>:
   0:	01 00                	add    DWORD PTR [eax],eax
   2:	00 00                	add    BYTE PTR [eax],al
   4:	0e                   	push   cs
   5:	00 00                	add    BYTE PTR [eax],al
	...

Дизассемблирование раздела .text:

00000000 <free_global_memory>:
       0:	55                   	push   ebp
       1:	89 e5                	mov    ebp,esp
       3:	53                   	push   ebx
       4:	83 ec 04             	sub    esp,0x4
       7:	e8 fc ff ff ff       	call   8 <free_global_memory+0x8>
       c:	81 c3 02 00 00 00    	add    ebx,0x2
      12:	8b 45 08             	mov    eax,DWORD PTR [ebp+0x8]
      15:	8b 40 08             	mov    eax,DWORD PTR [eax+0x8]
      18:	85 c0                	test   eax,eax
      1a:	74 25                	je     41 <free_global_memory+0x41>
      1c:	8b 45 08             	mov    eax,DWORD PTR [ebp+0x8]
      1f:	8b 40 0c             	mov    eax,DWORD PTR [eax+0xc]
      22:	85 c0                	test   eax,eax
      24:	74 1b                	je     41 <free_global_memory+0x41>
      26:	8b 45 08             	mov    eax,DWORD PTR [ebp+0x8]
      29:	8b 50 0c             	mov    edx,DWORD PTR [eax+0xc]
      2c:	8b 45 08             	mov    eax,DWORD PTR [ebp+0x8]
      2f:	8b 40 08             	mov    eax,DWORD PTR [eax+0x8]
      32:	83 ec 04             	sub    esp,0x4
      35:	52                   	push   edx
      36:	6a 00                	push   0x0
      38:	50                   	push   eax
      39:	e8 fc ff ff ff       	call   3a <free_global_memory+0x3a>
      3e:	83 c4 10             	add    esp,0x10
      41:	8b 45 08             	mov    eax,DWORD PTR [ebp+0x8]
      44:	8b 40 10             	mov    eax,DWORD PTR [eax+0x10]
      47:	85 c0                	test   eax,eax
      49:	74 25                	je     70 <free_global_memory+0x70>
      4b:	8b 45 08             	mov    eax,DWORD PTR [ebp+0x8]
      4e:	8b 40 14             	mov    eax,DWORD PTR [eax+0x14]
      51:	85 c0                	test   eax,eax
      53:	74 1b                	je     70 <free_global_memory+0x70>
      55:	8b 45 08             	mov    eax,DWORD PTR [ebp+0x8]
      58:	8b 50 14             	mov    edx,DWORD PTR [eax+0x14]
      5b:	8b 45 08             	mov    eax,DWORD PTR [ebp+0x8]
      5e:	8b 40 10             	mov    eax,DWORD PTR [eax+0x10]
      61:	83 ec 04             	sub    esp,0x4
      64:	52                   	push   edx
      65:	6a 00                	push   0x0
      67:	50                   	push   eax
      68:	e8 fc ff ff ff       	call   69 <free_global_memory+0x69>
      6d:	83 c4 10             	add    esp,0x10
      70:	8b 45 08             	mov    eax,DWORD PTR [ebp+0x8]
      73:	8b 40 18             	mov    eax,DWORD PTR [eax+0x18]
      76:	85 c0                	test   eax,eax
      78:	74 25                	je     9f <free_global_memory+0x9f>
      7a:	8b 45 08             	mov    eax,DWORD PTR [ebp+0x8]
      7d:	8b 40 1c             	mov    eax,DWORD PTR [eax+0x1c]
      80:	85 c0                	test   eax,eax
      82:	74 1b                	je     9f <free_global_memory+0x9f>
      84:	8b 45 08             	mov    eax,DWORD PTR [ebp+0x8]
      87:	8b 50 1c             	mov    edx,DWORD PTR [eax+0x1c]
      8a:	8b 45 08             	mov    eax,DWORD PTR [ebp+0x8]
      8d:	8b 40 18             	mov    eax,DWORD PTR [eax+0x18]
      90:	83 ec 04             	sub    esp,0x4
      93:	52                   	push   edx
      94:	6a 00                	push   0x0
      96:	50                   	push   eax
      97:	e8 fc ff ff ff       	call   98 <free_global_memory+0x98>
      9c:	83 c4 10             	add    esp,0x10
      9f:	8b 45 08             	mov    eax,DWORD PTR [ebp+0x8]
      a2:	8b 40 20             	mov    eax,DWORD PTR [eax+0x20]
      a5:	85 c0                	test   eax,eax
      a7:	74 25                	je     ce <free_global_memory+0xce>
      a9:	8b 45 08             	mov    eax,DWORD PTR [ebp+0x8]
      ac:	8b 40 24             	mov    eax,DWORD PTR [eax+0x24]
      af:	85 c0                	test   eax,eax
      b1:	74 1b                	je     ce <free_global_memory+0xce>
      b3:	8b 45 08             	mov    eax,DWORD PTR [ebp+0x8]
      b6:	8b 50 24             	mov    edx,DWORD PTR [eax+0x24]
      b9:	8b 45 08             	mov    eax,DWORD PTR [ebp+0x8]
      bc:	8b 40 20             	mov    eax,DWORD PTR [eax+0x20]
      bf:	83 ec 04             	sub    esp,0x4
      c2:	52                   	push   edx
      c3:	6a 00                	push   0x0
      c5:	50                   	push   eax
      c6:	e8 fc ff ff ff       	call   c7 <free_global_memory+0xc7>
      cb:	83 c4 10             	add    esp,0x10
      ce:	8b 45 08             	mov    eax,DWORD PTR [ebp+0x8]
      d1:	8b 40 08             	mov    eax,DWORD PTR [eax+0x8]
      d4:	83 ec 0c             	sub    esp,0xc
      d7:	50                   	push   eax
      d8:	e8 fc ff ff ff       	call   d9 <free_global_memory+0xd9>
      dd:	83 c4 10             	add    esp,0x10
      e0:	8b 45 08             	mov    eax,DWORD PTR [ebp+0x8]
      e3:	8b 40 20             	mov    eax,DWORD PTR [eax+0x20]
      e6:	83 ec 0c             	sub    esp,0xc
      e9:	50                   	push   eax
      ea:	e8 fc ff ff ff       	call   eb <free_global_memory+0xeb>
      ef:	83 c4 10             	add    esp,0x10
      f2:	8b 45 08             	mov    eax,DWORD PTR [ebp+0x8]
      f5:	8b 40 10             	mov    eax,DWORD PTR [eax+0x10]
      f8:	83 ec 0c             	sub    esp,0xc
      fb:	50                   	push   eax
      fc:	e8 fc ff ff ff       	call   fd <free_global_memory+0xfd>
     101:	83 c4 10             	add    esp,0x10
     104:	8b 45 08             	mov    eax,DWORD PTR [ebp+0x8]
     107:	8b 40 18             	mov    eax,DWORD PTR [eax+0x18]
     10a:	83 ec 0c             	sub    esp,0xc
     10d:	50                   	push   eax
     10e:	e8 fc ff ff ff       	call   10f <free_global_memory+0x10f>
     113:	83 c4 10             	add    esp,0x10
     116:	83 ec 04             	sub    esp,0x4
     119:	ff 75 0c             	push   DWORD PTR [ebp+0xc]
     11c:	6a 00                	push   0x0
     11e:	ff 75 08             	push   DWORD PTR [ebp+0x8]
     121:	e8 fc ff ff ff       	call   122 <free_global_memory+0x122>
     126:	83 c4 10             	add    esp,0x10
     129:	83 ec 0c             	sub    esp,0xc
     12c:	ff 75 08             	push   DWORD PTR [ebp+0x8]
     12f:	e8 fc ff ff ff       	call   130 <free_global_memory+0x130>
     134:	83 c4 10             	add    esp,0x10
     137:	90                   	nop
     138:	8b 5d fc             	mov    ebx,DWORD PTR [ebp-0x4]
     13b:	c9                   	leave  
     13c:	c3                   	ret    

0000013d <size_check>:
     13d:	55                   	push   ebp
     13e:	89 e5                	mov    ebp,esp
     140:	83 ec 18             	sub    esp,0x18
     143:	e8 fc ff ff ff       	call   144 <size_check+0x7>
     148:	05 01 00 00 00       	add    eax,0x1
     14d:	8b 45 08             	mov    eax,DWORD PTR [ebp+0x8]
     150:	89 45 e8             	mov    DWORD PTR [ebp-0x18],eax
     153:	8b 45 0c             	mov    eax,DWORD PTR [ebp+0xc]
     156:	89 45 ec             	mov    DWORD PTR [ebp-0x14],eax
     159:	c7 45 fc 00 00 00 00 	mov    DWORD PTR [ebp-0x4],0x0
     160:	b8 00 04 00 00       	mov    eax,0x400
     165:	ba 00 00 00 00       	mov    edx,0x0
     16a:	8b 4d ec             	mov    ecx,DWORD PTR [ebp-0x14]
     16d:	39 45 e8             	cmp    DWORD PTR [ebp-0x18],eax
     170:	19 d1                	sbb    ecx,edx
     172:	7c 20                	jl     194 <size_check+0x57>
     174:	b8 00 00 10 00       	mov    eax,0x100000
     179:	ba 00 00 00 00       	mov    edx,0x0
     17e:	8b 4d ec             	mov    ecx,DWORD PTR [ebp-0x14]
     181:	39 45 e8             	cmp    DWORD PTR [ebp-0x18],eax
     184:	19 d1                	sbb    ecx,edx
     186:	7d 0c                	jge    194 <size_check+0x57>
     188:	c7 45 fc 01 00 00 00 	mov    DWORD PTR [ebp-0x4],0x1
     18f:	e9 e2 00 00 00       	jmp    276 <size_check+0x139>
     194:	b8 00 00 10 00       	mov    eax,0x100000
     199:	ba 00 00 00 00       	mov    edx,0x0
     19e:	8b 4d ec             	mov    ecx,DWORD PTR [ebp-0x14]
     1a1:	39 45 e8             	cmp    DWORD PTR [ebp-0x18],eax
     1a4:	19 d1                	sbb    ecx,edx
     1a6:	7c 20                	jl     1c8 <size_check+0x8b>
     1a8:	b8 00 00 00 40       	mov    eax,0x40000000
     1ad:	ba 00 00 00 00       	mov    edx,0x0
     1b2:	8b 4d ec             	mov    ecx,DWORD PTR [ebp-0x14]
     1b5:	39 45 e8             	cmp    DWORD PTR [ebp-0x18],eax
     1b8:	19 d1                	sbb    ecx,edx
     1ba:	7d 0c                	jge    1c8 <size_check+0x8b>
     1bc:	c7 45 fc 02 00 00 00 	mov    DWORD PTR [ebp-0x4],0x2
     1c3:	e9 ae 00 00 00       	jmp    276 <size_check+0x139>
     1c8:	b8 00 00 00 40       	mov    eax,0x40000000
     1cd:	ba 00 00 00 00       	mov    edx,0x0
     1d2:	8b 4d ec             	mov    ecx,DWORD PTR [ebp-0x14]
     1d5:	39 45 e8             	cmp    DWORD PTR [ebp-0x18],eax
     1d8:	19 d1                	sbb    ecx,edx
     1da:	7c 1d                	jl     1f9 <size_check+0xbc>
     1dc:	b8 00 00 00 00       	mov    eax,0x0
     1e1:	ba 00 01 00 00       	mov    edx,0x100
     1e6:	8b 4d ec             	mov    ecx,DWORD PTR [ebp-0x14]
     1e9:	39 45 e8             	cmp    DWORD PTR [ebp-0x18],eax
     1ec:	19 d1                	sbb    ecx,edx
     1ee:	7d 09                	jge    1f9 <size_check+0xbc>
     1f0:	c7 45 fc 03 00 00 00 	mov    DWORD PTR [ebp-0x4],0x3
     1f7:	eb 7d                	jmp    276 <size_check+0x139>
     1f9:	b8 00 00 00 00       	mov    eax,0x0
     1fe:	ba 00 01 00 00       	mov    edx,0x100
     203:	8b 4d ec             	mov    ecx,DWORD PTR [ebp-0x14]
     206:	39 45 e8             	cmp    DWORD PTR [ebp-0x18],eax
     209:	19 d1                	sbb    ecx,edx
     20b:	7c 1d                	jl     22a <size_check+0xed>
     20d:	b8 00 00 00 00       	mov    eax,0x0
     212:	ba 00 00 04 00       	mov    edx,0x40000
     217:	8b 4d ec             	mov    ecx,DWORD PTR [ebp-0x14]
     21a:	39 45 e8             	cmp    DWORD PTR [ebp-0x18],eax
     21d:	19 d1                	sbb    ecx,edx
     21f:	7d 09                	jge    22a <size_check+0xed>
     221:	c7 45 fc 04 00 00 00 	mov    DWORD PTR [ebp-0x4],0x4
     228:	eb 4c                	jmp    276 <size_check+0x139>
     22a:	b8 00 00 00 00       	mov    eax,0x0
     22f:	ba 00 00 04 00       	mov    edx,0x40000
     234:	8b 4d ec             	mov    ecx,DWORD PTR [ebp-0x14]
     237:	39 45 e8             	cmp    DWORD PTR [ebp-0x18],eax
     23a:	19 d1                	sbb    ecx,edx
     23c:	7c 1d                	jl     25b <size_check+0x11e>
     23e:	b8 00 00 00 00       	mov    eax,0x0
     243:	ba 00 00 00 10       	mov    edx,0x10000000
     248:	8b 4d ec             	mov    ecx,DWORD PTR [ebp-0x14]
     24b:	39 45 e8             	cmp    DWORD PTR [ebp-0x18],eax
     24e:	19 d1                	sbb    ecx,edx
     250:	7d 09                	jge    25b <size_check+0x11e>
     252:	c7 45 fc 05 00 00 00 	mov    DWORD PTR [ebp-0x4],0x5
     259:	eb 1b                	jmp    276 <size_check+0x139>
     25b:	b8 00 00 00 00       	mov    eax,0x0
     260:	ba 00 00 00 10       	mov    edx,0x10000000
     265:	8b 4d ec             	mov    ecx,DWORD PTR [ebp-0x14]
     268:	39 45 e8             	cmp    DWORD PTR [ebp-0x18],eax
     26b:	19 d1                	sbb    ecx,edx
     26d:	7c 07                	jl     276 <size_check+0x139>
     26f:	c7 45 fc 06 00 00 00 	mov    DWORD PTR [ebp-0x4],0x6
     276:	8b 45 fc             	mov    eax,DWORD PTR [ebp-0x4]
     279:	c9                   	leave  
     27a:	c3                   	ret    

0000027b <sizetodoubleprint>:
     27b:	55                   	push   ebp
     27c:	89 e5                	mov    ebp,esp
     27e:	83 ec 10             	sub    esp,0x10
     281:	e8 fc ff ff ff       	call   282 <sizetodoubleprint+0x7>
     286:	05 01 00 00 00       	add    eax,0x1
     28b:	8b 55 0c             	mov    edx,DWORD PTR [ebp+0xc]
     28e:	89 55 f8             	mov    DWORD PTR [ebp-0x8],edx
     291:	8b 55 10             	mov    edx,DWORD PTR [ebp+0x10]
     294:	89 55 fc             	mov    DWORD PTR [ebp-0x4],edx
     297:	83 7d 08 00          	cmp    DWORD PTR [ebp+0x8],0x0
     29b:	74 22                	je     2bf <sizetodoubleprint+0x44>
     29d:	8b 55 08             	mov    edx,DWORD PTR [ebp+0x8]
     2a0:	83 ea 01             	sub    edx,0x1
     2a3:	8d 94 d0 40 00 00 00 	lea    edx,[eax+edx*8+0x40]
     2aa:	8b 02                	mov    eax,DWORD PTR [edx]
     2ac:	8b 52 04             	mov    edx,DWORD PTR [edx+0x4]
     2af:	89 45 f0             	mov    DWORD PTR [ebp-0x10],eax
     2b2:	89 55 f4             	mov    DWORD PTR [ebp-0xc],edx
     2b5:	df 6d f0             	fild   QWORD PTR [ebp-0x10]
     2b8:	dd 45 f8             	fld    QWORD PTR [ebp-0x8]
     2bb:	de f1                	fdivrp st(1),st
     2bd:	eb 03                	jmp    2c2 <sizetodoubleprint+0x47>
     2bf:	dd 45 f8             	fld    QWORD PTR [ebp-0x8]
     2c2:	c9                   	leave  
     2c3:	c3                   	ret    

000002c4 <KDFCLOMUL2>:
     2c4:	55                   	push   ebp
     2c5:	89 e5                	mov    ebp,esp
     2c7:	53                   	push   ebx
     2c8:	83 ec 34             	sub    esp,0x34
     2cb:	e8 fc ff ff ff       	call   2cc <KDFCLOMUL2+0x8>
     2d0:	81 c3 02 00 00 00    	add    ebx,0x2
     2d6:	8b 55 18             	mov    edx,DWORD PTR [ebp+0x18]
     2d9:	8b 45 10             	mov    eax,DWORD PTR [ebp+0x10]
     2dc:	01 d0                	add    eax,edx
     2de:	83 c0 01             	add    eax,0x1
     2e1:	c1 e0 05             	shl    eax,0x5
     2e4:	89 45 ec             	mov    DWORD PTR [ebp-0x14],eax
     2e7:	83 ec 0c             	sub    esp,0xc
     2ea:	ff 75 ec             	push   DWORD PTR [ebp-0x14]
     2ed:	e8 fc ff ff ff       	call   2ee <KDFCLOMUL2+0x2a>
     2f2:	83 c4 10             	add    esp,0x10
     2f5:	89 45 e8             	mov    DWORD PTR [ebp-0x18],eax
     2f8:	83 7d e8 00          	cmp    DWORD PTR [ebp-0x18],0x0
     2fc:	75 26                	jne    324 <KDFCLOMUL2+0x60>
     2fe:	8b 83 00 00 00 00    	mov    eax,DWORD PTR [ebx+0x0]
     304:	8b 00                	mov    eax,DWORD PTR [eax]
     306:	50                   	push   eax
     307:	6a 1c                	push   0x1c
     309:	6a 01                	push   0x1
     30b:	8d 83 c2 00 00 00    	lea    eax,[ebx+0xc2]
     311:	50                   	push   eax
     312:	e8 fc ff ff ff       	call   313 <KDFCLOMUL2+0x4f>
     317:	83 c4 10             	add    esp,0x10
     31a:	83 ec 0c             	sub    esp,0xc
     31d:	6a 01                	push   0x1
     31f:	e8 fc ff ff ff       	call   320 <KDFCLOMUL2+0x5c>
     324:	83 ec 08             	sub    esp,0x8
     327:	ff 75 e8             	push   DWORD PTR [ebp-0x18]
     32a:	8d 83 e0 00 00 00    	lea    eax,[ebx+0xe0]
     330:	50                   	push   eax
     331:	e8 fc ff ff ff       	call   332 <KDFCLOMUL2+0x6e>
     336:	83 c4 10             	add    esp,0x10
     339:	83 ec 08             	sub    esp,0x8
     33c:	ff 75 ec             	push   DWORD PTR [ebp-0x14]
     33f:	8d 83 0c 01 00 00    	lea    eax,[ebx+0x10c]
     345:	50                   	push   eax
     346:	e8 fc ff ff ff       	call   347 <KDFCLOMUL2+0x83>
     34b:	83 c4 10             	add    esp,0x10
     34e:	83 ec 0c             	sub    esp,0xc
     351:	6a 00                	push   0x0
     353:	e8 fc ff ff ff       	call   354 <KDFCLOMUL2+0x90>
     358:	83 c4 10             	add    esp,0x10
     35b:	83 ec 0c             	sub    esp,0xc
     35e:	50                   	push   eax
     35f:	e8 fc ff ff ff       	call   360 <KDFCLOMUL2+0x9c>
     364:	83 c4 10             	add    esp,0x10
     367:	e8 fc ff ff ff       	call   368 <KDFCLOMUL2+0xa4>
     36c:	89 45 e4             	mov    DWORD PTR [ebp-0x1c],eax
     36f:	83 ec 08             	sub    esp,0x8
     372:	ff 75 10             	push   DWORD PTR [ebp+0x10]
     375:	ff 75 0c             	push   DWORD PTR [ebp+0xc]
     378:	e8 fc ff ff ff       	call   379 <KDFCLOMUL2+0xb5>
     37d:	83 c4 10             	add    esp,0x10
     380:	89 45 e0             	mov    DWORD PTR [ebp-0x20],eax
     383:	c1 6d e0 10          	shr    DWORD PTR [ebp-0x20],0x10
     387:	81 4d e0 00 40 00 00 	or     DWORD PTR [ebp-0x20],0x4000
     38e:	8b 45 ec             	mov    eax,DWORD PTR [ebp-0x14]
     391:	c1 e8 05             	shr    eax,0x5
     394:	0f af 45 e0          	imul   eax,DWORD PTR [ebp-0x20]
     398:	89 c2                	mov    edx,eax
     39a:	8b 45 18             	mov    eax,DWORD PTR [ebp+0x18]
     39d:	c1 e8 05             	shr    eax,0x5
     3a0:	01 d0                	add    eax,edx
     3a2:	83 ec 08             	sub    esp,0x8
     3a5:	50                   	push   eax
     3a6:	8d 83 38 01 00 00    	lea    eax,[ebx+0x138]
     3ac:	50                   	push   eax
     3ad:	e8 fc ff ff ff       	call   3ae <KDFCLOMUL2+0xea>
     3b2:	83 c4 10             	add    esp,0x10
     3b5:	8b 45 08             	mov    eax,DWORD PTR [ebp+0x8]
     3b8:	8b 50 14             	mov    edx,DWORD PTR [eax+0x14]
     3bb:	8b 45 08             	mov    eax,DWORD PTR [ebp+0x8]
     3be:	8b 40 10             	mov    eax,DWORD PTR [eax+0x10]
     3c1:	83 ec 04             	sub    esp,0x4
     3c4:	52                   	push   edx
     3c5:	6a 00                	push   0x0
     3c7:	50                   	push   eax
     3c8:	e8 fc ff ff ff       	call   3c9 <KDFCLOMUL2+0x105>
     3cd:	83 c4 10             	add    esp,0x10
     3d0:	8b 45 08             	mov    eax,DWORD PTR [ebp+0x8]
     3d3:	8b 40 10             	mov    eax,DWORD PTR [eax+0x10]
     3d6:	83 ec 0c             	sub    esp,0xc
     3d9:	50                   	push   eax
     3da:	e8 fc ff ff ff       	call   3db <KDFCLOMUL2+0x117>
     3df:	83 c4 10             	add    esp,0x10
     3e2:	8b 45 08             	mov    eax,DWORD PTR [ebp+0x8]
     3e5:	8b 40 10             	mov    eax,DWORD PTR [eax+0x10]
     3e8:	83 ec 04             	sub    esp,0x4
     3eb:	ff 75 10             	push   DWORD PTR [ebp+0x10]
     3ee:	ff 75 0c             	push   DWORD PTR [ebp+0xc]
     3f1:	50                   	push   eax
     3f2:	e8 fc ff ff ff       	call   3f3 <KDFCLOMUL2+0x12f>
     3f7:	83 c4 10             	add    esp,0x10
     3fa:	8b 45 08             	mov    eax,DWORD PTR [ebp+0x8]
     3fd:	8b 40 10             	mov    eax,DWORD PTR [eax+0x10]
     400:	83 ec 0c             	sub    esp,0xc
     403:	50                   	push   eax
     404:	e8 fc ff ff ff       	call   405 <KDFCLOMUL2+0x141>
     409:	83 c4 10             	add    esp,0x10
     40c:	c7 45 f4 00 00 00 00 	mov    DWORD PTR [ebp-0xc],0x0
     413:	eb 24                	jmp    439 <KDFCLOMUL2+0x175>
     415:	8b 45 08             	mov    eax,DWORD PTR [ebp+0x8]
     418:	8b 40 10             	mov    eax,DWORD PTR [eax+0x10]
     41b:	8d 50 6c             	lea    edx,[eax+0x6c]
     41e:	8b 4d e8             	mov    ecx,DWORD PTR [ebp-0x18]
     421:	8b 45 f4             	mov    eax,DWORD PTR [ebp-0xc]
     424:	01 c8                	add    eax,ecx
     426:	83 ec 04             	sub    esp,0x4
     429:	6a 20                	push   0x20
     42b:	52                   	push   edx
     42c:	50                   	push   eax
     42d:	e8 fc ff ff ff       	call   42e <KDFCLOMUL2+0x16a>
     432:	83 c4 10             	add    esp,0x10
     435:	83 45 f4 20          	add    DWORD PTR [ebp-0xc],0x20
     439:	8b 45 f4             	mov    eax,DWORD PTR [ebp-0xc]
     43c:	3b 45 ec             	cmp    eax,DWORD PTR [ebp-0x14]
     43f:	72 d4                	jb     415 <KDFCLOMUL2+0x151>
     441:	c7 45 f4 00 00 00 00 	mov    DWORD PTR [ebp-0xc],0x0
     448:	eb 63                	jmp    4ad <KDFCLOMUL2+0x1e9>
     44a:	c7 45 f0 00 00 00 00 	mov    DWORD PTR [ebp-0x10],0x0
     451:	eb 1c                	jmp    46f <KDFCLOMUL2+0x1ab>
     453:	8b 45 08             	mov    eax,DWORD PTR [ebp+0x8]
     456:	8b 40 10             	mov    eax,DWORD PTR [eax+0x10]
     459:	83 ec 04             	sub    esp,0x4
     45c:	ff 75 10             	push   DWORD PTR [ebp+0x10]
     45f:	ff 75 0c             	push   DWORD PTR [ebp+0xc]
     462:	50                   	push   eax
     463:	e8 fc ff ff ff       	call   464 <KDFCLOMUL2+0x1a0>
     468:	83 c4 10             	add    esp,0x10
     46b:	83 45 f0 01          	add    DWORD PTR [ebp-0x10],0x1
     46f:	8b 45 f0             	mov    eax,DWORD PTR [ebp-0x10]
     472:	3b 45 e0             	cmp    eax,DWORD PTR [ebp-0x20]
     475:	72 dc                	jb     453 <KDFCLOMUL2+0x18f>
     477:	8b 45 08             	mov    eax,DWORD PTR [ebp+0x8]
     47a:	8b 40 10             	mov    eax,DWORD PTR [eax+0x10]
     47d:	83 ec 0c             	sub    esp,0xc
     480:	50                   	push   eax
     481:	e8 fc ff ff ff       	call   482 <KDFCLOMUL2+0x1be>
     486:	83 c4 10             	add    esp,0x10
     489:	8b 45 08             	mov    eax,DWORD PTR [ebp+0x8]
     48c:	8b 40 10             	mov    eax,DWORD PTR [eax+0x10]
     48f:	8d 50 6c             	lea    edx,[eax+0x6c]
     492:	8b 4d e8             	mov    ecx,DWORD PTR [ebp-0x18]
     495:	8b 45 f4             	mov    eax,DWORD PTR [ebp-0xc]
     498:	01 c8                	add    eax,ecx
     49a:	83 ec 04             	sub    esp,0x4
     49d:	6a 20                	push   0x20
     49f:	52                   	push   edx
     4a0:	50                   	push   eax
     4a1:	e8 fc ff ff ff       	call   4a2 <KDFCLOMUL2+0x1de>
     4a6:	83 c4 10             	add    esp,0x10
     4a9:	83 45 f4 20          	add    DWORD PTR [ebp-0xc],0x20
     4ad:	8b 45 f4             	mov    eax,DWORD PTR [ebp-0xc]
     4b0:	3b 45 ec             	cmp    eax,DWORD PTR [ebp-0x14]
     4b3:	72 95                	jb     44a <KDFCLOMUL2+0x186>
     4b5:	8b 45 08             	mov    eax,DWORD PTR [ebp+0x8]
     4b8:	8b 50 14             	mov    edx,DWORD PTR [eax+0x14]
     4bb:	8b 45 08             	mov    eax,DWORD PTR [ebp+0x8]
     4be:	8b 40 10             	mov    eax,DWORD PTR [eax+0x10]
     4c1:	83 ec 04             	sub    esp,0x4
     4c4:	52                   	push   edx
     4c5:	6a 00                	push   0x0
     4c7:	50                   	push   eax
     4c8:	e8 fc ff ff ff       	call   4c9 <KDFCLOMUL2+0x205>
     4cd:	83 c4 10             	add    esp,0x10
     4d0:	8b 45 08             	mov    eax,DWORD PTR [ebp+0x8]
     4d3:	8b 40 10             	mov    eax,DWORD PTR [eax+0x10]
     4d6:	83 ec 0c             	sub    esp,0xc
     4d9:	50                   	push   eax
     4da:	e8 fc ff ff ff       	call   4db <KDFCLOMUL2+0x217>
     4df:	83 c4 10             	add    esp,0x10
     4e2:	c7 45 f4 00 00 00 00 	mov    DWORD PTR [ebp-0xc],0x0
     4e9:	eb 65                	jmp    550 <KDFCLOMUL2+0x28c>
     4eb:	8b 45 08             	mov    eax,DWORD PTR [ebp+0x8]
     4ee:	8b 40 10             	mov    eax,DWORD PTR [eax+0x10]
     4f1:	83 ec 04             	sub    esp,0x4
     4f4:	ff 75 ec             	push   DWORD PTR [ebp-0x14]
     4f7:	ff 75 e8             	push   DWORD PTR [ebp-0x18]
     4fa:	50                   	push   eax
     4fb:	e8 fc ff ff ff       	call   4fc <KDFCLOMUL2+0x238>
     500:	83 c4 10             	add    esp,0x10
     503:	8b 45 08             	mov    eax,DWORD PTR [ebp+0x8]
     506:	8b 40 10             	mov    eax,DWORD PTR [eax+0x10]
     509:	83 ec 0c             	sub    esp,0xc
     50c:	50                   	push   eax
     50d:	e8 fc ff ff ff       	call   50e <KDFCLOMUL2+0x24a>
     512:	83 c4 10             	add    esp,0x10
     515:	8b 45 18             	mov    eax,DWORD PTR [ebp+0x18]
     518:	2b 45 f4             	sub    eax,DWORD PTR [ebp-0xc]
     51b:	89 45 f0             	mov    DWORD PTR [ebp-0x10],eax
     51e:	83 7d f0 20          	cmp    DWORD PTR [ebp-0x10],0x20
     522:	76 07                	jbe    52b <KDFCLOMUL2+0x267>
     524:	c7 45 f0 20 00 00 00 	mov    DWORD PTR [ebp-0x10],0x20
     52b:	8b 45 08             	mov    eax,DWORD PTR [ebp+0x8]
     52e:	8b 40 10             	mov    eax,DWORD PTR [eax+0x10]
     531:	8d 50 6c             	lea    edx,[eax+0x6c]
     534:	8b 4d 14             	mov    ecx,DWORD PTR [ebp+0x14]
     537:	8b 45 f4             	mov    eax,DWORD PTR [ebp-0xc]
     53a:	01 c8                	add    eax,ecx
     53c:	83 ec 04             	sub    esp,0x4
     53f:	ff 75 f0             	push   DWORD PTR [ebp-0x10]
     542:	52                   	push   edx
     543:	50                   	push   eax
     544:	e8 fc ff ff ff       	call   545 <KDFCLOMUL2+0x281>
     549:	83 c4 10             	add    esp,0x10
     54c:	83 45 f4 20          	add    DWORD PTR [ebp-0xc],0x20
     550:	8b 45 f4             	mov    eax,DWORD PTR [ebp-0xc]
     553:	3b 45 18             	cmp    eax,DWORD PTR [ebp+0x18]
     556:	72 93                	jb     4eb <KDFCLOMUL2+0x227>
     558:	e8 fc ff ff ff       	call   559 <KDFCLOMUL2+0x295>
     55d:	2b 45 e4             	sub    eax,DWORD PTR [ebp-0x1c]
     560:	89 45 d4             	mov    DWORD PTR [ebp-0x2c],eax
     563:	db 45 d4             	fild   DWORD PTR [ebp-0x2c]
     566:	dd 83 c8 0e 00 00    	fld    QWORD PTR [ebx+0xec8]
     56c:	de f9                	fdivp  st(1),st
     56e:	83 ec 04             	sub    esp,0x4
     571:	8d 64 24 f8          	lea    esp,[esp-0x8]
     575:	dd 1c 24             	fstp   QWORD PTR [esp]
     578:	8d 83 64 01 00 00    	lea    eax,[ebx+0x164]
     57e:	50                   	push   eax
     57f:	e8 fc ff ff ff       	call   580 <KDFCLOMUL2+0x2bc>
     584:	83 c4 10             	add    esp,0x10
     587:	83 ec 0c             	sub    esp,0xc
     58a:	8d 83 90 01 00 00    	lea    eax,[ebx+0x190]
     590:	50                   	push   eax
     591:	e8 fc ff ff ff       	call   592 <KDFCLOMUL2+0x2ce>
     596:	83 c4 10             	add    esp,0x10
     599:	83 ec 04             	sub    esp,0x4
     59c:	ff 75 ec             	push   DWORD PTR [ebp-0x14]
     59f:	ff 75 e8             	push   DWORD PTR [ebp-0x18]
     5a2:	6a 01                	push   0x1
     5a4:	e8 fc ff ff ff       	call   5a5 <KDFCLOMUL2+0x2e1>
     5a9:	83 c4 10             	add    esp,0x10
     5ac:	8b 45 08             	mov    eax,DWORD PTR [ebp+0x8]
     5af:	8b 50 14             	mov    edx,DWORD PTR [eax+0x14]
     5b2:	8b 45 08             	mov    eax,DWORD PTR [ebp+0x8]
     5b5:	8b 40 10             	mov    eax,DWORD PTR [eax+0x10]
     5b8:	83 ec 04             	sub    esp,0x4
     5bb:	52                   	push   edx
     5bc:	6a 00                	push   0x0
     5be:	50                   	push   eax
     5bf:	e8 fc ff ff ff       	call   5c0 <KDFCLOMUL2+0x2fc>
     5c4:	83 c4 10             	add    esp,0x10
     5c7:	83 ec 04             	sub    esp,0x4
     5ca:	ff 75 ec             	push   DWORD PTR [ebp-0x14]
     5cd:	6a 00                	push   0x0
     5cf:	ff 75 e8             	push   DWORD PTR [ebp-0x18]
     5d2:	e8 fc ff ff ff       	call   5d3 <KDFCLOMUL2+0x30f>
     5d7:	83 c4 10             	add    esp,0x10
     5da:	83 ec 0c             	sub    esp,0xc
     5dd:	ff 75 e8             	push   DWORD PTR [ebp-0x18]
     5e0:	e8 fc ff ff ff       	call   5e1 <KDFCLOMUL2+0x31d>
     5e5:	83 c4 10             	add    esp,0x10
     5e8:	c7 45 e8 00 00 00 00 	mov    DWORD PTR [ebp-0x18],0x0
     5ef:	90                   	nop
     5f0:	8b 5d fc             	mov    ebx,DWORD PTR [ebp-0x4]
     5f3:	c9                   	leave  
     5f4:	c3                   	ret    

000005f5 <KDFCLOMUL>:
     5f5:	55                   	push   ebp
     5f6:	89 e5                	mov    ebp,esp
     5f8:	53                   	push   ebx
     5f9:	83 ec 34             	sub    esp,0x34
     5fc:	e8 fc ff ff ff       	call   5fd <KDFCLOMUL+0x8>
     601:	81 c3 02 00 00 00    	add    ebx,0x2
     607:	c7 45 e8 00 00 00 00 	mov    DWORD PTR [ebp-0x18],0x0
     60e:	83 ec 0c             	sub    esp,0xc
     611:	6a 00                	push   0x0
     613:	e8 fc ff ff ff       	call   614 <KDFCLOMUL+0x1f>
     618:	83 c4 10             	add    esp,0x10
     61b:	83 ec 0c             	sub    esp,0xc
     61e:	50                   	push   eax
     61f:	e8 fc ff ff ff       	call   620 <KDFCLOMUL+0x2b>
     624:	83 c4 10             	add    esp,0x10
     627:	e8 fc ff ff ff       	call   628 <KDFCLOMUL+0x33>
     62c:	89 45 e4             	mov    DWORD PTR [ebp-0x1c],eax
     62f:	c7 45 f4 01 00 00 00 	mov    DWORD PTR [ebp-0xc],0x1
     636:	eb 33                	jmp    66b <KDFCLOMUL+0x76>
     638:	83 ec 08             	sub    esp,0x8
     63b:	ff 75 f4             	push   DWORD PTR [ebp-0xc]
     63e:	ff 75 0c             	push   DWORD PTR [ebp+0xc]
     641:	e8 fc ff ff ff       	call   642 <KDFCLOMUL+0x4d>
     646:	83 c4 10             	add    esp,0x10
     649:	83 c0 01             	add    eax,0x1
     64c:	31 45 e8             	xor    DWORD PTR [ebp-0x18],eax
     64f:	8b 55 10             	mov    edx,DWORD PTR [ebp+0x10]
     652:	8b 45 18             	mov    eax,DWORD PTR [ebp+0x18]
     655:	01 c2                	add    edx,eax
     657:	8b 45 f4             	mov    eax,DWORD PTR [ebp-0xc]
     65a:	01 c2                	add    edx,eax
     65c:	8b 45 e8             	mov    eax,DWORD PTR [ebp-0x18]
     65f:	29 d0                	sub    eax,edx
     661:	83 e8 01             	sub    eax,0x1
     664:	89 45 e8             	mov    DWORD PTR [ebp-0x18],eax
     667:	83 45 f4 01          	add    DWORD PTR [ebp-0xc],0x1
     66b:	8b 45 f4             	mov    eax,DWORD PTR [ebp-0xc]
     66e:	3b 45 10             	cmp    eax,DWORD PTR [ebp+0x10]
     671:	76 c5                	jbe    638 <KDFCLOMUL+0x43>
     673:	83 ec 08             	sub    esp,0x8
     676:	ff 75 10             	push   DWORD PTR [ebp+0x10]
     679:	ff 75 0c             	push   DWORD PTR [ebp+0xc]
     67c:	e8 fc ff ff ff       	call   67d <KDFCLOMUL+0x88>
     681:	83 c4 10             	add    esp,0x10
     684:	21 45 e8             	and    DWORD PTR [ebp-0x18],eax
     687:	c1 6d e8 12          	shr    DWORD PTR [ebp-0x18],0x12
     68b:	81 4d e8 00 40 00 00 	or     DWORD PTR [ebp-0x18],0x4000
     692:	83 ec 08             	sub    esp,0x8
     695:	ff 75 e8             	push   DWORD PTR [ebp-0x18]
     698:	8d 83 38 01 00 00    	lea    eax,[ebx+0x138]
     69e:	50                   	push   eax
     69f:	e8 fc ff ff ff       	call   6a0 <KDFCLOMUL+0xab>
     6a4:	83 c4 10             	add    esp,0x10
     6a7:	8b 45 08             	mov    eax,DWORD PTR [ebp+0x8]
     6aa:	8b 40 10             	mov    eax,DWORD PTR [eax+0x10]
     6ad:	83 ec 0c             	sub    esp,0xc
     6b0:	50                   	push   eax
     6b1:	e8 fc ff ff ff       	call   6b2 <KDFCLOMUL+0xbd>
     6b6:	83 c4 10             	add    esp,0x10
     6b9:	c7 45 ec 00 00 00 00 	mov    DWORD PTR [ebp-0x14],0x0
     6c0:	8b 45 ec             	mov    eax,DWORD PTR [ebp-0x14]
     6c3:	89 45 f4             	mov    DWORD PTR [ebp-0xc],eax
     6c6:	eb 6f                	jmp    737 <KDFCLOMUL+0x142>
     6c8:	c7 45 f0 00 00 00 00 	mov    DWORD PTR [ebp-0x10],0x0
     6cf:	eb 1c                	jmp    6ed <KDFCLOMUL+0xf8>
     6d1:	8b 45 08             	mov    eax,DWORD PTR [ebp+0x8]
     6d4:	8b 40 10             	mov    eax,DWORD PTR [eax+0x10]
     6d7:	83 ec 04             	sub    esp,0x4
     6da:	ff 75 10             	push   DWORD PTR [ebp+0x10]
     6dd:	ff 75 0c             	push   DWORD PTR [ebp+0xc]
     6e0:	50                   	push   eax
     6e1:	e8 fc ff ff ff       	call   6e2 <KDFCLOMUL+0xed>
     6e6:	83 c4 10             	add    esp,0x10
     6e9:	83 45 f0 01          	add    DWORD PTR [ebp-0x10],0x1
     6ed:	8b 45 f0             	mov    eax,DWORD PTR [ebp-0x10]
     6f0:	3b 45 e8             	cmp    eax,DWORD PTR [ebp-0x18]
     6f3:	72 dc                	jb     6d1 <KDFCLOMUL+0xdc>
     6f5:	8b 45 08             	mov    eax,DWORD PTR [ebp+0x8]
     6f8:	8b 40 10             	mov    eax,DWORD PTR [eax+0x10]
     6fb:	83 ec 0c             	sub    esp,0xc
     6fe:	50                   	push   eax
     6ff:	e8 fc ff ff ff       	call   700 <KDFCLOMUL+0x10b>
     704:	83 c4 10             	add    esp,0x10
     707:	83 7d ec 1f          	cmp    DWORD PTR [ebp-0x14],0x1f
     70b:	76 07                	jbe    714 <KDFCLOMUL+0x11f>
     70d:	c7 45 ec 00 00 00 00 	mov    DWORD PTR [ebp-0x14],0x0
     714:	8b 45 08             	mov    eax,DWORD PTR [ebp+0x8]
     717:	8b 48 10             	mov    ecx,DWORD PTR [eax+0x10]
     71a:	8b 55 14             	mov    edx,DWORD PTR [ebp+0x14]
     71d:	8b 45 f4             	mov    eax,DWORD PTR [ebp-0xc]
     720:	01 c2                	add    edx,eax
     722:	8b 45 ec             	mov    eax,DWORD PTR [ebp-0x14]
     725:	01 c8                	add    eax,ecx
     727:	83 c0 6c             	add    eax,0x6c
     72a:	0f b6 00             	movzx  eax,BYTE PTR [eax]
     72d:	88 02                	mov    BYTE PTR [edx],al
     72f:	83 45 f4 01          	add    DWORD PTR [ebp-0xc],0x1
     733:	83 45 ec 01          	add    DWORD PTR [ebp-0x14],0x1
     737:	8b 45 f4             	mov    eax,DWORD PTR [ebp-0xc]
     73a:	3b 45 18             	cmp    eax,DWORD PTR [ebp+0x18]
     73d:	72 89                	jb     6c8 <KDFCLOMUL+0xd3>
     73f:	e8 fc ff ff ff       	call   740 <KDFCLOMUL+0x14b>
     744:	2b 45 e4             	sub    eax,DWORD PTR [ebp-0x1c]
     747:	89 45 d4             	mov    DWORD PTR [ebp-0x2c],eax
     74a:	db 45 d4             	fild   DWORD PTR [ebp-0x2c]
     74d:	dd 83 c8 0e 00 00    	fld    QWORD PTR [ebx+0xec8]
     753:	de f9                	fdivp  st(1),st
     755:	83 ec 04             	sub    esp,0x4
     758:	8d 64 24 f8          	lea    esp,[esp-0x8]
     75c:	dd 1c 24             	fstp   QWORD PTR [esp]
     75f:	8d 83 64 01 00 00    	lea    eax,[ebx+0x164]
     765:	50                   	push   eax
     766:	e8 fc ff ff ff       	call   767 <KDFCLOMUL+0x172>
     76b:	83 c4 10             	add    esp,0x10
     76e:	8b 45 08             	mov    eax,DWORD PTR [ebp+0x8]
     771:	8b 50 14             	mov    edx,DWORD PTR [eax+0x14]
     774:	8b 45 08             	mov    eax,DWORD PTR [ebp+0x8]
     777:	8b 40 10             	mov    eax,DWORD PTR [eax+0x10]
     77a:	83 ec 04             	sub    esp,0x4
     77d:	52                   	push   edx
     77e:	6a 00                	push   0x0
     780:	50                   	push   eax
     781:	e8 fc ff ff ff       	call   782 <KDFCLOMUL+0x18d>
     786:	83 c4 10             	add    esp,0x10
     789:	90                   	nop
     78a:	8b 5d fc             	mov    ebx,DWORD PTR [ebp-0x4]
     78d:	c9                   	leave  
     78e:	c3                   	ret    

0000078f <operation_variant>:
     78f:	55                   	push   ebp
     790:	89 e5                	mov    ebp,esp
     792:	e8 fc ff ff ff       	call   793 <operation_variant+0x4>
     797:	05 01 00 00 00       	add    eax,0x1
     79c:	83 7d 08 00          	cmp    DWORD PTR [ebp+0x8],0x0
     7a0:	0f 95 c0             	setne  al
     7a3:	0f b6 c0             	movzx  eax,al
     7a6:	5d                   	pop    ebp
     7a7:	c3                   	ret    

000007a8 <size_of_file>:
     7a8:	55                   	push   ebp
     7a9:	89 e5                	mov    ebp,esp
     7ab:	53                   	push   ebx
     7ac:	83 ec 14             	sub    esp,0x14
     7af:	e8 fc ff ff ff       	call   7b0 <size_of_file+0x8>
     7b4:	81 c3 02 00 00 00    	add    ebx,0x2
     7ba:	83 7d 08 00          	cmp    DWORD PTR [ebp+0x8],0x0
     7be:	75 0c                	jne    7cc <size_of_file+0x24>
     7c0:	b8 ff ff ff ff       	mov    eax,0xffffffff
     7c5:	ba ff ff ff ff       	mov    edx,0xffffffff
     7ca:	eb 5c                	jmp    828 <size_of_file+0x80>
     7cc:	6a 02                	push   0x2
     7ce:	6a 00                	push   0x0
     7d0:	6a 00                	push   0x0
     7d2:	ff 75 08             	push   DWORD PTR [ebp+0x8]
     7d5:	e8 fc ff ff ff       	call   7d6 <size_of_file+0x2e>
     7da:	83 c4 10             	add    esp,0x10
     7dd:	85 c0                	test   eax,eax
     7df:	74 0c                	je     7ed <size_of_file+0x45>
     7e1:	b8 ff ff ff ff       	mov    eax,0xffffffff
     7e6:	ba ff ff ff ff       	mov    edx,0xffffffff
     7eb:	eb 3b                	jmp    828 <size_of_file+0x80>
     7ed:	83 ec 0c             	sub    esp,0xc
     7f0:	ff 75 08             	push   DWORD PTR [ebp+0x8]
     7f3:	e8 fc ff ff ff       	call   7f4 <size_of_file+0x4c>
     7f8:	83 c4 10             	add    esp,0x10
     7fb:	89 45 f0             	mov    DWORD PTR [ebp-0x10],eax
     7fe:	89 55 f4             	mov    DWORD PTR [ebp-0xc],edx
     801:	6a 00                	push   0x0
     803:	6a 00                	push   0x0
     805:	6a 00                	push   0x0
     807:	ff 75 08             	push   DWORD PTR [ebp+0x8]
     80a:	e8 fc ff ff ff       	call   80b <size_of_file+0x63>
     80f:	83 c4 10             	add    esp,0x10
     812:	85 c0                	test   eax,eax
     814:	74 0c                	je     822 <size_of_file+0x7a>
     816:	b8 ff ff ff ff       	mov    eax,0xffffffff
     81b:	ba ff ff ff ff       	mov    edx,0xffffffff
     820:	eb 06                	jmp    828 <size_of_file+0x80>
     822:	8b 45 f0             	mov    eax,DWORD PTR [ebp-0x10]
     825:	8b 55 f4             	mov    edx,DWORD PTR [ebp-0xc]
     828:	8b 5d fc             	mov    ebx,DWORD PTR [ebp-0x4]
     82b:	c9                   	leave  
     82c:	c3                   	ret    

0000082d <cipher_free>:
     82d:	55                   	push   ebp
     82e:	89 e5                	mov    ebp,esp
     830:	53                   	push   ebx
     831:	83 ec 04             	sub    esp,0x4
     834:	e8 fc ff ff ff       	call   835 <cipher_free+0x8>
     839:	81 c3 02 00 00 00    	add    ebx,0x2
     83f:	83 ec 04             	sub    esp,0x4
     842:	ff 75 0c             	push   DWORD PTR [ebp+0xc]
     845:	6a 00                	push   0x0
     847:	ff 75 08             	push   DWORD PTR [ebp+0x8]
     84a:	e8 fc ff ff ff       	call   84b <cipher_free+0x1e>
     84f:	83 c4 10             	add    esp,0x10
     852:	83 ec 0c             	sub    esp,0xc
     855:	ff 75 08             	push   DWORD PTR [ebp+0x8]
     858:	e8 fc ff ff ff       	call   859 <cipher_free+0x2c>
     85d:	83 c4 10             	add    esp,0x10
     860:	90                   	nop
     861:	8b 5d fc             	mov    ebx,DWORD PTR [ebp-0x4]
     864:	c9                   	leave  
     865:	c3                   	ret    

00000866 <hmac_sha256_uf>:
     866:	55                   	push   ebp
     867:	89 e5                	mov    ebp,esp
     869:	53                   	push   ebx
     86a:	83 ec 14             	sub    esp,0x14
     86d:	e8 fc ff ff ff       	call   86e <hmac_sha256_uf+0x8>
     872:	81 c3 02 00 00 00    	add    ebx,0x2
     878:	c7 45 f0 60 00 00 00 	mov    DWORD PTR [ebp-0x10],0x60
     87f:	83 ec 0c             	sub    esp,0xc
     882:	ff 75 f0             	push   DWORD PTR [ebp-0x10]
     885:	e8 fc ff ff ff       	call   886 <hmac_sha256_uf+0x20>
     88a:	83 c4 10             	add    esp,0x10
     88d:	89 45 ec             	mov    DWORD PTR [ebp-0x14],eax
     890:	83 7d ec 00          	cmp    DWORD PTR [ebp-0x14],0x0
     894:	75 26                	jne    8bc <hmac_sha256_uf+0x56>
     896:	8b 83 00 00 00 00    	mov    eax,DWORD PTR [ebx+0x0]
     89c:	8b 00                	mov    eax,DWORD PTR [eax]
     89e:	50                   	push   eax
     89f:	6a 1c                	push   0x1c
     8a1:	6a 01                	push   0x1
     8a3:	8d 83 c2 00 00 00    	lea    eax,[ebx+0xc2]
     8a9:	50                   	push   eax
     8aa:	e8 fc ff ff ff       	call   8ab <hmac_sha256_uf+0x45>
     8af:	83 c4 10             	add    esp,0x10
     8b2:	83 ec 0c             	sub    esp,0xc
     8b5:	6a 01                	push   0x1
     8b7:	e8 fc ff ff ff       	call   8b8 <hmac_sha256_uf+0x52>
     8bc:	8b 45 08             	mov    eax,DWORD PTR [ebp+0x8]
     8bf:	8b 40 24             	mov    eax,DWORD PTR [eax+0x24]
     8c2:	ba 20 00 00 00       	mov    edx,0x20
     8c7:	83 f8 20             	cmp    eax,0x20
     8ca:	0f 47 c2             	cmova  eax,edx
     8cd:	89 45 e8             	mov    DWORD PTR [ebp-0x18],eax
     8d0:	8b 45 08             	mov    eax,DWORD PTR [ebp+0x8]
     8d3:	8b 40 10             	mov    eax,DWORD PTR [eax+0x10]
     8d6:	8d 50 6c             	lea    edx,[eax+0x6c]
     8d9:	8b 45 ec             	mov    eax,DWORD PTR [ebp-0x14]
     8dc:	83 ec 04             	sub    esp,0x4
     8df:	6a 20                	push   0x20
     8e1:	52                   	push   edx
     8e2:	50                   	push   eax
     8e3:	e8 fc ff ff ff       	call   8e4 <hmac_sha256_uf+0x7e>
     8e8:	83 c4 10             	add    esp,0x10
     8eb:	8b 45 08             	mov    eax,DWORD PTR [ebp+0x8]
     8ee:	8b 40 20             	mov    eax,DWORD PTR [eax+0x20]
     8f1:	8b 55 ec             	mov    edx,DWORD PTR [ebp-0x14]
     8f4:	83 c2 20             	add    edx,0x20
     8f7:	83 ec 04             	sub    esp,0x4
     8fa:	ff 75 e8             	push   DWORD PTR [ebp-0x18]
     8fd:	50                   	push   eax
     8fe:	52                   	push   edx
     8ff:	e8 fc ff ff ff       	call   900 <hmac_sha256_uf+0x9a>
     904:	83 c4 10             	add    esp,0x10
     907:	8b 45 08             	mov    eax,DWORD PTR [ebp+0x8]
     90a:	8b 40 20             	mov    eax,DWORD PTR [eax+0x20]
     90d:	8b 55 ec             	mov    edx,DWORD PTR [ebp-0x14]
     910:	83 c2 40             	add    edx,0x40
     913:	83 ec 04             	sub    esp,0x4
     916:	ff 75 e8             	push   DWORD PTR [ebp-0x18]
     919:	50                   	push   eax
     91a:	52                   	push   edx
     91b:	e8 fc ff ff ff       	call   91c <hmac_sha256_uf+0xb6>
     920:	83 c4 10             	add    esp,0x10
     923:	8b 45 e8             	mov    eax,DWORD PTR [ebp-0x18]
     926:	89 45 f4             	mov    DWORD PTR [ebp-0xc],eax
     929:	eb 20                	jmp    94b <hmac_sha256_uf+0xe5>
     92b:	8b 55 ec             	mov    edx,DWORD PTR [ebp-0x14]
     92e:	8b 45 f4             	mov    eax,DWORD PTR [ebp-0xc]
     931:	01 d0                	add    eax,edx
     933:	83 c0 20             	add    eax,0x20
     936:	c6 00 00             	mov    BYTE PTR [eax],0x0
     939:	8b 55 ec             	mov    edx,DWORD PTR [ebp-0x14]
     93c:	8b 45 f4             	mov    eax,DWORD PTR [ebp-0xc]
     93f:	01 d0                	add    eax,edx
     941:	83 c0 40             	add    eax,0x40
     944:	c6 00 00             	mov    BYTE PTR [eax],0x0
     947:	83 45 f4 01          	add    DWORD PTR [ebp-0xc],0x1
     94b:	83 7d f4 1f          	cmp    DWORD PTR [ebp-0xc],0x1f
     94f:	76 da                	jbe    92b <hmac_sha256_uf+0xc5>
     951:	c7 45 f4 00 00 00 00 	mov    DWORD PTR [ebp-0xc],0x0
     958:	eb 44                	jmp    99e <hmac_sha256_uf+0x138>
     95a:	8b 55 ec             	mov    edx,DWORD PTR [ebp-0x14]
     95d:	8b 45 f4             	mov    eax,DWORD PTR [ebp-0xc]
     960:	01 d0                	add    eax,edx
     962:	83 c0 20             	add    eax,0x20
     965:	0f b6 00             	movzx  eax,BYTE PTR [eax]
     968:	83 f0 55             	xor    eax,0x55
     96b:	89 c2                	mov    edx,eax
     96d:	8b 4d ec             	mov    ecx,DWORD PTR [ebp-0x14]
     970:	8b 45 f4             	mov    eax,DWORD PTR [ebp-0xc]
     973:	01 c8                	add    eax,ecx
     975:	83 c0 20             	add    eax,0x20
     978:	88 10                	mov    BYTE PTR [eax],dl
     97a:	8b 55 ec             	mov    edx,DWORD PTR [ebp-0x14]
     97d:	8b 45 f4             	mov    eax,DWORD PTR [ebp-0xc]
     980:	01 d0                	add    eax,edx
     982:	83 c0 40             	add    eax,0x40
     985:	0f b6 00             	movzx  eax,BYTE PTR [eax]
     988:	83 f0 66             	xor    eax,0x66
     98b:	89 c2                	mov    edx,eax
     98d:	8b 4d ec             	mov    ecx,DWORD PTR [ebp-0x14]
     990:	8b 45 f4             	mov    eax,DWORD PTR [ebp-0xc]
     993:	01 c8                	add    eax,ecx
     995:	83 c0 40             	add    eax,0x40
     998:	88 10                	mov    BYTE PTR [eax],dl
     99a:	83 45 f4 01          	add    DWORD PTR [ebp-0xc],0x1
     99e:	83 7d f4 1f          	cmp    DWORD PTR [ebp-0xc],0x1f
     9a2:	76 b6                	jbe    95a <hmac_sha256_uf+0xf4>
     9a4:	83 ec 0c             	sub    esp,0xc
     9a7:	8d 83 b8 01 00 00    	lea    eax,[ebx+0x1b8]
     9ad:	50                   	push   eax
     9ae:	e8 fc ff ff ff       	call   9af <hmac_sha256_uf+0x149>
     9b3:	83 c4 10             	add    esp,0x10
     9b6:	8b 45 ec             	mov    eax,DWORD PTR [ebp-0x14]
     9b9:	83 c0 20             	add    eax,0x20
     9bc:	83 ec 04             	sub    esp,0x4
     9bf:	6a 20                	push   0x20
     9c1:	50                   	push   eax
     9c2:	6a 01                	push   0x1
     9c4:	e8 fc ff ff ff       	call   9c5 <hmac_sha256_uf+0x15f>
     9c9:	83 c4 10             	add    esp,0x10
     9cc:	83 ec 0c             	sub    esp,0xc
     9cf:	8d 83 dc 01 00 00    	lea    eax,[ebx+0x1dc]
     9d5:	50                   	push   eax
     9d6:	e8 fc ff ff ff       	call   9d7 <hmac_sha256_uf+0x171>
     9db:	83 c4 10             	add    esp,0x10
     9de:	8b 45 ec             	mov    eax,DWORD PTR [ebp-0x14]
     9e1:	83 c0 40             	add    eax,0x40
     9e4:	83 ec 04             	sub    esp,0x4
     9e7:	6a 20                	push   0x20
     9e9:	50                   	push   eax
     9ea:	6a 01                	push   0x1
     9ec:	e8 fc ff ff ff       	call   9ed <hmac_sha256_uf+0x187>
     9f1:	83 c4 10             	add    esp,0x10
     9f4:	8b 45 08             	mov    eax,DWORD PTR [ebp+0x8]
     9f7:	8b 50 14             	mov    edx,DWORD PTR [eax+0x14]
     9fa:	8b 45 08             	mov    eax,DWORD PTR [ebp+0x8]
     9fd:	8b 40 10             	mov    eax,DWORD PTR [eax+0x10]
     a00:	83 ec 04             	sub    esp,0x4
     a03:	52                   	push   edx
     a04:	6a 00                	push   0x0
     a06:	50                   	push   eax
     a07:	e8 fc ff ff ff       	call   a08 <hmac_sha256_uf+0x1a2>
     a0c:	83 c4 10             	add    esp,0x10
     a0f:	8b 45 08             	mov    eax,DWORD PTR [ebp+0x8]
     a12:	8b 40 10             	mov    eax,DWORD PTR [eax+0x10]
     a15:	83 ec 0c             	sub    esp,0xc
     a18:	50                   	push   eax
     a19:	e8 fc ff ff ff       	call   a1a <hmac_sha256_uf+0x1b4>
     a1e:	83 c4 10             	add    esp,0x10
     a21:	8b 45 ec             	mov    eax,DWORD PTR [ebp-0x14]
     a24:	8d 50 20             	lea    edx,[eax+0x20]
     a27:	8b 45 08             	mov    eax,DWORD PTR [ebp+0x8]
     a2a:	8b 40 10             	mov    eax,DWORD PTR [eax+0x10]
     a2d:	83 ec 04             	sub    esp,0x4
     a30:	6a 20                	push   0x20
     a32:	52                   	push   edx
     a33:	50                   	push   eax
     a34:	e8 fc ff ff ff       	call   a35 <hmac_sha256_uf+0x1cf>
     a39:	83 c4 10             	add    esp,0x10
     a3c:	8b 55 ec             	mov    edx,DWORD PTR [ebp-0x14]
     a3f:	8b 45 08             	mov    eax,DWORD PTR [ebp+0x8]
     a42:	8b 40 10             	mov    eax,DWORD PTR [eax+0x10]
     a45:	83 ec 04             	sub    esp,0x4
     a48:	6a 20                	push   0x20
     a4a:	52                   	push   edx
     a4b:	50                   	push   eax
     a4c:	e8 fc ff ff ff       	call   a4d <hmac_sha256_uf+0x1e7>
     a51:	83 c4 10             	add    esp,0x10
     a54:	8b 45 08             	mov    eax,DWORD PTR [ebp+0x8]
     a57:	8b 40 10             	mov    eax,DWORD PTR [eax+0x10]
     a5a:	83 ec 0c             	sub    esp,0xc
     a5d:	50                   	push   eax
     a5e:	e8 fc ff ff ff       	call   a5f <hmac_sha256_uf+0x1f9>
     a63:	83 c4 10             	add    esp,0x10
     a66:	8b 45 08             	mov    eax,DWORD PTR [ebp+0x8]
     a69:	8b 40 10             	mov    eax,DWORD PTR [eax+0x10]
     a6c:	8d 50 6c             	lea    edx,[eax+0x6c]
     a6f:	8b 45 ec             	mov    eax,DWORD PTR [ebp-0x14]
     a72:	83 ec 04             	sub    esp,0x4
     a75:	6a 20                	push   0x20
     a77:	52                   	push   edx
     a78:	50                   	push   eax
     a79:	e8 fc ff ff ff       	call   a7a <hmac_sha256_uf+0x214>
     a7e:	83 c4 10             	add    esp,0x10
     a81:	8b 45 08             	mov    eax,DWORD PTR [ebp+0x8]
     a84:	8b 50 14             	mov    edx,DWORD PTR [eax+0x14]
     a87:	8b 45 08             	mov    eax,DWORD PTR [ebp+0x8]
     a8a:	8b 40 10             	mov    eax,DWORD PTR [eax+0x10]
     a8d:	83 ec 04             	sub    esp,0x4
     a90:	52                   	push   edx
     a91:	6a 00                	push   0x0
     a93:	50                   	push   eax
     a94:	e8 fc ff ff ff       	call   a95 <hmac_sha256_uf+0x22f>
     a99:	83 c4 10             	add    esp,0x10
     a9c:	8b 45 08             	mov    eax,DWORD PTR [ebp+0x8]
     a9f:	8b 40 10             	mov    eax,DWORD PTR [eax+0x10]
     aa2:	83 ec 0c             	sub    esp,0xc
     aa5:	50                   	push   eax
     aa6:	e8 fc ff ff ff       	call   aa7 <hmac_sha256_uf+0x241>
     aab:	83 c4 10             	add    esp,0x10
     aae:	8b 45 ec             	mov    eax,DWORD PTR [ebp-0x14]
     ab1:	8d 50 40             	lea    edx,[eax+0x40]
     ab4:	8b 45 08             	mov    eax,DWORD PTR [ebp+0x8]
     ab7:	8b 40 10             	mov    eax,DWORD PTR [eax+0x10]
     aba:	83 ec 04             	sub    esp,0x4
     abd:	6a 20                	push   0x20
     abf:	52                   	push   edx
     ac0:	50                   	push   eax
     ac1:	e8 fc ff ff ff       	call   ac2 <hmac_sha256_uf+0x25c>
     ac6:	83 c4 10             	add    esp,0x10
     ac9:	8b 55 ec             	mov    edx,DWORD PTR [ebp-0x14]
     acc:	8b 45 08             	mov    eax,DWORD PTR [ebp+0x8]
     acf:	8b 40 10             	mov    eax,DWORD PTR [eax+0x10]
     ad2:	83 ec 04             	sub    esp,0x4
     ad5:	6a 20                	push   0x20
     ad7:	52                   	push   edx
     ad8:	50                   	push   eax
     ad9:	e8 fc ff ff ff       	call   ada <hmac_sha256_uf+0x274>
     ade:	83 c4 10             	add    esp,0x10
     ae1:	8b 45 08             	mov    eax,DWORD PTR [ebp+0x8]
     ae4:	8b 40 10             	mov    eax,DWORD PTR [eax+0x10]
     ae7:	83 ec 0c             	sub    esp,0xc
     aea:	50                   	push   eax
     aeb:	e8 fc ff ff ff       	call   aec <hmac_sha256_uf+0x286>
     af0:	83 c4 10             	add    esp,0x10
     af3:	83 ec 04             	sub    esp,0x4
     af6:	ff 75 f0             	push   DWORD PTR [ebp-0x10]
     af9:	6a 00                	push   0x0
     afb:	ff 75 ec             	push   DWORD PTR [ebp-0x14]
     afe:	e8 fc ff ff ff       	call   aff <hmac_sha256_uf+0x299>
     b03:	83 c4 10             	add    esp,0x10
     b06:	83 ec 0c             	sub    esp,0xc
     b09:	ff 75 ec             	push   DWORD PTR [ebp-0x14]
     b0c:	e8 fc ff ff ff       	call   b0d <hmac_sha256_uf+0x2a7>
     b11:	83 c4 10             	add    esp,0x10
     b14:	90                   	nop
     b15:	8b 5d fc             	mov    ebx,DWORD PTR [ebp-0x4]
     b18:	c9                   	leave  
     b19:	c3                   	ret    

00000b1a <control_sum_buffer>:
     b1a:	55                   	push   ebp
     b1b:	89 e5                	mov    ebp,esp
     b1d:	53                   	push   ebx
     b1e:	83 ec 14             	sub    esp,0x14
     b21:	e8 fc ff ff ff       	call   b22 <control_sum_buffer+0x8>
     b26:	81 c3 02 00 00 00    	add    ebx,0x2
     b2c:	c7 45 f4 00 00 00 00 	mov    DWORD PTR [ebp-0xc],0x0
     b33:	8b 45 0c             	mov    eax,DWORD PTR [ebp+0xc]
     b36:	89 45 f0             	mov    DWORD PTR [ebp-0x10],eax
     b39:	e9 8b 00 00 00       	jmp    bc9 <control_sum_buffer+0xaf>
     b3e:	81 7d f0 ff 03 00 00 	cmp    DWORD PTR [ebp-0x10],0x3ff
     b45:	77 3a                	ja     b81 <control_sum_buffer+0x67>
     b47:	8b 45 08             	mov    eax,DWORD PTR [ebp+0x8]
     b4a:	8b 80 44 00 00 01    	mov    eax,DWORD PTR [eax+0x1000044]
     b50:	85 c0                	test   eax,eax
     b52:	74 0a                	je     b5e <control_sum_buffer+0x44>
     b54:	8b 45 08             	mov    eax,DWORD PTR [ebp+0x8]
     b57:	05 28 00 80 00       	add    eax,0x800028
     b5c:	eb 06                	jmp    b64 <control_sum_buffer+0x4a>
     b5e:	8b 45 08             	mov    eax,DWORD PTR [ebp+0x8]
     b61:	83 c0 28             	add    eax,0x28
     b64:	8b 55 f4             	mov    edx,DWORD PTR [ebp-0xc]
     b67:	01 c2                	add    edx,eax
     b69:	8b 45 08             	mov    eax,DWORD PTR [ebp+0x8]
     b6c:	8b 40 10             	mov    eax,DWORD PTR [eax+0x10]
     b6f:	83 ec 04             	sub    esp,0x4
     b72:	ff 75 f0             	push   DWORD PTR [ebp-0x10]
     b75:	52                   	push   edx
     b76:	50                   	push   eax
     b77:	e8 fc ff ff ff       	call   b78 <control_sum_buffer+0x5e>
     b7c:	83 c4 10             	add    esp,0x10
     b7f:	eb 3a                	jmp    bbb <control_sum_buffer+0xa1>
     b81:	8b 45 08             	mov    eax,DWORD PTR [ebp+0x8]
     b84:	8b 80 44 00 00 01    	mov    eax,DWORD PTR [eax+0x1000044]
     b8a:	85 c0                	test   eax,eax
     b8c:	74 0a                	je     b98 <control_sum_buffer+0x7e>
     b8e:	8b 45 08             	mov    eax,DWORD PTR [ebp+0x8]
     b91:	05 28 00 80 00       	add    eax,0x800028
     b96:	eb 06                	jmp    b9e <control_sum_buffer+0x84>
     b98:	8b 45 08             	mov    eax,DWORD PTR [ebp+0x8]
     b9b:	83 c0 28             	add    eax,0x28
     b9e:	8b 55 f4             	mov    edx,DWORD PTR [ebp-0xc]
     ba1:	01 c2                	add    edx,eax
     ba3:	8b 45 08             	mov    eax,DWORD PTR [ebp+0x8]
     ba6:	8b 40 10             	mov    eax,DWORD PTR [eax+0x10]
     ba9:	83 ec 04             	sub    esp,0x4
     bac:	68 00 04 00 00       	push   0x400
     bb1:	52                   	push   edx
     bb2:	50                   	push   eax
     bb3:	e8 fc ff ff ff       	call   bb4 <control_sum_buffer+0x9a>
     bb8:	83 c4 10             	add    esp,0x10
     bbb:	81 45 f4 00 04 00 00 	add    DWORD PTR [ebp-0xc],0x400
     bc2:	81 6d f0 00 04 00 00 	sub    DWORD PTR [ebp-0x10],0x400
     bc9:	8b 45 f4             	mov    eax,DWORD PTR [ebp-0xc]
     bcc:	3b 45 0c             	cmp    eax,DWORD PTR [ebp+0xc]
     bcf:	0f 82 69 ff ff ff    	jb     b3e <control_sum_buffer+0x24>
     bd5:	90                   	nop
     bd6:	90                   	nop
     bd7:	8b 5d fc             	mov    ebx,DWORD PTR [ebp-0x4]
     bda:	c9                   	leave  
     bdb:	c3                   	ret    

00000bdc <close_in_out_files>:
     bdc:	55                   	push   ebp
     bdd:	89 e5                	mov    ebp,esp
     bdf:	53                   	push   ebx
     be0:	83 ec 04             	sub    esp,0x4
     be3:	e8 fc ff ff ff       	call   be4 <close_in_out_files+0x8>
     be8:	81 c3 02 00 00 00    	add    ebx,0x2
     bee:	83 ec 0c             	sub    esp,0xc
     bf1:	ff 75 08             	push   DWORD PTR [ebp+0x8]
     bf4:	e8 fc ff ff ff       	call   bf5 <close_in_out_files+0x19>
     bf9:	83 c4 10             	add    esp,0x10
     bfc:	83 f8 ff             	cmp    eax,0xffffffff
     bff:	75 15                	jne    c16 <close_in_out_files+0x3a>
     c01:	83 ec 0c             	sub    esp,0xc
     c04:	ff 75 0c             	push   DWORD PTR [ebp+0xc]
     c07:	e8 fc ff ff ff       	call   c08 <close_in_out_files+0x2c>
     c0c:	83 c4 10             	add    esp,0x10
     c0f:	b8 06 00 00 00       	mov    eax,0x6
     c14:	eb 1d                	jmp    c33 <close_in_out_files+0x57>
     c16:	83 ec 0c             	sub    esp,0xc
     c19:	ff 75 0c             	push   DWORD PTR [ebp+0xc]
     c1c:	e8 fc ff ff ff       	call   c1d <close_in_out_files+0x41>
     c21:	83 c4 10             	add    esp,0x10
     c24:	83 f8 ff             	cmp    eax,0xffffffff
     c27:	75 07                	jne    c30 <close_in_out_files+0x54>
     c29:	b8 07 00 00 00       	mov    eax,0x7
     c2e:	eb 03                	jmp    c33 <close_in_out_files+0x57>
     c30:	8b 45 10             	mov    eax,DWORD PTR [ebp+0x10]
     c33:	8b 5d fc             	mov    ebx,DWORD PTR [ebp-0x4]
     c36:	c9                   	leave  
     c37:	c3                   	ret    

00000c38 <size_correct>:
     c38:	55                   	push   ebp
     c39:	89 e5                	mov    ebp,esp
     c3b:	53                   	push   ebx
     c3c:	83 ec 0c             	sub    esp,0xc
     c3f:	e8 fc ff ff ff       	call   c40 <size_correct+0x8>
     c44:	81 c1 02 00 00 00    	add    ecx,0x2
     c4a:	8b 4d 0c             	mov    ecx,DWORD PTR [ebp+0xc]
     c4d:	89 4d f0             	mov    DWORD PTR [ebp-0x10],ecx
     c50:	8b 4d 10             	mov    ecx,DWORD PTR [ebp+0x10]
     c53:	89 4d f4             	mov    DWORD PTR [ebp-0xc],ecx
     c56:	8b 4d f0             	mov    ecx,DWORD PTR [ebp-0x10]
     c59:	80 f5 00             	xor    ch,0x0
     c5c:	89 c8                	mov    eax,ecx
     c5e:	8b 4d f4             	mov    ecx,DWORD PTR [ebp-0xc]
     c61:	80 f5 00             	xor    ch,0x0
     c64:	89 ca                	mov    edx,ecx
     c66:	09 d0                	or     eax,edx
     c68:	85 c0                	test   eax,eax
     c6a:	75 07                	jne    c73 <size_correct+0x3b>
     c6c:	b8 03 00 00 00       	mov    eax,0x3
     c71:	eb 57                	jmp    cca <size_correct+0x92>
     c73:	8b 45 08             	mov    eax,DWORD PTR [ebp+0x8]
     c76:	8b 80 44 00 00 01    	mov    eax,DWORD PTR [eax+0x1000044]
     c7c:	85 c0                	test   eax,eax
     c7e:	75 26                	jne    ca6 <size_correct+0x6e>
     c80:	8b 45 f0             	mov    eax,DWORD PTR [ebp-0x10]
     c83:	8b 55 f4             	mov    edx,DWORD PTR [ebp-0xc]
     c86:	83 c0 20             	add    eax,0x20
     c89:	83 d2 00             	adc    edx,0x0
     c8c:	8b 4d 08             	mov    ecx,DWORD PTR [ebp+0x8]
     c8f:	8b 49 1c             	mov    ecx,DWORD PTR [ecx+0x1c]
     c92:	bb 00 00 00 00       	mov    ebx,0x0
     c97:	01 c8                	add    eax,ecx
     c99:	11 da                	adc    edx,ebx
     c9b:	85 d2                	test   edx,edx
     c9d:	79 26                	jns    cc5 <size_correct+0x8d>
     c9f:	b8 03 00 00 00       	mov    eax,0x3
     ca4:	eb 24                	jmp    cca <size_correct+0x92>
     ca6:	8b 45 08             	mov    eax,DWORD PTR [ebp+0x8]
     ca9:	8b 40 1c             	mov    eax,DWORD PTR [eax+0x1c]
     cac:	83 c0 21             	add    eax,0x21
     caf:	ba 00 00 00 00       	mov    edx,0x0
     cb4:	8b 4d f4             	mov    ecx,DWORD PTR [ebp-0xc]
     cb7:	39 45 f0             	cmp    DWORD PTR [ebp-0x10],eax
     cba:	19 d1                	sbb    ecx,edx
     cbc:	7d 07                	jge    cc5 <size_correct+0x8d>
     cbe:	b8 08 00 00 00       	mov    eax,0x8
     cc3:	eb 05                	jmp    cca <size_correct+0x92>
     cc5:	b8 00 00 00 00       	mov    eax,0x0
     cca:	8b 5d fc             	mov    ebx,DWORD PTR [ebp-0x4]
     ccd:	c9                   	leave  
     cce:	c3                   	ret    

00000ccf <internal_re_keying>:
     ccf:	55                   	push   ebp
     cd0:	89 e5                	mov    ebp,esp
     cd2:	56                   	push   esi
     cd3:	53                   	push   ebx
     cd4:	81 ec a0 00 00 00    	sub    esp,0xa0
     cda:	e8 fc ff ff ff       	call   cdb <internal_re_keying+0xc>
     cdf:	81 c3 02 00 00 00    	add    ebx,0x2
     ce5:	8b 45 08             	mov    eax,DWORD PTR [ebp+0x8]
     ce8:	8b 40 24             	mov    eax,DWORD PTR [eax+0x24]
     ceb:	83 ec 0c             	sub    esp,0xc
     cee:	50                   	push   eax
     cef:	e8 fc ff ff ff       	call   cf0 <internal_re_keying+0x21>
     cf4:	83 c4 10             	add    esp,0x10
     cf7:	89 45 ec             	mov    DWORD PTR [ebp-0x14],eax
     cfa:	83 7d ec 00          	cmp    DWORD PTR [ebp-0x14],0x0
     cfe:	75 0a                	jne    d0a <internal_re_keying+0x3b>
     d00:	b8 01 00 00 00       	mov    eax,0x1
     d05:	e9 43 02 00 00       	jmp    f4d <.L76+0x31>
     d0a:	83 ec 04             	sub    esp,0x4
     d0d:	68 8c 00 00 00       	push   0x8c
     d12:	6a 00                	push   0x0
     d14:	8d 85 60 ff ff ff    	lea    eax,[ebp-0xa0]
     d1a:	50                   	push   eax
     d1b:	e8 fc ff ff ff       	call   d1c <internal_re_keying+0x4d>
     d20:	83 c4 10             	add    esp,0x10
     d23:	8b 45 08             	mov    eax,DWORD PTR [ebp+0x8]
     d26:	8b 40 24             	mov    eax,DWORD PTR [eax+0x24]
     d29:	83 ec 04             	sub    esp,0x4
     d2c:	50                   	push   eax
     d2d:	6a 00                	push   0x0
     d2f:	ff 75 ec             	push   DWORD PTR [ebp-0x14]
     d32:	e8 fc ff ff ff       	call   d33 <internal_re_keying+0x64>
     d37:	83 c4 10             	add    esp,0x10
     d3a:	83 ec 0c             	sub    esp,0xc
     d3d:	8d 85 60 ff ff ff    	lea    eax,[ebp-0xa0]
     d43:	50                   	push   eax
     d44:	e8 fc ff ff ff       	call   d45 <internal_re_keying+0x76>
     d49:	83 c4 10             	add    esp,0x10
     d4c:	c7 45 f4 00 00 00 00 	mov    DWORD PTR [ebp-0xc],0x0
     d53:	eb 73                	jmp    dc8 <internal_re_keying+0xf9>
     d55:	8b 45 08             	mov    eax,DWORD PTR [ebp+0x8]
     d58:	8b 50 24             	mov    edx,DWORD PTR [eax+0x24]
     d5b:	8b 45 08             	mov    eax,DWORD PTR [ebp+0x8]
     d5e:	8b 40 20             	mov    eax,DWORD PTR [eax+0x20]
     d61:	83 ec 04             	sub    esp,0x4
     d64:	52                   	push   edx
     d65:	50                   	push   eax
     d66:	8d 85 60 ff ff ff    	lea    eax,[ebp-0xa0]
     d6c:	50                   	push   eax
     d6d:	e8 fc ff ff ff       	call   d6e <internal_re_keying+0x9f>
     d72:	83 c4 10             	add    esp,0x10
     d75:	83 ec 0c             	sub    esp,0xc
     d78:	8d 85 60 ff ff ff    	lea    eax,[ebp-0xa0]
     d7e:	50                   	push   eax
     d7f:	e8 fc ff ff ff       	call   d80 <internal_re_keying+0xb1>
     d84:	83 c4 10             	add    esp,0x10
     d87:	8b 45 08             	mov    eax,DWORD PTR [ebp+0x8]
     d8a:	8b 40 24             	mov    eax,DWORD PTR [eax+0x24]
     d8d:	8b 55 f4             	mov    edx,DWORD PTR [ebp-0xc]
     d90:	29 d0                	sub    eax,edx
     d92:	89 45 f0             	mov    DWORD PTR [ebp-0x10],eax
     d95:	83 7d f0 20          	cmp    DWORD PTR [ebp-0x10],0x20
     d99:	7e 07                	jle    da2 <internal_re_keying+0xd3>
     d9b:	c7 45 f0 20 00 00 00 	mov    DWORD PTR [ebp-0x10],0x20
     da2:	8b 45 f0             	mov    eax,DWORD PTR [ebp-0x10]
     da5:	8b 4d f4             	mov    ecx,DWORD PTR [ebp-0xc]
     da8:	8b 55 ec             	mov    edx,DWORD PTR [ebp-0x14]
     dab:	01 ca                	add    edx,ecx
     dad:	83 ec 04             	sub    esp,0x4
     db0:	50                   	push   eax
     db1:	8d 85 60 ff ff ff    	lea    eax,[ebp-0xa0]
     db7:	83 c0 6c             	add    eax,0x6c
     dba:	50                   	push   eax
     dbb:	52                   	push   edx
     dbc:	e8 fc ff ff ff       	call   dbd <internal_re_keying+0xee>
     dc1:	83 c4 10             	add    esp,0x10
     dc4:	83 45 f4 20          	add    DWORD PTR [ebp-0xc],0x20
     dc8:	8b 45 08             	mov    eax,DWORD PTR [ebp+0x8]
     dcb:	8b 50 24             	mov    edx,DWORD PTR [eax+0x24]
     dce:	8b 45 f4             	mov    eax,DWORD PTR [ebp-0xc]
     dd1:	39 c2                	cmp    edx,eax
     dd3:	77 80                	ja     d55 <internal_re_keying+0x86>
     dd5:	8b 45 08             	mov    eax,DWORD PTR [ebp+0x8]
     dd8:	8b 50 24             	mov    edx,DWORD PTR [eax+0x24]
     ddb:	8b 45 08             	mov    eax,DWORD PTR [ebp+0x8]
     dde:	8b 40 20             	mov    eax,DWORD PTR [eax+0x20]
     de1:	83 ec 04             	sub    esp,0x4
     de4:	52                   	push   edx
     de5:	ff 75 ec             	push   DWORD PTR [ebp-0x14]
     de8:	50                   	push   eax
     de9:	e8 fc ff ff ff       	call   dea <internal_re_keying+0x11b>
     dee:	83 c4 10             	add    esp,0x10
     df1:	83 ec 04             	sub    esp,0x4
     df4:	68 8c 00 00 00       	push   0x8c
     df9:	6a 00                	push   0x0
     dfb:	8d 85 60 ff ff ff    	lea    eax,[ebp-0xa0]
     e01:	50                   	push   eax
     e02:	e8 fc ff ff ff       	call   e03 <internal_re_keying+0x134>
     e07:	83 c4 10             	add    esp,0x10
     e0a:	8b 45 08             	mov    eax,DWORD PTR [ebp+0x8]
     e0d:	8b 40 24             	mov    eax,DWORD PTR [eax+0x24]
     e10:	83 ec 04             	sub    esp,0x4
     e13:	50                   	push   eax
     e14:	6a 00                	push   0x0
     e16:	ff 75 ec             	push   DWORD PTR [ebp-0x14]
     e19:	e8 fc ff ff ff       	call   e1a <internal_re_keying+0x14b>
     e1e:	83 c4 10             	add    esp,0x10
     e21:	83 ec 0c             	sub    esp,0xc
     e24:	ff 75 ec             	push   DWORD PTR [ebp-0x14]
     e27:	e8 fc ff ff ff       	call   e28 <internal_re_keying+0x159>
     e2c:	83 c4 10             	add    esp,0x10
     e2f:	c7 45 ec 00 00 00 00 	mov    DWORD PTR [ebp-0x14],0x0
     e36:	83 ec 0c             	sub    esp,0xc
     e39:	8d 83 00 02 00 00    	lea    eax,[ebx+0x200]
     e3f:	50                   	push   eax
     e40:	e8 fc ff ff ff       	call   e41 <internal_re_keying+0x172>
     e45:	83 c4 10             	add    esp,0x10
     e48:	8b 45 08             	mov    eax,DWORD PTR [ebp+0x8]
     e4b:	8b 50 24             	mov    edx,DWORD PTR [eax+0x24]
     e4e:	8b 45 08             	mov    eax,DWORD PTR [ebp+0x8]
     e51:	8b 40 20             	mov    eax,DWORD PTR [eax+0x20]
     e54:	83 ec 04             	sub    esp,0x4
     e57:	52                   	push   edx
     e58:	50                   	push   eax
     e59:	6a 01                	push   0x1
     e5b:	e8 fc ff ff ff       	call   e5c <internal_re_keying+0x18d>
     e60:	83 c4 10             	add    esp,0x10
     e63:	8b 45 08             	mov    eax,DWORD PTR [ebp+0x8]
     e66:	8b 80 48 00 00 01    	mov    eax,DWORD PTR [eax+0x1000048]
     e6c:	83 f8 04             	cmp    eax,0x4
     e6f:	0f 87 d3 00 00 00    	ja     f48 <.L76+0x2c>
     e75:	c1 e0 02             	shl    eax,0x2
     e78:	8b 84 18 28 02 00 00 	mov    eax,DWORD PTR [eax+ebx*1+0x228]
     e7f:	01 d8                	add    eax,ebx
     e81:	ff e0                	jmp    eax

00000e83 <.L81>:
     e83:	8b 45 08             	mov    eax,DWORD PTR [ebp+0x8]
     e86:	8b 40 24             	mov    eax,DWORD PTR [eax+0x24]
     e89:	c1 e0 03             	shl    eax,0x3
     e8c:	89 c1                	mov    ecx,eax
     e8e:	8b 45 08             	mov    eax,DWORD PTR [ebp+0x8]
     e91:	8b 50 20             	mov    edx,DWORD PTR [eax+0x20]
     e94:	8b 83 00 00 00 00    	mov    eax,DWORD PTR [ebx+0x0]
     e9a:	83 ec 04             	sub    esp,0x4
     e9d:	51                   	push   ecx
     e9e:	52                   	push   edx
     e9f:	50                   	push   eax
     ea0:	e8 fc ff ff ff       	call   ea1 <.L81+0x1e>
     ea5:	83 c4 10             	add    esp,0x10
     ea8:	e9 9b 00 00 00       	jmp    f48 <.L76+0x2c>

00000ead <.L79>:
     ead:	8b 45 08             	mov    eax,DWORD PTR [ebp+0x8]
     eb0:	8b 40 24             	mov    eax,DWORD PTR [eax+0x24]
     eb3:	89 c1                	mov    ecx,eax
     eb5:	8b 45 08             	mov    eax,DWORD PTR [ebp+0x8]
     eb8:	8b 50 20             	mov    edx,DWORD PTR [eax+0x20]
     ebb:	8b 83 08 00 00 00    	mov    eax,DWORD PTR [ebx+0x8]
     ec1:	83 ec 04             	sub    esp,0x4
     ec4:	51                   	push   ecx
     ec5:	52                   	push   edx
     ec6:	50                   	push   eax
     ec7:	e8 fc ff ff ff       	call   ec8 <.L79+0x1b>
     ecc:	83 c4 10             	add    esp,0x10
     ecf:	eb 77                	jmp    f48 <.L76+0x2c>

00000ed1 <.L80>:
     ed1:	8b 45 08             	mov    eax,DWORD PTR [ebp+0x8]
     ed4:	8b 50 20             	mov    edx,DWORD PTR [eax+0x20]
     ed7:	8b 45 08             	mov    eax,DWORD PTR [ebp+0x8]
     eda:	8b 40 24             	mov    eax,DWORD PTR [eax+0x24]
     edd:	c1 e0 03             	shl    eax,0x3
     ee0:	89 c1                	mov    ecx,eax
     ee2:	8b 83 04 00 00 00    	mov    eax,DWORD PTR [ebx+0x4]
     ee8:	83 ec 04             	sub    esp,0x4
     eeb:	52                   	push   edx
     eec:	51                   	push   ecx
     eed:	50                   	push   eax
     eee:	e8 fc ff ff ff       	call   eef <.L80+0x1e>
     ef3:	83 c4 10             	add    esp,0x10
     ef6:	eb 50                	jmp    f48 <.L76+0x2c>

00000ef8 <.L78>:
     ef8:	8b 45 08             	mov    eax,DWORD PTR [ebp+0x8]
     efb:	8b 40 24             	mov    eax,DWORD PTR [eax+0x24]
     efe:	89 c1                	mov    ecx,eax
     f00:	8b 45 08             	mov    eax,DWORD PTR [ebp+0x8]
     f03:	8b 50 20             	mov    edx,DWORD PTR [eax+0x20]
     f06:	8b 83 0c 00 00 00    	mov    eax,DWORD PTR [ebx+0xc]
     f0c:	83 ec 04             	sub    esp,0x4
     f0f:	51                   	push   ecx
     f10:	52                   	push   edx
     f11:	50                   	push   eax
     f12:	e8 fc ff ff ff       	call   f13 <.L78+0x1b>
     f17:	83 c4 10             	add    esp,0x10
     f1a:	eb 2c                	jmp    f48 <.L76+0x2c>

00000f1c <.L76>:
     f1c:	8b 45 08             	mov    eax,DWORD PTR [ebp+0x8]
     f1f:	8b 48 20             	mov    ecx,DWORD PTR [eax+0x20]
     f22:	8b 45 08             	mov    eax,DWORD PTR [ebp+0x8]
     f25:	8b 50 20             	mov    edx,DWORD PTR [eax+0x20]
     f28:	8b 45 08             	mov    eax,DWORD PTR [ebp+0x8]
     f2b:	8b 40 24             	mov    eax,DWORD PTR [eax+0x24]
     f2e:	8d 34 c5 00 00 00 00 	lea    esi,[eax*8+0x0]
     f35:	8b 83 10 00 00 00    	mov    eax,DWORD PTR [ebx+0x10]
     f3b:	51                   	push   ecx
     f3c:	52                   	push   edx
     f3d:	56                   	push   esi
     f3e:	50                   	push   eax
     f3f:	e8 fc ff ff ff       	call   f40 <.L76+0x24>
     f44:	83 c4 10             	add    esp,0x10
     f47:	90                   	nop
     f48:	b8 00 00 00 00       	mov    eax,0x0
     f4d:	8d 65 f8             	lea    esp,[ebp-0x8]
     f50:	5b                   	pop    ebx
     f51:	5e                   	pop    esi
     f52:	5d                   	pop    ebp
     f53:	c3                   	ret    

00000f54 <filecrypt>:
     f54:	55                   	push   ebp
     f55:	89 e5                	mov    ebp,esp
     f57:	57                   	push   edi
     f58:	56                   	push   esi
     f59:	53                   	push   ebx
     f5a:	83 ec 7c             	sub    esp,0x7c
     f5d:	e8 fc ff ff ff       	call   f5e <filecrypt+0xa>
     f62:	81 c3 02 00 00 00    	add    ebx,0x2
     f68:	c7 45 c4 00 00 00 00 	mov    DWORD PTR [ebp-0x3c],0x0
     f6f:	c7 45 c0 00 00 00 00 	mov    DWORD PTR [ebp-0x40],0x0
     f76:	c7 45 bc 00 00 00 00 	mov    DWORD PTR [ebp-0x44],0x0
     f7d:	c7 45 e0 00 00 00 00 	mov    DWORD PTR [ebp-0x20],0x0
     f84:	c7 45 dc 00 00 00 00 	mov    DWORD PTR [ebp-0x24],0x0
     f8b:	c7 45 d4 00 00 00 00 	mov    DWORD PTR [ebp-0x2c],0x0
     f92:	c7 45 c8 00 00 00 00 	mov    DWORD PTR [ebp-0x38],0x0
     f99:	c7 45 cc 00 00 00 00 	mov    DWORD PTR [ebp-0x34],0x0
     fa0:	8b 93 00 00 00 00    	mov    edx,DWORD PTR [ebx+0x0]
     fa6:	8b 45 08             	mov    eax,DWORD PTR [ebp+0x8]
     fa9:	8b 00                	mov    eax,DWORD PTR [eax]
     fab:	83 ec 08             	sub    esp,0x8
     fae:	52                   	push   edx
     faf:	50                   	push   eax
     fb0:	e8 fc ff ff ff       	call   fb1 <filecrypt+0x5d>
     fb5:	83 c4 10             	add    esp,0x10
     fb8:	89 45 c4             	mov    DWORD PTR [ebp-0x3c],eax
     fbb:	83 7d c4 00          	cmp    DWORD PTR [ebp-0x3c],0x0
     fbf:	75 0a                	jne    fcb <filecrypt+0x77>
     fc1:	b8 01 00 00 00       	mov    eax,0x1
     fc6:	e9 f0 08 00 00       	jmp    18bb <.L105+0x409>
     fcb:	83 ec 0c             	sub    esp,0xc
     fce:	ff 75 c4             	push   DWORD PTR [ebp-0x3c]
     fd1:	e8 d2 f7 ff ff       	call   7a8 <size_of_file>
     fd6:	83 c4 10             	add    esp,0x10
     fd9:	89 45 b0             	mov    DWORD PTR [ebp-0x50],eax
     fdc:	89 55 b4             	mov    DWORD PTR [ebp-0x4c],edx
     fdf:	83 ec 04             	sub    esp,0x4
     fe2:	ff 75 b4             	push   DWORD PTR [ebp-0x4c]
     fe5:	ff 75 b0             	push   DWORD PTR [ebp-0x50]
     fe8:	ff 75 08             	push   DWORD PTR [ebp+0x8]
     feb:	e8 48 fc ff ff       	call   c38 <size_correct>
     ff0:	83 c4 10             	add    esp,0x10
     ff3:	89 45 ac             	mov    DWORD PTR [ebp-0x54],eax
     ff6:	83 7d ac 00          	cmp    DWORD PTR [ebp-0x54],0x0
     ffa:	74 25                	je     1021 <filecrypt+0xcd>
     ffc:	83 ec 0c             	sub    esp,0xc
     fff:	ff 75 c4             	push   DWORD PTR [ebp-0x3c]
    1002:	e8 fc ff ff ff       	call   1003 <filecrypt+0xaf>
    1007:	83 c4 10             	add    esp,0x10
    100a:	83 f8 ff             	cmp    eax,0xffffffff
    100d:	75 0a                	jne    1019 <filecrypt+0xc5>
    100f:	b8 06 00 00 00       	mov    eax,0x6
    1014:	e9 a2 08 00 00       	jmp    18bb <.L105+0x409>
    1019:	8b 45 ac             	mov    eax,DWORD PTR [ebp-0x54]
    101c:	e9 9a 08 00 00       	jmp    18bb <.L105+0x409>
    1021:	c7 45 ac 00 00 00 00 	mov    DWORD PTR [ebp-0x54],0x0
    1028:	8b 93 00 00 00 00    	mov    edx,DWORD PTR [ebx+0x0]
    102e:	8b 45 08             	mov    eax,DWORD PTR [ebp+0x8]
    1031:	8b 40 04             	mov    eax,DWORD PTR [eax+0x4]
    1034:	83 ec 08             	sub    esp,0x8
    1037:	52                   	push   edx
    1038:	50                   	push   eax
    1039:	e8 fc ff ff ff       	call   103a <filecrypt+0xe6>
    103e:	83 c4 10             	add    esp,0x10
    1041:	89 45 c0             	mov    DWORD PTR [ebp-0x40],eax
    1044:	83 7d c0 00          	cmp    DWORD PTR [ebp-0x40],0x0
    1048:	75 27                	jne    1071 <filecrypt+0x11d>
    104a:	83 ec 0c             	sub    esp,0xc
    104d:	ff 75 c4             	push   DWORD PTR [ebp-0x3c]
    1050:	e8 fc ff ff ff       	call   1051 <filecrypt+0xfd>
    1055:	83 c4 10             	add    esp,0x10
    1058:	83 f8 ff             	cmp    eax,0xffffffff
    105b:	75 0a                	jne    1067 <filecrypt+0x113>
    105d:	b8 06 00 00 00       	mov    eax,0x6
    1062:	e9 54 08 00 00       	jmp    18bb <.L105+0x409>
    1067:	b8 02 00 00 00       	mov    eax,0x2
    106c:	e9 4a 08 00 00       	jmp    18bb <.L105+0x409>
    1071:	df 6d b0             	fild   QWORD PTR [ebp-0x50]
    1074:	dd 83 d0 0e 00 00    	fld    QWORD PTR [ebx+0xed0]
    107a:	de f9                	fdivp  st(1),st
    107c:	dd 5d a0             	fstp   QWORD PTR [ebp-0x60]
    107f:	83 ec 08             	sub    esp,0x8
    1082:	ff 75 b4             	push   DWORD PTR [ebp-0x4c]
    1085:	ff 75 b0             	push   DWORD PTR [ebp-0x50]
    1088:	e8 b0 f0 ff ff       	call   13d <size_check>
    108d:	83 c4 10             	add    esp,0x10
    1090:	89 45 ac             	mov    DWORD PTR [ebp-0x54],eax
    1093:	df 6d b0             	fild   QWORD PTR [ebp-0x50]
    1096:	83 ec 04             	sub    esp,0x4
    1099:	8d 64 24 f8          	lea    esp,[esp-0x8]
    109d:	dd 1c 24             	fstp   QWORD PTR [esp]
    10a0:	ff 75 ac             	push   DWORD PTR [ebp-0x54]
    10a3:	e8 d3 f1 ff ff       	call   27b <sizetodoubleprint>
    10a8:	83 c4 10             	add    esp,0x10
    10ab:	dd 5d 98             	fstp   QWORD PTR [ebp-0x68]
    10ae:	8b 45 ac             	mov    eax,DWORD PTR [ebp-0x54]
    10b1:	8b 84 83 0c 00 00 00 	mov    eax,DWORD PTR [ebx+eax*4+0xc]
    10b8:	50                   	push   eax
    10b9:	ff 75 9c             	push   DWORD PTR [ebp-0x64]
    10bc:	ff 75 98             	push   DWORD PTR [ebp-0x68]
    10bf:	8d 83 3c 02 00 00    	lea    eax,[ebx+0x23c]
    10c5:	50                   	push   eax
    10c6:	e8 fc ff ff ff       	call   10c7 <filecrypt+0x173>
    10cb:	83 c4 10             	add    esp,0x10
    10ce:	8b 45 08             	mov    eax,DWORD PTR [ebp+0x8]
    10d1:	05 28 00 00 01       	add    eax,0x1000028
    10d6:	83 ec 04             	sub    esp,0x4
    10d9:	6a 19                	push   0x19
    10db:	6a 2e                	push   0x2e
    10dd:	50                   	push   eax
    10de:	e8 fc ff ff ff       	call   10df <filecrypt+0x18b>
    10e3:	83 c4 10             	add    esp,0x10
    10e6:	8b 45 08             	mov    eax,DWORD PTR [ebp+0x8]
    10e9:	8b 40 10             	mov    eax,DWORD PTR [eax+0x10]
    10ec:	83 ec 0c             	sub    esp,0xc
    10ef:	50                   	push   eax
    10f0:	e8 fc ff ff ff       	call   10f1 <filecrypt+0x19d>
    10f5:	83 c4 10             	add    esp,0x10
    10f8:	e9 53 06 00 00       	jmp    1750 <.L105+0x29e>
    10fd:	8b 45 c8             	mov    eax,DWORD PTR [ebp-0x38]
    1100:	80 f4 00             	xor    ah,0x0
    1103:	89 45 88             	mov    DWORD PTR [ebp-0x78],eax
    1106:	8b 45 cc             	mov    eax,DWORD PTR [ebp-0x34]
    1109:	80 f4 00             	xor    ah,0x0
    110c:	89 45 8c             	mov    DWORD PTR [ebp-0x74],eax
    110f:	8b 75 88             	mov    esi,DWORD PTR [ebp-0x78]
    1112:	8b 7d 8c             	mov    edi,DWORD PTR [ebp-0x74]
    1115:	89 f8                	mov    eax,edi
    1117:	09 f0                	or     eax,esi
    1119:	85 c0                	test   eax,eax
    111b:	0f 85 75 02 00 00    	jne    1396 <.L94+0x151>
    1121:	8b 45 08             	mov    eax,DWORD PTR [ebp+0x8]
    1124:	8b 40 1c             	mov    eax,DWORD PTR [eax+0x1c]
    1127:	83 ec 08             	sub    esp,0x8
    112a:	50                   	push   eax
    112b:	8d 83 5c 02 00 00    	lea    eax,[ebx+0x25c]
    1131:	50                   	push   eax
    1132:	e8 fc ff ff ff       	call   1133 <filecrypt+0x1df>
    1137:	83 c4 10             	add    esp,0x10
    113a:	8b 45 08             	mov    eax,DWORD PTR [ebp+0x8]
    113d:	8b 40 18             	mov    eax,DWORD PTR [eax+0x18]
    1140:	83 ec 08             	sub    esp,0x8
    1143:	50                   	push   eax
    1144:	8d 83 88 02 00 00    	lea    eax,[ebx+0x288]
    114a:	50                   	push   eax
    114b:	e8 fc ff ff ff       	call   114c <filecrypt+0x1f8>
    1150:	83 c4 10             	add    esp,0x10
    1153:	8b 45 08             	mov    eax,DWORD PTR [ebp+0x8]
    1156:	8b 80 44 00 00 01    	mov    eax,DWORD PTR [eax+0x1000044]
    115c:	85 c0                	test   eax,eax
    115e:	0f 85 90 01 00 00    	jne    12f4 <.L94+0xaf>
    1164:	8b 45 08             	mov    eax,DWORD PTR [ebp+0x8]
    1167:	8b 80 48 00 00 01    	mov    eax,DWORD PTR [eax+0x1000048]
    116d:	83 f8 04             	cmp    eax,0x4
    1170:	0f 87 f3 00 00 00    	ja     1269 <.L94+0x24>
    1176:	c1 e0 02             	shl    eax,0x2
    1179:	8b 84 18 0c 04 00 00 	mov    eax,DWORD PTR [eax+ebx*1+0x40c]
    1180:	01 d8                	add    eax,ebx
    1182:	ff e0                	jmp    eax

00001184 <.L99>:
    1184:	8b 45 08             	mov    eax,DWORD PTR [ebp+0x8]
    1187:	8d 88 28 00 80 00    	lea    ecx,[eax+0x800028]
    118d:	8b 45 08             	mov    eax,DWORD PTR [ebp+0x8]
    1190:	8b 50 18             	mov    edx,DWORD PTR [eax+0x18]
    1193:	8b 83 00 00 00 00    	mov    eax,DWORD PTR [ebx+0x0]
    1199:	83 ec 04             	sub    esp,0x4
    119c:	51                   	push   ecx
    119d:	52                   	push   edx
    119e:	50                   	push   eax
    119f:	e8 fc ff ff ff       	call   11a0 <.L99+0x1c>
    11a4:	83 c4 10             	add    esp,0x10
    11a7:	e9 bd 00 00 00       	jmp    1269 <.L94+0x24>

000011ac <.L98>:
    11ac:	8b 45 08             	mov    eax,DWORD PTR [ebp+0x8]
    11af:	8d 88 28 00 80 00    	lea    ecx,[eax+0x800028]
    11b5:	8b 45 08             	mov    eax,DWORD PTR [ebp+0x8]
    11b8:	8b 50 18             	mov    edx,DWORD PTR [eax+0x18]
    11bb:	8b 83 04 00 00 00    	mov    eax,DWORD PTR [ebx+0x4]
    11c1:	83 ec 04             	sub    esp,0x4
    11c4:	51                   	push   ecx
    11c5:	52                   	push   edx
    11c6:	50                   	push   eax
    11c7:	e8 fc ff ff ff       	call   11c8 <.L98+0x1c>
    11cc:	83 c4 10             	add    esp,0x10
    11cf:	e9 95 00 00 00       	jmp    1269 <.L94+0x24>

000011d4 <.L97>:
    11d4:	8b 45 08             	mov    eax,DWORD PTR [ebp+0x8]
    11d7:	8d 88 28 00 80 00    	lea    ecx,[eax+0x800028]
    11dd:	8b 45 08             	mov    eax,DWORD PTR [ebp+0x8]
    11e0:	8b 50 18             	mov    edx,DWORD PTR [eax+0x18]
    11e3:	8b 83 08 00 00 00    	mov    eax,DWORD PTR [ebx+0x8]
    11e9:	83 ec 04             	sub    esp,0x4
    11ec:	51                   	push   ecx
    11ed:	52                   	push   edx
    11ee:	50                   	push   eax
    11ef:	e8 fc ff ff ff       	call   11f0 <.L97+0x1c>
    11f4:	83 c4 10             	add    esp,0x10
    11f7:	eb 70                	jmp    1269 <.L94+0x24>

000011f9 <.L96>:
    11f9:	8b 45 08             	mov    eax,DWORD PTR [ebp+0x8]
    11fc:	8b 48 1c             	mov    ecx,DWORD PTR [eax+0x1c]
    11ff:	8b 45 08             	mov    eax,DWORD PTR [ebp+0x8]
    1202:	8b 50 18             	mov    edx,DWORD PTR [eax+0x18]
    1205:	8b 45 08             	mov    eax,DWORD PTR [ebp+0x8]
    1208:	05 28 00 80 00       	add    eax,0x800028
    120d:	83 ec 04             	sub    esp,0x4
    1210:	51                   	push   ecx
    1211:	52                   	push   edx
    1212:	50                   	push   eax
    1213:	e8 fc ff ff ff       	call   1214 <.L96+0x1b>
    1218:	83 c4 10             	add    esp,0x10
    121b:	8b 45 08             	mov    eax,DWORD PTR [ebp+0x8]
    121e:	05 28 00 80 00       	add    eax,0x800028
    1223:	8d 48 04             	lea    ecx,[eax+0x4]
    1226:	8b 45 08             	mov    eax,DWORD PTR [ebp+0x8]
    1229:	8d 90 28 00 80 00    	lea    edx,[eax+0x800028]
    122f:	8b 83 0c 00 00 00    	mov    eax,DWORD PTR [ebx+0xc]
    1235:	83 ec 04             	sub    esp,0x4
    1238:	51                   	push   ecx
    1239:	52                   	push   edx
    123a:	50                   	push   eax
    123b:	e8 fc ff ff ff       	call   123c <.L96+0x43>
    1240:	83 c4 10             	add    esp,0x10
    1243:	eb 24                	jmp    1269 <.L94+0x24>

00001245 <.L94>:
    1245:	8b 45 08             	mov    eax,DWORD PTR [ebp+0x8]
    1248:	8d 88 28 00 80 00    	lea    ecx,[eax+0x800028]
    124e:	8b 45 08             	mov    eax,DWORD PTR [ebp+0x8]
    1251:	8b 50 18             	mov    edx,DWORD PTR [eax+0x18]
    1254:	8b 83 10 00 00 00    	mov    eax,DWORD PTR [ebx+0x10]
    125a:	83 ec 04             	sub    esp,0x4
    125d:	51                   	push   ecx
    125e:	52                   	push   edx
    125f:	50                   	push   eax
    1260:	e8 fc ff ff ff       	call   1261 <.L94+0x1c>
    1265:	83 c4 10             	add    esp,0x10
    1268:	90                   	nop
    1269:	8b 45 08             	mov    eax,DWORD PTR [ebp+0x8]
    126c:	8b 50 1c             	mov    edx,DWORD PTR [eax+0x1c]
    126f:	8b 45 08             	mov    eax,DWORD PTR [ebp+0x8]
    1272:	8d 88 28 00 80 00    	lea    ecx,[eax+0x800028]
    1278:	8b 45 08             	mov    eax,DWORD PTR [ebp+0x8]
    127b:	8b 40 18             	mov    eax,DWORD PTR [eax+0x18]
    127e:	83 ec 04             	sub    esp,0x4
    1281:	52                   	push   edx
    1282:	51                   	push   ecx
    1283:	50                   	push   eax
    1284:	e8 fc ff ff ff       	call   1285 <.L94+0x40>
    1289:	83 c4 10             	add    esp,0x10
    128c:	8b 45 08             	mov    eax,DWORD PTR [ebp+0x8]
    128f:	8b 40 18             	mov    eax,DWORD PTR [eax+0x18]
    1292:	83 ec 08             	sub    esp,0x8
    1295:	50                   	push   eax
    1296:	8d 83 ac 02 00 00    	lea    eax,[ebx+0x2ac]
    129c:	50                   	push   eax
    129d:	e8 fc ff ff ff       	call   129e <.L94+0x59>
    12a2:	83 c4 10             	add    esp,0x10
    12a5:	8b 45 08             	mov    eax,DWORD PTR [ebp+0x8]
    12a8:	8b 50 1c             	mov    edx,DWORD PTR [eax+0x1c]
    12ab:	8b 45 08             	mov    eax,DWORD PTR [ebp+0x8]
    12ae:	8b 40 18             	mov    eax,DWORD PTR [eax+0x18]
    12b1:	ff 75 c0             	push   DWORD PTR [ebp-0x40]
    12b4:	52                   	push   edx
    12b5:	6a 01                	push   0x1
    12b7:	50                   	push   eax
    12b8:	e8 fc ff ff ff       	call   12b9 <.L94+0x74>
    12bd:	83 c4 10             	add    esp,0x10
    12c0:	89 c2                	mov    edx,eax
    12c2:	8b 45 08             	mov    eax,DWORD PTR [ebp+0x8]
    12c5:	8b 40 1c             	mov    eax,DWORD PTR [eax+0x1c]
    12c8:	39 c2                	cmp    edx,eax
    12ca:	74 18                	je     12e4 <.L94+0x9f>
    12cc:	83 ec 04             	sub    esp,0x4
    12cf:	6a 04                	push   0x4
    12d1:	ff 75 c0             	push   DWORD PTR [ebp-0x40]
    12d4:	ff 75 c4             	push   DWORD PTR [ebp-0x3c]
    12d7:	e8 00 f9 ff ff       	call   bdc <close_in_out_files>
    12dc:	83 c4 10             	add    esp,0x10
    12df:	e9 d7 05 00 00       	jmp    18bb <.L105+0x409>
    12e4:	83 ec 0c             	sub    esp,0xc
    12e7:	ff 75 c0             	push   DWORD PTR [ebp-0x40]
    12ea:	e8 fc ff ff ff       	call   12eb <.L94+0xa6>
    12ef:	83 c4 10             	add    esp,0x10
    12f2:	eb 75                	jmp    1369 <.L94+0x124>
    12f4:	8b 45 08             	mov    eax,DWORD PTR [ebp+0x8]
    12f7:	8b 80 44 00 00 01    	mov    eax,DWORD PTR [eax+0x1000044]
    12fd:	3d de 00 00 00       	cmp    eax,0xde
    1302:	75 65                	jne    1369 <.L94+0x124>
    1304:	8b 45 08             	mov    eax,DWORD PTR [ebp+0x8]
    1307:	8b 50 1c             	mov    edx,DWORD PTR [eax+0x1c]
    130a:	8b 45 08             	mov    eax,DWORD PTR [ebp+0x8]
    130d:	8b 40 18             	mov    eax,DWORD PTR [eax+0x18]
    1310:	ff 75 c4             	push   DWORD PTR [ebp-0x3c]
    1313:	52                   	push   edx
    1314:	6a 01                	push   0x1
    1316:	50                   	push   eax
    1317:	e8 fc ff ff ff       	call   1318 <.L94+0xd3>
    131c:	83 c4 10             	add    esp,0x10
    131f:	89 c2                	mov    edx,eax
    1321:	8b 45 08             	mov    eax,DWORD PTR [ebp+0x8]
    1324:	8b 40 1c             	mov    eax,DWORD PTR [eax+0x1c]
    1327:	39 c2                	cmp    edx,eax
    1329:	74 18                	je     1343 <.L94+0xfe>
    132b:	83 ec 04             	sub    esp,0x4
    132e:	6a 05                	push   0x5
    1330:	ff 75 c0             	push   DWORD PTR [ebp-0x40]
    1333:	ff 75 c4             	push   DWORD PTR [ebp-0x3c]
    1336:	e8 a1 f8 ff ff       	call   bdc <close_in_out_files>
    133b:	83 c4 10             	add    esp,0x10
    133e:	e9 78 05 00 00       	jmp    18bb <.L105+0x409>
    1343:	8b 45 08             	mov    eax,DWORD PTR [ebp+0x8]
    1346:	8b 40 1c             	mov    eax,DWORD PTR [eax+0x1c]
    1349:	99                   	cdq    
    134a:	01 45 c8             	add    DWORD PTR [ebp-0x38],eax
    134d:	11 55 cc             	adc    DWORD PTR [ebp-0x34],edx
    1350:	8b 45 08             	mov    eax,DWORD PTR [ebp+0x8]
    1353:	8b 40 18             	mov    eax,DWORD PTR [eax+0x18]
    1356:	83 ec 08             	sub    esp,0x8
    1359:	50                   	push   eax
    135a:	8d 83 e0 02 00 00    	lea    eax,[ebx+0x2e0]
    1360:	50                   	push   eax
    1361:	e8 fc ff ff ff       	call   1362 <.L94+0x11d>
    1366:	83 c4 10             	add    esp,0x10
    1369:	83 ec 0c             	sub    esp,0xc
    136c:	8d 83 13 03 00 00    	lea    eax,[ebx+0x313]
    1372:	50                   	push   eax
    1373:	e8 fc ff ff ff       	call   1374 <.L94+0x12f>
    1378:	83 c4 10             	add    esp,0x10
    137b:	8b 45 08             	mov    eax,DWORD PTR [ebp+0x8]
    137e:	8b 50 1c             	mov    edx,DWORD PTR [eax+0x1c]
    1381:	8b 45 08             	mov    eax,DWORD PTR [ebp+0x8]
    1384:	8b 40 18             	mov    eax,DWORD PTR [eax+0x18]
    1387:	83 ec 04             	sub    esp,0x4
    138a:	52                   	push   edx
    138b:	50                   	push   eax
    138c:	6a 01                	push   0x1
    138e:	e8 fc ff ff ff       	call   138f <.L94+0x14a>
    1393:	83 c4 10             	add    esp,0x10
    1396:	8b 45 08             	mov    eax,DWORD PTR [ebp+0x8]
    1399:	83 c0 28             	add    eax,0x28
    139c:	ff 75 c4             	push   DWORD PTR [ebp-0x3c]
    139f:	68 00 00 80 00       	push   0x800000
    13a4:	6a 01                	push   0x1
    13a6:	50                   	push   eax
    13a7:	e8 fc ff ff ff       	call   13a8 <.L94+0x163>
    13ac:	83 c4 10             	add    esp,0x10
    13af:	89 45 d4             	mov    DWORD PTR [ebp-0x2c],eax
    13b2:	c7 45 d8 00 00 00 00 	mov    DWORD PTR [ebp-0x28],0x0
    13b9:	e9 92 01 00 00       	jmp    1550 <.L105+0x9e>
    13be:	8b 45 08             	mov    eax,DWORD PTR [ebp+0x8]
    13c1:	8b 80 48 00 00 01    	mov    eax,DWORD PTR [eax+0x1000048]
    13c7:	83 f8 04             	cmp    eax,0x4
    13ca:	0f 87 0c 01 00 00    	ja     14dc <.L105+0x2a>
    13d0:	c1 e0 02             	shl    eax,0x2
    13d3:	8b 84 18 20 04 00 00 	mov    eax,DWORD PTR [eax+ebx*1+0x420]
    13da:	01 d8                	add    eax,ebx
    13dc:	ff e0                	jmp    eax

000013de <.L110>:
    13de:	8b 45 08             	mov    eax,DWORD PTR [ebp+0x8]
    13e1:	8d 90 28 00 80 00    	lea    edx,[eax+0x800028]
    13e7:	8b 45 d8             	mov    eax,DWORD PTR [ebp-0x28]
    13ea:	8d 0c 02             	lea    ecx,[edx+eax*1]
    13ed:	8b 45 08             	mov    eax,DWORD PTR [ebp+0x8]
    13f0:	8b 50 18             	mov    edx,DWORD PTR [eax+0x18]
    13f3:	8b 83 00 00 00 00    	mov    eax,DWORD PTR [ebx+0x0]
    13f9:	83 ec 04             	sub    esp,0x4
    13fc:	51                   	push   ecx
    13fd:	52                   	push   edx
    13fe:	50                   	push   eax
    13ff:	e8 fc ff ff ff       	call   1400 <.L110+0x22>
    1404:	83 c4 10             	add    esp,0x10
    1407:	e9 d0 00 00 00       	jmp    14dc <.L105+0x2a>

0000140c <.L109>:
    140c:	8b 45 08             	mov    eax,DWORD PTR [ebp+0x8]
    140f:	8d 90 28 00 80 00    	lea    edx,[eax+0x800028]
    1415:	8b 45 d8             	mov    eax,DWORD PTR [ebp-0x28]
    1418:	8d 0c 02             	lea    ecx,[edx+eax*1]
    141b:	8b 45 08             	mov    eax,DWORD PTR [ebp+0x8]
    141e:	8b 50 18             	mov    edx,DWORD PTR [eax+0x18]
    1421:	8b 83 04 00 00 00    	mov    eax,DWORD PTR [ebx+0x4]
    1427:	83 ec 04             	sub    esp,0x4
    142a:	51                   	push   ecx
    142b:	52                   	push   edx
    142c:	50                   	push   eax
    142d:	e8 fc ff ff ff       	call   142e <.L109+0x22>
    1432:	83 c4 10             	add    esp,0x10
    1435:	e9 a2 00 00 00       	jmp    14dc <.L105+0x2a>

0000143a <.L108>:
    143a:	8b 45 08             	mov    eax,DWORD PTR [ebp+0x8]
    143d:	8d 90 28 00 80 00    	lea    edx,[eax+0x800028]
    1443:	8b 45 d8             	mov    eax,DWORD PTR [ebp-0x28]
    1446:	8d 0c 02             	lea    ecx,[edx+eax*1]
    1449:	8b 45 08             	mov    eax,DWORD PTR [ebp+0x8]
    144c:	8b 50 18             	mov    edx,DWORD PTR [eax+0x18]
    144f:	8b 83 08 00 00 00    	mov    eax,DWORD PTR [ebx+0x8]
    1455:	83 ec 04             	sub    esp,0x4
    1458:	51                   	push   ecx
    1459:	52                   	push   edx
    145a:	50                   	push   eax
    145b:	e8 fc ff ff ff       	call   145c <.L108+0x22>
    1460:	83 c4 10             	add    esp,0x10
    1463:	eb 77                	jmp    14dc <.L105+0x2a>

00001465 <.L107>:
    1465:	8b 45 08             	mov    eax,DWORD PTR [ebp+0x8]
    1468:	8b 40 18             	mov    eax,DWORD PTR [eax+0x18]
    146b:	8d 48 04             	lea    ecx,[eax+0x4]
    146e:	8b 45 08             	mov    eax,DWORD PTR [ebp+0x8]
    1471:	8b 50 18             	mov    edx,DWORD PTR [eax+0x18]
    1474:	8b 83 0c 00 00 00    	mov    eax,DWORD PTR [ebx+0xc]
    147a:	83 ec 04             	sub    esp,0x4
    147d:	51                   	push   ecx
    147e:	52                   	push   edx
    147f:	50                   	push   eax
    1480:	e8 fc ff ff ff       	call   1481 <.L107+0x1c>
    1485:	83 c4 10             	add    esp,0x10
    1488:	8b 45 08             	mov    eax,DWORD PTR [ebp+0x8]
    148b:	8b 70 1c             	mov    esi,DWORD PTR [eax+0x1c]
    148e:	8b 45 08             	mov    eax,DWORD PTR [ebp+0x8]
    1491:	8b 48 18             	mov    ecx,DWORD PTR [eax+0x18]
    1494:	8b 45 08             	mov    eax,DWORD PTR [ebp+0x8]
    1497:	8d 90 28 00 80 00    	lea    edx,[eax+0x800028]
    149d:	8b 45 d8             	mov    eax,DWORD PTR [ebp-0x28]
    14a0:	01 d0                	add    eax,edx
    14a2:	83 ec 04             	sub    esp,0x4
    14a5:	56                   	push   esi
    14a6:	51                   	push   ecx
    14a7:	50                   	push   eax
    14a8:	e8 fc ff ff ff       	call   14a9 <.L107+0x44>
    14ad:	83 c4 10             	add    esp,0x10
    14b0:	eb 2a                	jmp    14dc <.L105+0x2a>

000014b2 <.L105>:
    14b2:	8b 45 08             	mov    eax,DWORD PTR [ebp+0x8]
    14b5:	8d 90 28 00 80 00    	lea    edx,[eax+0x800028]
    14bb:	8b 45 d8             	mov    eax,DWORD PTR [ebp-0x28]
    14be:	8d 0c 02             	lea    ecx,[edx+eax*1]
    14c1:	8b 45 08             	mov    eax,DWORD PTR [ebp+0x8]
    14c4:	8b 50 18             	mov    edx,DWORD PTR [eax+0x18]
    14c7:	8b 83 10 00 00 00    	mov    eax,DWORD PTR [ebx+0x10]
    14cd:	83 ec 04             	sub    esp,0x4
    14d0:	51                   	push   ecx
    14d1:	52                   	push   edx
    14d2:	50                   	push   eax
    14d3:	e8 fc ff ff ff       	call   14d4 <.L105+0x22>
    14d8:	83 c4 10             	add    esp,0x10
    14db:	90                   	nop
    14dc:	8b 45 08             	mov    eax,DWORD PTR [ebp+0x8]
    14df:	8b 70 1c             	mov    esi,DWORD PTR [eax+0x1c]
    14e2:	8b 45 08             	mov    eax,DWORD PTR [ebp+0x8]
    14e5:	8d 50 28             	lea    edx,[eax+0x28]
    14e8:	8b 45 d8             	mov    eax,DWORD PTR [ebp-0x28]
    14eb:	8d 0c 02             	lea    ecx,[edx+eax*1]
    14ee:	8b 45 08             	mov    eax,DWORD PTR [ebp+0x8]
    14f1:	8d 90 28 00 80 00    	lea    edx,[eax+0x800028]
    14f7:	8b 45 d8             	mov    eax,DWORD PTR [ebp-0x28]
    14fa:	01 d0                	add    eax,edx
    14fc:	83 ec 04             	sub    esp,0x4
    14ff:	56                   	push   esi
    1500:	51                   	push   ecx
    1501:	50                   	push   eax
    1502:	e8 fc ff ff ff       	call   1503 <.L105+0x51>
    1507:	83 c4 10             	add    esp,0x10
    150a:	8b 45 08             	mov    eax,DWORD PTR [ebp+0x8]
    150d:	8b 48 1c             	mov    ecx,DWORD PTR [eax+0x1c]
    1510:	8b 45 08             	mov    eax,DWORD PTR [ebp+0x8]
    1513:	8b 80 44 00 00 01    	mov    eax,DWORD PTR [eax+0x1000044]
    1519:	85 c0                	test   eax,eax
    151b:	74 08                	je     1525 <.L105+0x73>
    151d:	8b 45 08             	mov    eax,DWORD PTR [ebp+0x8]
    1520:	8d 50 28             	lea    edx,[eax+0x28]
    1523:	eb 09                	jmp    152e <.L105+0x7c>
    1525:	8b 45 08             	mov    eax,DWORD PTR [ebp+0x8]
    1528:	8d 90 28 00 80 00    	lea    edx,[eax+0x800028]
    152e:	8b 45 d8             	mov    eax,DWORD PTR [ebp-0x28]
    1531:	01 c2                	add    edx,eax
    1533:	8b 45 08             	mov    eax,DWORD PTR [ebp+0x8]
    1536:	8b 40 18             	mov    eax,DWORD PTR [eax+0x18]
    1539:	83 ec 04             	sub    esp,0x4
    153c:	51                   	push   ecx
    153d:	52                   	push   edx
    153e:	50                   	push   eax
    153f:	e8 fc ff ff ff       	call   1540 <.L105+0x8e>
    1544:	83 c4 10             	add    esp,0x10
    1547:	8b 45 08             	mov    eax,DWORD PTR [ebp+0x8]
    154a:	8b 40 1c             	mov    eax,DWORD PTR [eax+0x1c]
    154d:	01 45 d8             	add    DWORD PTR [ebp-0x28],eax
    1550:	8b 45 d8             	mov    eax,DWORD PTR [ebp-0x28]
    1553:	3b 45 d4             	cmp    eax,DWORD PTR [ebp-0x2c]
    1556:	0f 82 62 fe ff ff    	jb     13be <.L94+0x179>
    155c:	8b 45 d4             	mov    eax,DWORD PTR [ebp-0x2c]
    155f:	ba 00 00 00 00       	mov    edx,0x0
    1564:	01 45 c8             	add    DWORD PTR [ebp-0x38],eax
    1567:	11 55 cc             	adc    DWORD PTR [ebp-0x34],edx
    156a:	df 6d c8             	fild   QWORD PTR [ebp-0x38]
    156d:	dc 75 a0             	fdiv   QWORD PTR [ebp-0x60]
    1570:	dd 83 d8 0e 00 00    	fld    QWORD PTR [ebx+0xed8]
    1576:	de c1                	faddp  st(1),st
    1578:	d9 7d 96             	fnstcw WORD PTR [ebp-0x6a]
    157b:	0f b7 45 96          	movzx  eax,WORD PTR [ebp-0x6a]
    157f:	80 cc 0c             	or     ah,0xc
    1582:	66 89 45 94          	mov    WORD PTR [ebp-0x6c],ax
    1586:	d9 6d 94             	fldcw  WORD PTR [ebp-0x6c]
    1589:	db 5d e4             	fistp  DWORD PTR [ebp-0x1c]
    158c:	d9 6d 96             	fldcw  WORD PTR [ebp-0x6a]
    158f:	83 7d e4 64          	cmp    DWORD PTR [ebp-0x1c],0x64
    1593:	7e 07                	jle    159c <.L105+0xea>
    1595:	c7 45 e4 64 00 00 00 	mov    DWORD PTR [ebp-0x1c],0x64
    159c:	8b 45 c8             	mov    eax,DWORD PTR [ebp-0x38]
    159f:	8b 55 cc             	mov    edx,DWORD PTR [ebp-0x34]
    15a2:	89 c7                	mov    edi,eax
    15a4:	33 7d b0             	xor    edi,DWORD PTR [ebp-0x50]
    15a7:	89 7d 80             	mov    DWORD PTR [ebp-0x80],edi
    15aa:	89 d0                	mov    eax,edx
    15ac:	33 45 b4             	xor    eax,DWORD PTR [ebp-0x4c]
    15af:	89 45 84             	mov    DWORD PTR [ebp-0x7c],eax
    15b2:	8b 75 80             	mov    esi,DWORD PTR [ebp-0x80]
    15b5:	8b 7d 84             	mov    edi,DWORD PTR [ebp-0x7c]
    15b8:	89 f8                	mov    eax,edi
    15ba:	09 f0                	or     eax,esi
    15bc:	85 c0                	test   eax,eax
    15be:	75 14                	jne    15d4 <.L105+0x122>
    15c0:	8b 45 08             	mov    eax,DWORD PTR [ebp+0x8]
    15c3:	8b 80 44 00 00 01    	mov    eax,DWORD PTR [eax+0x1000044]
    15c9:	3d de 00 00 00       	cmp    eax,0xde
    15ce:	75 04                	jne    15d4 <.L105+0x122>
    15d0:	83 6d d4 20          	sub    DWORD PTR [ebp-0x2c],0x20
    15d4:	83 ec 08             	sub    esp,0x8
    15d7:	ff 75 d4             	push   DWORD PTR [ebp-0x2c]
    15da:	ff 75 08             	push   DWORD PTR [ebp+0x8]
    15dd:	e8 38 f5 ff ff       	call   b1a <control_sum_buffer>
    15e2:	83 c4 10             	add    esp,0x10
    15e5:	8b 45 08             	mov    eax,DWORD PTR [ebp+0x8]
    15e8:	05 28 00 80 00       	add    eax,0x800028
    15ed:	ff 75 c0             	push   DWORD PTR [ebp-0x40]
    15f0:	ff 75 d4             	push   DWORD PTR [ebp-0x2c]
    15f3:	6a 01                	push   0x1
    15f5:	50                   	push   eax
    15f6:	e8 fc ff ff ff       	call   15f7 <.L105+0x145>
    15fb:	83 c4 10             	add    esp,0x10
    15fe:	39 45 d4             	cmp    DWORD PTR [ebp-0x2c],eax
    1601:	74 18                	je     161b <.L105+0x169>
    1603:	83 ec 04             	sub    esp,0x4
    1606:	6a 04                	push   0x4
    1608:	ff 75 c0             	push   DWORD PTR [ebp-0x40]
    160b:	ff 75 c4             	push   DWORD PTR [ebp-0x3c]
    160e:	e8 c9 f5 ff ff       	call   bdc <close_in_out_files>
    1613:	83 c4 10             	add    esp,0x10
    1616:	e9 a0 02 00 00       	jmp    18bb <.L105+0x409>
    161b:	83 ec 0c             	sub    esp,0xc
    161e:	ff 75 c0             	push   DWORD PTR [ebp-0x40]
    1621:	e8 fc ff ff ff       	call   1622 <.L105+0x170>
    1626:	83 c4 10             	add    esp,0x10
    1629:	8b 45 e4             	mov    eax,DWORD PTR [ebp-0x1c]
    162c:	3b 45 e0             	cmp    eax,DWORD PTR [ebp-0x20]
    162f:	0f 8e dc 00 00 00    	jle    1711 <.L105+0x25f>
    1635:	8b 45 e4             	mov    eax,DWORD PTR [ebp-0x1c]
    1638:	8d 50 03             	lea    edx,[eax+0x3]
    163b:	85 c0                	test   eax,eax
    163d:	0f 48 c2             	cmovs  eax,edx
    1640:	c1 f8 02             	sar    eax,0x2
    1643:	89 c2                	mov    edx,eax
    1645:	8b 45 08             	mov    eax,DWORD PTR [ebp+0x8]
    1648:	05 28 00 00 01       	add    eax,0x1000028
    164d:	83 ec 04             	sub    esp,0x4
    1650:	52                   	push   edx
    1651:	6a 23                	push   0x23
    1653:	50                   	push   eax
    1654:	e8 fc ff ff ff       	call   1655 <.L105+0x1a3>
    1659:	83 c4 10             	add    esp,0x10
    165c:	83 ec 08             	sub    esp,0x8
    165f:	ff 75 cc             	push   DWORD PTR [ebp-0x34]
    1662:	ff 75 c8             	push   DWORD PTR [ebp-0x38]
    1665:	e8 d3 ea ff ff       	call   13d <size_check>
    166a:	83 c4 10             	add    esp,0x10
    166d:	89 45 bc             	mov    DWORD PTR [ebp-0x44],eax
    1670:	8b 45 ac             	mov    eax,DWORD PTR [ebp-0x54]
    1673:	8b bc 83 0c 00 00 00 	mov    edi,DWORD PTR [ebx+eax*4+0xc]
    167a:	8b 45 bc             	mov    eax,DWORD PTR [ebp-0x44]
    167d:	8b 84 83 0c 00 00 00 	mov    eax,DWORD PTR [ebx+eax*4+0xc]
    1684:	89 45 90             	mov    DWORD PTR [ebp-0x70],eax
    1687:	df 6d c8             	fild   QWORD PTR [ebp-0x38]
    168a:	83 ec 04             	sub    esp,0x4
    168d:	8d 64 24 f8          	lea    esp,[esp-0x8]
    1691:	dd 1c 24             	fstp   QWORD PTR [esp]
    1694:	ff 75 bc             	push   DWORD PTR [ebp-0x44]
    1697:	e8 df eb ff ff       	call   27b <sizetodoubleprint>
    169c:	83 c4 10             	add    esp,0x10
    169f:	dd 9d 78 ff ff ff    	fstp   QWORD PTR [ebp-0x88]
    16a5:	8b 45 08             	mov    eax,DWORD PTR [ebp+0x8]
    16a8:	8d b0 28 00 00 01    	lea    esi,[eax+0x1000028]
    16ae:	8b 45 08             	mov    eax,DWORD PTR [ebp+0x8]
    16b1:	8b 80 44 00 00 01    	mov    eax,DWORD PTR [eax+0x1000044]
    16b7:	83 ec 0c             	sub    esp,0xc
    16ba:	50                   	push   eax
    16bb:	e8 cf f0 ff ff       	call   78f <operation_variant>
    16c0:	83 c4 10             	add    esp,0x10
    16c3:	8b 84 83 28 00 00 00 	mov    eax,DWORD PTR [ebx+eax*4+0x28]
    16ca:	83 ec 08             	sub    esp,0x8
    16cd:	ff 75 e4             	push   DWORD PTR [ebp-0x1c]
    16d0:	57                   	push   edi
    16d1:	ff 75 9c             	push   DWORD PTR [ebp-0x64]
    16d4:	ff 75 98             	push   DWORD PTR [ebp-0x68]
    16d7:	ff 75 90             	push   DWORD PTR [ebp-0x70]
    16da:	ff b5 7c ff ff ff    	push   DWORD PTR [ebp-0x84]
    16e0:	ff b5 78 ff ff ff    	push   DWORD PTR [ebp-0x88]
    16e6:	56                   	push   esi
    16e7:	50                   	push   eax
    16e8:	8d 83 30 03 00 00    	lea    eax,[ebx+0x330]
    16ee:	50                   	push   eax
    16ef:	e8 fc ff ff ff       	call   16f0 <.L105+0x23e>
    16f4:	83 c4 30             	add    esp,0x30
    16f7:	8b 83 00 00 00 00    	mov    eax,DWORD PTR [ebx+0x0]
    16fd:	8b 00                	mov    eax,DWORD PTR [eax]
    16ff:	83 ec 0c             	sub    esp,0xc
    1702:	50                   	push   eax
    1703:	e8 fc ff ff ff       	call   1704 <.L105+0x252>
    1708:	83 c4 10             	add    esp,0x10
    170b:	8b 45 e4             	mov    eax,DWORD PTR [ebp-0x1c]
    170e:	89 45 e0             	mov    DWORD PTR [ebp-0x20],eax
    1711:	8b 45 d4             	mov    eax,DWORD PTR [ebp-0x2c]
    1714:	01 45 dc             	add    DWORD PTR [ebp-0x24],eax
    1717:	8b 45 dc             	mov    eax,DWORD PTR [ebp-0x24]
    171a:	85 c0                	test   eax,eax
    171c:	79 32                	jns    1750 <.L105+0x29e>
    171e:	c7 45 dc 00 00 00 00 	mov    DWORD PTR [ebp-0x24],0x0
    1725:	83 ec 0c             	sub    esp,0xc
    1728:	ff 75 08             	push   DWORD PTR [ebp+0x8]
    172b:	e8 9f f5 ff ff       	call   ccf <internal_re_keying>
    1730:	83 c4 10             	add    esp,0x10
    1733:	83 f8 01             	cmp    eax,0x1
    1736:	75 18                	jne    1750 <.L105+0x29e>
    1738:	83 ec 04             	sub    esp,0x4
    173b:	6a 09                	push   0x9
    173d:	ff 75 c0             	push   DWORD PTR [ebp-0x40]
    1740:	ff 75 c4             	push   DWORD PTR [ebp-0x3c]
    1743:	e8 94 f4 ff ff       	call   bdc <close_in_out_files>
    1748:	83 c4 10             	add    esp,0x10
    174b:	e9 6b 01 00 00       	jmp    18bb <.L105+0x409>
    1750:	8b 45 c8             	mov    eax,DWORD PTR [ebp-0x38]
    1753:	8b 55 cc             	mov    edx,DWORD PTR [ebp-0x34]
    1756:	3b 45 b0             	cmp    eax,DWORD PTR [ebp-0x50]
    1759:	89 d0                	mov    eax,edx
    175b:	1b 45 b4             	sbb    eax,DWORD PTR [ebp-0x4c]
    175e:	0f 8c 99 f9 ff ff    	jl     10fd <filecrypt+0x1a9>
    1764:	8b 83 00 00 00 00    	mov    eax,DWORD PTR [ebx+0x0]
    176a:	8b 00                	mov    eax,DWORD PTR [eax]
    176c:	83 ec 08             	sub    esp,0x8
    176f:	50                   	push   eax
    1770:	6a 0a                	push   0xa
    1772:	e8 fc ff ff ff       	call   1773 <.L105+0x2c1>
    1777:	83 c4 10             	add    esp,0x10
    177a:	8b 45 08             	mov    eax,DWORD PTR [ebp+0x8]
    177d:	8b 40 10             	mov    eax,DWORD PTR [eax+0x10]
    1780:	83 ec 0c             	sub    esp,0xc
    1783:	50                   	push   eax
    1784:	e8 fc ff ff ff       	call   1785 <.L105+0x2d3>
    1789:	83 c4 10             	add    esp,0x10
    178c:	8b 45 08             	mov    eax,DWORD PTR [ebp+0x8]
    178f:	8b 00                	mov    eax,DWORD PTR [eax]
    1791:	83 ec 08             	sub    esp,0x8
    1794:	50                   	push   eax
    1795:	8d 83 5c 03 00 00    	lea    eax,[ebx+0x35c]
    179b:	50                   	push   eax
    179c:	e8 fc ff ff ff       	call   179d <.L105+0x2eb>
    17a1:	83 c4 10             	add    esp,0x10
    17a4:	8b 45 08             	mov    eax,DWORD PTR [ebp+0x8]
    17a7:	8b 40 10             	mov    eax,DWORD PTR [eax+0x10]
    17aa:	83 c0 6c             	add    eax,0x6c
    17ad:	83 ec 04             	sub    esp,0x4
    17b0:	6a 20                	push   0x20
    17b2:	50                   	push   eax
    17b3:	6a 01                	push   0x1
    17b5:	e8 fc ff ff ff       	call   17b6 <.L105+0x304>
    17ba:	83 c4 10             	add    esp,0x10
    17bd:	83 ec 0c             	sub    esp,0xc
    17c0:	ff 75 08             	push   DWORD PTR [ebp+0x8]
    17c3:	e8 9e f0 ff ff       	call   866 <hmac_sha256_uf>
    17c8:	83 c4 10             	add    esp,0x10
    17cb:	8b 45 08             	mov    eax,DWORD PTR [ebp+0x8]
    17ce:	8b 80 44 00 00 01    	mov    eax,DWORD PTR [eax+0x1000044]
    17d4:	85 c0                	test   eax,eax
    17d6:	75 46                	jne    181e <.L105+0x36c>
    17d8:	8b 45 08             	mov    eax,DWORD PTR [ebp+0x8]
    17db:	8b 40 10             	mov    eax,DWORD PTR [eax+0x10]
    17de:	83 c0 6c             	add    eax,0x6c
    17e1:	ff 75 c0             	push   DWORD PTR [ebp-0x40]
    17e4:	6a 20                	push   0x20
    17e6:	6a 01                	push   0x1
    17e8:	50                   	push   eax
    17e9:	e8 fc ff ff ff       	call   17ea <.L105+0x338>
    17ee:	83 c4 10             	add    esp,0x10
    17f1:	83 f8 20             	cmp    eax,0x20
    17f4:	74 18                	je     180e <.L105+0x35c>
    17f6:	83 ec 04             	sub    esp,0x4
    17f9:	6a 04                	push   0x4
    17fb:	ff 75 c0             	push   DWORD PTR [ebp-0x40]
    17fe:	ff 75 c4             	push   DWORD PTR [ebp-0x3c]
    1801:	e8 d6 f3 ff ff       	call   bdc <close_in_out_files>
    1806:	83 c4 10             	add    esp,0x10
    1809:	e9 ad 00 00 00       	jmp    18bb <.L105+0x409>
    180e:	83 ec 0c             	sub    esp,0xc
    1811:	ff 75 c0             	push   DWORD PTR [ebp-0x40]
    1814:	e8 fc ff ff ff       	call   1815 <.L105+0x363>
    1819:	83 c4 10             	add    esp,0x10
    181c:	eb 59                	jmp    1877 <.L105+0x3c5>
    181e:	8b 45 08             	mov    eax,DWORD PTR [ebp+0x8]
    1821:	8b 40 10             	mov    eax,DWORD PTR [eax+0x10]
    1824:	8d 50 6c             	lea    edx,[eax+0x6c]
    1827:	8b 45 08             	mov    eax,DWORD PTR [ebp+0x8]
    182a:	8d 48 28             	lea    ecx,[eax+0x28]
    182d:	8b 45 d4             	mov    eax,DWORD PTR [ebp-0x2c]
    1830:	01 c8                	add    eax,ecx
    1832:	83 ec 04             	sub    esp,0x4
    1835:	6a 20                	push   0x20
    1837:	52                   	push   edx
    1838:	50                   	push   eax
    1839:	e8 fc ff ff ff       	call   183a <.L105+0x388>
    183e:	83 c4 10             	add    esp,0x10
    1841:	85 c0                	test   eax,eax
    1843:	74 1a                	je     185f <.L105+0x3ad>
    1845:	8b 45 08             	mov    eax,DWORD PTR [ebp+0x8]
    1848:	8b 00                	mov    eax,DWORD PTR [eax]
    184a:	83 ec 08             	sub    esp,0x8
    184d:	50                   	push   eax
    184e:	8d 83 88 03 00 00    	lea    eax,[ebx+0x388]
    1854:	50                   	push   eax
    1855:	e8 fc ff ff ff       	call   1856 <.L105+0x3a4>
    185a:	83 c4 10             	add    esp,0x10
    185d:	eb 18                	jmp    1877 <.L105+0x3c5>
    185f:	8b 45 08             	mov    eax,DWORD PTR [ebp+0x8]
    1862:	8b 00                	mov    eax,DWORD PTR [eax]
    1864:	83 ec 08             	sub    esp,0x8
    1867:	50                   	push   eax
    1868:	8d 83 bc 03 00 00    	lea    eax,[ebx+0x3bc]
    186e:	50                   	push   eax
    186f:	e8 fc ff ff ff       	call   1870 <.L105+0x3be>
    1874:	83 c4 10             	add    esp,0x10
    1877:	8b 45 08             	mov    eax,DWORD PTR [ebp+0x8]
    187a:	8b 00                	mov    eax,DWORD PTR [eax]
    187c:	83 ec 08             	sub    esp,0x8
    187f:	50                   	push   eax
    1880:	8d 83 e4 03 00 00    	lea    eax,[ebx+0x3e4]
    1886:	50                   	push   eax
    1887:	e8 fc ff ff ff       	call   1888 <.L105+0x3d6>
    188c:	83 c4 10             	add    esp,0x10
    188f:	8b 45 08             	mov    eax,DWORD PTR [ebp+0x8]
    1892:	8b 40 10             	mov    eax,DWORD PTR [eax+0x10]
    1895:	83 c0 6c             	add    eax,0x6c
    1898:	83 ec 04             	sub    esp,0x4
    189b:	6a 20                	push   0x20
    189d:	50                   	push   eax
    189e:	6a 01                	push   0x1
    18a0:	e8 fc ff ff ff       	call   18a1 <.L105+0x3ef>
    18a5:	83 c4 10             	add    esp,0x10
    18a8:	83 ec 04             	sub    esp,0x4
    18ab:	6a 00                	push   0x0
    18ad:	ff 75 c0             	push   DWORD PTR [ebp-0x40]
    18b0:	ff 75 c4             	push   DWORD PTR [ebp-0x3c]
    18b3:	e8 24 f3 ff ff       	call   bdc <close_in_out_files>
    18b8:	83 c4 10             	add    esp,0x10
    18bb:	8d 65 f4             	lea    esp,[ebp-0xc]
    18be:	5b                   	pop    ebx
    18bf:	5e                   	pop    esi
    18c0:	5f                   	pop    edi
    18c1:	5d                   	pop    ebp
    18c2:	c3                   	ret    

000018c3 <random_vector_init>:
    18c3:	55                   	push   ebp
    18c4:	89 e5                	mov    ebp,esp
    18c6:	56                   	push   esi
    18c7:	53                   	push   ebx
    18c8:	83 ec 20             	sub    esp,0x20
    18cb:	e8 fc ff ff ff       	call   18cc <random_vector_init+0x9>
    18d0:	81 c3 02 00 00 00    	add    ebx,0x2
    18d6:	c7 45 f0 08 01 00 00 	mov    DWORD PTR [ebp-0x10],0x108
    18dd:	8b 45 0c             	mov    eax,DWORD PTR [ebp+0xc]
    18e0:	89 45 ec             	mov    DWORD PTR [ebp-0x14],eax
    18e3:	c7 45 e8 00 00 00 00 	mov    DWORD PTR [ebp-0x18],0x0
    18ea:	c7 45 e4 00 00 00 00 	mov    DWORD PTR [ebp-0x1c],0x0
    18f1:	83 ec 0c             	sub    esp,0xc
    18f4:	ff 75 ec             	push   DWORD PTR [ebp-0x14]
    18f7:	e8 fc ff ff ff       	call   18f8 <random_vector_init+0x35>
    18fc:	83 c4 10             	add    esp,0x10
    18ff:	89 45 e8             	mov    DWORD PTR [ebp-0x18],eax
    1902:	83 ec 0c             	sub    esp,0xc
    1905:	ff 75 f0             	push   DWORD PTR [ebp-0x10]
    1908:	e8 fc ff ff ff       	call   1909 <random_vector_init+0x46>
    190d:	83 c4 10             	add    esp,0x10
    1910:	89 45 e4             	mov    DWORD PTR [ebp-0x1c],eax
    1913:	83 7d e4 00          	cmp    DWORD PTR [ebp-0x1c],0x0
    1917:	74 06                	je     191f <random_vector_init+0x5c>
    1919:	83 7d e8 00          	cmp    DWORD PTR [ebp-0x18],0x0
    191d:	75 42                	jne    1961 <random_vector_init+0x9e>
    191f:	83 ec 0c             	sub    esp,0xc
    1922:	ff 75 e8             	push   DWORD PTR [ebp-0x18]
    1925:	e8 fc ff ff ff       	call   1926 <random_vector_init+0x63>
    192a:	83 c4 10             	add    esp,0x10
    192d:	83 ec 0c             	sub    esp,0xc
    1930:	ff 75 e4             	push   DWORD PTR [ebp-0x1c]
    1933:	e8 fc ff ff ff       	call   1934 <random_vector_init+0x71>
    1938:	83 c4 10             	add    esp,0x10
    193b:	8b 83 00 00 00 00    	mov    eax,DWORD PTR [ebx+0x0]
    1941:	8b 00                	mov    eax,DWORD PTR [eax]
    1943:	50                   	push   eax
    1944:	6a 1c                	push   0x1c
    1946:	6a 01                	push   0x1
    1948:	8d 83 c2 00 00 00    	lea    eax,[ebx+0xc2]
    194e:	50                   	push   eax
    194f:	e8 fc ff ff ff       	call   1950 <random_vector_init+0x8d>
    1954:	83 c4 10             	add    esp,0x10
    1957:	83 ec 0c             	sub    esp,0xc
    195a:	6a 01                	push   0x1
    195c:	e8 fc ff ff ff       	call   195d <random_vector_init+0x9a>
    1961:	c7 45 f4 00 00 00 00 	mov    DWORD PTR [ebp-0xc],0x0
    1968:	eb 2f                	jmp    1999 <random_vector_init+0xd6>
    196a:	83 ec 08             	sub    esp,0x8
    196d:	68 ff 00 00 00       	push   0xff
    1972:	6a 00                	push   0x0
    1974:	e8 fc ff ff ff       	call   1975 <random_vector_init+0xb2>
    1979:	83 c4 10             	add    esp,0x10
    197c:	89 c6                	mov    esi,eax
    197e:	8b 55 e8             	mov    edx,DWORD PTR [ebp-0x18]
    1981:	8b 45 f4             	mov    eax,DWORD PTR [ebp-0xc]
    1984:	01 d0                	add    eax,edx
    1986:	0f b6 10             	movzx  edx,BYTE PTR [eax]
    1989:	8b 4d e8             	mov    ecx,DWORD PTR [ebp-0x18]
    198c:	8b 45 f4             	mov    eax,DWORD PTR [ebp-0xc]
    198f:	01 c8                	add    eax,ecx
    1991:	31 f2                	xor    edx,esi
    1993:	88 10                	mov    BYTE PTR [eax],dl
    1995:	83 45 f4 01          	add    DWORD PTR [ebp-0xc],0x1
    1999:	8b 45 f4             	mov    eax,DWORD PTR [ebp-0xc]
    199c:	3b 45 ec             	cmp    eax,DWORD PTR [ebp-0x14]
    199f:	72 c9                	jb     196a <random_vector_init+0xa7>
    19a1:	83 ec 04             	sub    esp,0x4
    19a4:	ff 75 0c             	push   DWORD PTR [ebp+0xc]
    19a7:	ff 75 08             	push   DWORD PTR [ebp+0x8]
    19aa:	ff 75 e4             	push   DWORD PTR [ebp-0x1c]
    19ad:	e8 fc ff ff ff       	call   19ae <random_vector_init+0xeb>
    19b2:	83 c4 10             	add    esp,0x10
    19b5:	ff 75 0c             	push   DWORD PTR [ebp+0xc]
    19b8:	ff 75 08             	push   DWORD PTR [ebp+0x8]
    19bb:	ff 75 e8             	push   DWORD PTR [ebp-0x18]
    19be:	ff 75 e4             	push   DWORD PTR [ebp-0x1c]
    19c1:	e8 fc ff ff ff       	call   19c2 <random_vector_init+0xff>
    19c6:	83 c4 10             	add    esp,0x10
    19c9:	83 ec 04             	sub    esp,0x4
    19cc:	ff 75 ec             	push   DWORD PTR [ebp-0x14]
    19cf:	6a 00                	push   0x0
    19d1:	ff 75 e8             	push   DWORD PTR [ebp-0x18]
    19d4:	e8 fc ff ff ff       	call   19d5 <random_vector_init+0x112>
    19d9:	83 c4 10             	add    esp,0x10
    19dc:	83 ec 04             	sub    esp,0x4
    19df:	ff 75 f0             	push   DWORD PTR [ebp-0x10]
    19e2:	6a 00                	push   0x0
    19e4:	ff 75 e4             	push   DWORD PTR [ebp-0x1c]
    19e7:	e8 fc ff ff ff       	call   19e8 <random_vector_init+0x125>
    19ec:	83 c4 10             	add    esp,0x10
    19ef:	83 ec 0c             	sub    esp,0xc
    19f2:	ff 75 e8             	push   DWORD PTR [ebp-0x18]
    19f5:	e8 fc ff ff ff       	call   19f6 <random_vector_init+0x133>
    19fa:	83 c4 10             	add    esp,0x10
    19fd:	83 ec 0c             	sub    esp,0xc
    1a00:	ff 75 e4             	push   DWORD PTR [ebp-0x1c]
    1a03:	e8 fc ff ff ff       	call   1a04 <random_vector_init+0x141>
    1a08:	83 c4 10             	add    esp,0x10
    1a0b:	c7 45 e8 00 00 00 00 	mov    DWORD PTR [ebp-0x18],0x0
    1a12:	c7 45 e4 00 00 00 00 	mov    DWORD PTR [ebp-0x1c],0x0
    1a19:	c7 45 ec 00 00 00 00 	mov    DWORD PTR [ebp-0x14],0x0
    1a20:	c7 45 f0 00 00 00 00 	mov    DWORD PTR [ebp-0x10],0x0
    1a27:	90                   	nop
    1a28:	8d 65 f8             	lea    esp,[ebp-0x8]
    1a2b:	5b                   	pop    ebx
    1a2c:	5e                   	pop    esi
    1a2d:	5d                   	pop    ebp
    1a2e:	c3                   	ret    

00001a2f <vector_init>:
    1a2f:	55                   	push   ebp
    1a30:	89 e5                	mov    ebp,esp
    1a32:	56                   	push   esi
    1a33:	53                   	push   ebx
    1a34:	83 ec 10             	sub    esp,0x10
    1a37:	e8 fc ff ff ff       	call   1a38 <vector_init+0x9>
    1a3c:	81 c3 02 00 00 00    	add    ebx,0x2
    1a42:	83 ec 08             	sub    esp,0x8
    1a45:	8d 83 00 00 00 00    	lea    eax,[ebx+0x0]
    1a4b:	50                   	push   eax
    1a4c:	8d 83 34 04 00 00    	lea    eax,[ebx+0x434]
    1a52:	50                   	push   eax
    1a53:	e8 fc ff ff ff       	call   1a54 <vector_init+0x25>
    1a58:	83 c4 10             	add    esp,0x10
    1a5b:	89 45 f0             	mov    DWORD PTR [ebp-0x10],eax
    1a5e:	83 7d f0 00          	cmp    DWORD PTR [ebp-0x10],0x0
    1a62:	74 48                	je     1aac <vector_init+0x7d>
    1a64:	ff 75 f0             	push   DWORD PTR [ebp-0x10]
    1a67:	ff 75 0c             	push   DWORD PTR [ebp+0xc]
    1a6a:	6a 01                	push   0x1
    1a6c:	ff 75 08             	push   DWORD PTR [ebp+0x8]
    1a6f:	e8 fc ff ff ff       	call   1a70 <vector_init+0x41>
    1a74:	83 c4 10             	add    esp,0x10
    1a77:	83 ec 0c             	sub    esp,0xc
    1a7a:	ff 75 f0             	push   DWORD PTR [ebp-0x10]
    1a7d:	e8 fc ff ff ff       	call   1a7e <vector_init+0x4f>
    1a82:	83 c4 10             	add    esp,0x10
    1a85:	83 ec 0c             	sub    esp,0xc
    1a88:	8d 83 44 04 00 00    	lea    eax,[ebx+0x444]
    1a8e:	50                   	push   eax
    1a8f:	e8 fc ff ff ff       	call   1a90 <vector_init+0x61>
    1a94:	83 c4 10             	add    esp,0x10
    1a97:	83 ec 04             	sub    esp,0x4
    1a9a:	ff 75 0c             	push   DWORD PTR [ebp+0xc]
    1a9d:	ff 75 08             	push   DWORD PTR [ebp+0x8]
    1aa0:	6a 01                	push   0x1
    1aa2:	e8 fc ff ff ff       	call   1aa3 <vector_init+0x74>
    1aa7:	83 c4 10             	add    esp,0x10
    1aaa:	eb 1c                	jmp    1ac8 <vector_init+0x99>
    1aac:	8b 83 00 00 00 00    	mov    eax,DWORD PTR [ebx+0x0]
    1ab2:	8b 00                	mov    eax,DWORD PTR [eax]
    1ab4:	50                   	push   eax
    1ab5:	6a 27                	push   0x27
    1ab7:	6a 01                	push   0x1
    1ab9:	8d 83 70 04 00 00    	lea    eax,[ebx+0x470]
    1abf:	50                   	push   eax
    1ac0:	e8 fc ff ff ff       	call   1ac1 <vector_init+0x92>
    1ac5:	83 c4 10             	add    esp,0x10
    1ac8:	c7 45 f4 00 00 00 00 	mov    DWORD PTR [ebp-0xc],0x0
    1acf:	eb 3d                	jmp    1b0e <vector_init+0xdf>
    1ad1:	8b 45 f4             	mov    eax,DWORD PTR [ebp-0xc]
    1ad4:	89 c6                	mov    esi,eax
    1ad6:	83 ec 08             	sub    esp,0x8
    1ad9:	68 ff 00 00 00       	push   0xff
    1ade:	6a 00                	push   0x0
    1ae0:	e8 fc ff ff ff       	call   1ae1 <vector_init+0xb2>
    1ae5:	83 c4 10             	add    esp,0x10
    1ae8:	31 f0                	xor    eax,esi
    1aea:	0f b6 d0             	movzx  edx,al
    1aed:	8b 4d 08             	mov    ecx,DWORD PTR [ebp+0x8]
    1af0:	8b 45 f4             	mov    eax,DWORD PTR [ebp-0xc]
    1af3:	01 c8                	add    eax,ecx
    1af5:	0f b6 00             	movzx  eax,BYTE PTR [eax]
    1af8:	89 c1                	mov    ecx,eax
    1afa:	89 d0                	mov    eax,edx
    1afc:	31 c1                	xor    ecx,eax
    1afe:	8b 55 08             	mov    edx,DWORD PTR [ebp+0x8]
    1b01:	8b 45 f4             	mov    eax,DWORD PTR [ebp-0xc]
    1b04:	01 d0                	add    eax,edx
    1b06:	89 ca                	mov    edx,ecx
    1b08:	88 10                	mov    BYTE PTR [eax],dl
    1b0a:	83 45 f4 01          	add    DWORD PTR [ebp-0xc],0x1
    1b0e:	8b 45 f4             	mov    eax,DWORD PTR [ebp-0xc]
    1b11:	3b 45 0c             	cmp    eax,DWORD PTR [ebp+0xc]
    1b14:	72 bb                	jb     1ad1 <vector_init+0xa2>
    1b16:	83 ec 08             	sub    esp,0x8
    1b19:	ff 75 0c             	push   DWORD PTR [ebp+0xc]
    1b1c:	ff 75 08             	push   DWORD PTR [ebp+0x8]
    1b1f:	e8 9f fd ff ff       	call   18c3 <random_vector_init>
    1b24:	83 c4 10             	add    esp,0x10
    1b27:	90                   	nop
    1b28:	8d 65 f8             	lea    esp,[ebp-0x8]
    1b2b:	5b                   	pop    ebx
    1b2c:	5e                   	pop    esi
    1b2d:	5d                   	pop    ebp
    1b2e:	c3                   	ret    

00001b2f <cipher_init_memory>:
    1b2f:	55                   	push   ebp
    1b30:	89 e5                	mov    ebp,esp
    1b32:	56                   	push   esi
    1b33:	53                   	push   ebx
    1b34:	83 ec 10             	sub    esp,0x10
    1b37:	e8 fc ff ff ff       	call   1b38 <cipher_init_memory+0x9>
    1b3c:	81 c3 02 00 00 00    	add    ebx,0x2
    1b42:	83 ec 08             	sub    esp,0x8
    1b45:	6a 01                	push   0x1
    1b47:	ff 75 0c             	push   DWORD PTR [ebp+0xc]
    1b4a:	e8 fc ff ff ff       	call   1b4b <cipher_init_memory+0x1c>
    1b4f:	83 c4 10             	add    esp,0x10
    1b52:	89 45 f4             	mov    DWORD PTR [ebp-0xc],eax
    1b55:	83 7d f4 00          	cmp    DWORD PTR [ebp-0xc],0x0
    1b59:	75 0a                	jne    1b65 <cipher_init_memory+0x36>
    1b5b:	b8 00 00 00 00       	mov    eax,0x0
    1b60:	e9 18 01 00 00       	jmp    1c7d <.L137+0x38>
    1b65:	8b 45 08             	mov    eax,DWORD PTR [ebp+0x8]
    1b68:	8b 80 48 00 00 01    	mov    eax,DWORD PTR [eax+0x1000048]
    1b6e:	83 f8 04             	cmp    eax,0x4
    1b71:	0f 87 03 01 00 00    	ja     1c7a <.L137+0x35>
    1b77:	c1 e0 02             	shl    eax,0x2
    1b7a:	8b 84 18 98 04 00 00 	mov    eax,DWORD PTR [eax+ebx*1+0x498]
    1b81:	01 d8                	add    eax,ebx
    1b83:	ff e0                	jmp    eax

00001b85 <.L142>:
    1b85:	8b 45 f4             	mov    eax,DWORD PTR [ebp-0xc]
    1b88:	89 83 00 00 00 00    	mov    DWORD PTR [ebx+0x0],eax
    1b8e:	8b 45 08             	mov    eax,DWORD PTR [ebp+0x8]
    1b91:	8b 40 24             	mov    eax,DWORD PTR [eax+0x24]
    1b94:	c1 e0 03             	shl    eax,0x3
    1b97:	89 c1                	mov    ecx,eax
    1b99:	8b 45 08             	mov    eax,DWORD PTR [ebp+0x8]
    1b9c:	8b 50 20             	mov    edx,DWORD PTR [eax+0x20]
    1b9f:	8b 83 00 00 00 00    	mov    eax,DWORD PTR [ebx+0x0]
    1ba5:	83 ec 04             	sub    esp,0x4
    1ba8:	51                   	push   ecx
    1ba9:	52                   	push   edx
    1baa:	50                   	push   eax
    1bab:	e8 fc ff ff ff       	call   1bac <.L142+0x27>
    1bb0:	83 c4 10             	add    esp,0x10
    1bb3:	e9 c2 00 00 00       	jmp    1c7a <.L137+0x35>

00001bb8 <.L140>:
    1bb8:	8b 45 f4             	mov    eax,DWORD PTR [ebp-0xc]
    1bbb:	89 83 08 00 00 00    	mov    DWORD PTR [ebx+0x8],eax
    1bc1:	8b 45 08             	mov    eax,DWORD PTR [ebp+0x8]
    1bc4:	8b 40 24             	mov    eax,DWORD PTR [eax+0x24]
    1bc7:	89 c1                	mov    ecx,eax
    1bc9:	8b 45 08             	mov    eax,DWORD PTR [ebp+0x8]
    1bcc:	8b 50 20             	mov    edx,DWORD PTR [eax+0x20]
    1bcf:	8b 83 08 00 00 00    	mov    eax,DWORD PTR [ebx+0x8]
    1bd5:	83 ec 04             	sub    esp,0x4
    1bd8:	51                   	push   ecx
    1bd9:	52                   	push   edx
    1bda:	50                   	push   eax
    1bdb:	e8 fc ff ff ff       	call   1bdc <.L140+0x24>
    1be0:	83 c4 10             	add    esp,0x10
    1be3:	e9 92 00 00 00       	jmp    1c7a <.L137+0x35>

00001be8 <.L141>:
    1be8:	8b 45 f4             	mov    eax,DWORD PTR [ebp-0xc]
    1beb:	89 83 04 00 00 00    	mov    DWORD PTR [ebx+0x4],eax
    1bf1:	8b 45 08             	mov    eax,DWORD PTR [ebp+0x8]
    1bf4:	8b 50 20             	mov    edx,DWORD PTR [eax+0x20]
    1bf7:	8b 45 08             	mov    eax,DWORD PTR [ebp+0x8]
    1bfa:	8b 40 24             	mov    eax,DWORD PTR [eax+0x24]
    1bfd:	c1 e0 03             	shl    eax,0x3
    1c00:	89 c1                	mov    ecx,eax
    1c02:	8b 83 04 00 00 00    	mov    eax,DWORD PTR [ebx+0x4]
    1c08:	83 ec 04             	sub    esp,0x4
    1c0b:	52                   	push   edx
    1c0c:	51                   	push   ecx
    1c0d:	50                   	push   eax
    1c0e:	e8 fc ff ff ff       	call   1c0f <.L141+0x27>
    1c13:	83 c4 10             	add    esp,0x10
    1c16:	eb 62                	jmp    1c7a <.L137+0x35>

00001c18 <.L139>:
    1c18:	8b 45 f4             	mov    eax,DWORD PTR [ebp-0xc]
    1c1b:	89 83 0c 00 00 00    	mov    DWORD PTR [ebx+0xc],eax
    1c21:	8b 45 08             	mov    eax,DWORD PTR [ebp+0x8]
    1c24:	8b 40 24             	mov    eax,DWORD PTR [eax+0x24]
    1c27:	89 c1                	mov    ecx,eax
    1c29:	8b 45 08             	mov    eax,DWORD PTR [ebp+0x8]
    1c2c:	8b 50 20             	mov    edx,DWORD PTR [eax+0x20]
    1c2f:	8b 83 0c 00 00 00    	mov    eax,DWORD PTR [ebx+0xc]
    1c35:	83 ec 04             	sub    esp,0x4
    1c38:	51                   	push   ecx
    1c39:	52                   	push   edx
    1c3a:	50                   	push   eax
    1c3b:	e8 fc ff ff ff       	call   1c3c <.L139+0x24>
    1c40:	83 c4 10             	add    esp,0x10
    1c43:	eb 35                	jmp    1c7a <.L137+0x35>

00001c45 <.L137>:
    1c45:	8b 45 f4             	mov    eax,DWORD PTR [ebp-0xc]
    1c48:	89 83 10 00 00 00    	mov    DWORD PTR [ebx+0x10],eax
    1c4e:	8b 45 08             	mov    eax,DWORD PTR [ebp+0x8]
    1c51:	8b 48 20             	mov    ecx,DWORD PTR [eax+0x20]
    1c54:	8b 45 08             	mov    eax,DWORD PTR [ebp+0x8]
    1c57:	8b 50 20             	mov    edx,DWORD PTR [eax+0x20]
    1c5a:	8b 45 08             	mov    eax,DWORD PTR [ebp+0x8]
    1c5d:	8b 40 24             	mov    eax,DWORD PTR [eax+0x24]
    1c60:	8d 34 c5 00 00 00 00 	lea    esi,[eax*8+0x0]
    1c67:	8b 83 10 00 00 00    	mov    eax,DWORD PTR [ebx+0x10]
    1c6d:	51                   	push   ecx
    1c6e:	52                   	push   edx
    1c6f:	56                   	push   esi
    1c70:	50                   	push   eax
    1c71:	e8 fc ff ff ff       	call   1c72 <.L137+0x2d>
    1c76:	83 c4 10             	add    esp,0x10
    1c79:	90                   	nop
    1c7a:	8b 45 f4             	mov    eax,DWORD PTR [ebp-0xc]
    1c7d:	8d 65 f8             	lea    esp,[ebp-0x8]
    1c80:	5b                   	pop    ebx
    1c81:	5e                   	pop    esi
    1c82:	5d                   	pop    ebp
    1c83:	c3                   	ret    

00001c84 <PRINT_OPERATION_STATUS>:
    1c84:	55                   	push   ebp
    1c85:	89 e5                	mov    ebp,esp
    1c87:	56                   	push   esi
    1c88:	53                   	push   ebx
    1c89:	e8 fc ff ff ff       	call   1c8a <PRINT_OPERATION_STATUS+0x6>
    1c8e:	81 c3 02 00 00 00    	add    ebx,0x2
    1c94:	83 7d 0c 09          	cmp    DWORD PTR [ebp+0xc],0x9
    1c98:	0f 87 9b 01 00 00    	ja     1e39 <.L145+0x1d>
    1c9e:	8b 45 0c             	mov    eax,DWORD PTR [ebp+0xc]
    1ca1:	c1 e0 02             	shl    eax,0x2
    1ca4:	8b 84 18 20 06 00 00 	mov    eax,DWORD PTR [eax+ebx*1+0x620]
    1cab:	01 d8                	add    eax,ebx
    1cad:	ff e0                	jmp    eax

00001caf <.L155>:
    1caf:	8b 45 08             	mov    eax,DWORD PTR [ebp+0x8]
    1cb2:	8b 30                	mov    esi,DWORD PTR [eax]
    1cb4:	8b 45 08             	mov    eax,DWORD PTR [ebp+0x8]
    1cb7:	8b 80 44 00 00 01    	mov    eax,DWORD PTR [eax+0x1000044]
    1cbd:	50                   	push   eax
    1cbe:	e8 cc ea ff ff       	call   78f <operation_variant>
    1cc3:	83 c4 04             	add    esp,0x4
    1cc6:	8b 84 83 28 00 00 00 	mov    eax,DWORD PTR [ebx+eax*4+0x28]
    1ccd:	83 ec 04             	sub    esp,0x4
    1cd0:	56                   	push   esi
    1cd1:	50                   	push   eax
    1cd2:	8d 83 ac 04 00 00    	lea    eax,[ebx+0x4ac]
    1cd8:	50                   	push   eax
    1cd9:	e8 fc ff ff ff       	call   1cda <.L155+0x2b>
    1cde:	83 c4 10             	add    esp,0x10
    1ce1:	e9 53 01 00 00       	jmp    1e39 <.L145+0x1d>

00001ce6 <.L154>:
    1ce6:	8b 45 08             	mov    eax,DWORD PTR [ebp+0x8]
    1ce9:	8b 30                	mov    esi,DWORD PTR [eax]
    1ceb:	8b 45 08             	mov    eax,DWORD PTR [ebp+0x8]
    1cee:	8b 80 44 00 00 01    	mov    eax,DWORD PTR [eax+0x1000044]
    1cf4:	83 ec 0c             	sub    esp,0xc
    1cf7:	50                   	push   eax
    1cf8:	e8 92 ea ff ff       	call   78f <operation_variant>
    1cfd:	83 c4 10             	add    esp,0x10
    1d00:	8b 94 83 28 00 00 00 	mov    edx,DWORD PTR [ebx+eax*4+0x28]
    1d07:	8b 83 00 00 00 00    	mov    eax,DWORD PTR [ebx+0x0]
    1d0d:	8b 00                	mov    eax,DWORD PTR [eax]
    1d0f:	56                   	push   esi
    1d10:	52                   	push   edx
    1d11:	8d 93 c8 04 00 00    	lea    edx,[ebx+0x4c8]
    1d17:	52                   	push   edx
    1d18:	50                   	push   eax
    1d19:	e8 fc ff ff ff       	call   1d1a <.L154+0x34>
    1d1e:	83 c4 10             	add    esp,0x10
    1d21:	e9 13 01 00 00       	jmp    1e39 <.L145+0x1d>

00001d26 <.L153>:
    1d26:	8b 45 08             	mov    eax,DWORD PTR [ebp+0x8]
    1d29:	8b 50 04             	mov    edx,DWORD PTR [eax+0x4]
    1d2c:	8b 83 00 00 00 00    	mov    eax,DWORD PTR [ebx+0x0]
    1d32:	8b 00                	mov    eax,DWORD PTR [eax]
    1d34:	83 ec 04             	sub    esp,0x4
    1d37:	52                   	push   edx
    1d38:	8d 93 ec 04 00 00    	lea    edx,[ebx+0x4ec]
    1d3e:	52                   	push   edx
    1d3f:	50                   	push   eax
    1d40:	e8 fc ff ff ff       	call   1d41 <.L153+0x1b>
    1d45:	83 c4 10             	add    esp,0x10
    1d48:	e9 ec 00 00 00       	jmp    1e39 <.L145+0x1d>

00001d4d <.L152>:
    1d4d:	8b 45 08             	mov    eax,DWORD PTR [ebp+0x8]
    1d50:	8b 10                	mov    edx,DWORD PTR [eax]
    1d52:	8b 83 00 00 00 00    	mov    eax,DWORD PTR [ebx+0x0]
    1d58:	8b 00                	mov    eax,DWORD PTR [eax]
    1d5a:	83 ec 04             	sub    esp,0x4
    1d5d:	52                   	push   edx
    1d5e:	8d 93 10 05 00 00    	lea    edx,[ebx+0x510]
    1d64:	52                   	push   edx
    1d65:	50                   	push   eax
    1d66:	e8 fc ff ff ff       	call   1d67 <.L152+0x1a>
    1d6b:	83 c4 10             	add    esp,0x10
    1d6e:	e9 c6 00 00 00       	jmp    1e39 <.L145+0x1d>

00001d73 <.L151>:
    1d73:	8b 45 08             	mov    eax,DWORD PTR [ebp+0x8]
    1d76:	8b 50 04             	mov    edx,DWORD PTR [eax+0x4]
    1d79:	8b 83 00 00 00 00    	mov    eax,DWORD PTR [ebx+0x0]
    1d7f:	8b 00                	mov    eax,DWORD PTR [eax]
    1d81:	83 ec 04             	sub    esp,0x4
    1d84:	52                   	push   edx
    1d85:	8d 93 40 05 00 00    	lea    edx,[ebx+0x540]
    1d8b:	52                   	push   edx
    1d8c:	50                   	push   eax
    1d8d:	e8 fc ff ff ff       	call   1d8e <.L151+0x1b>
    1d92:	83 c4 10             	add    esp,0x10
    1d95:	e9 9f 00 00 00       	jmp    1e39 <.L145+0x1d>

00001d9a <.L150>:
    1d9a:	8b 45 08             	mov    eax,DWORD PTR [ebp+0x8]
    1d9d:	8b 10                	mov    edx,DWORD PTR [eax]
    1d9f:	8b 83 00 00 00 00    	mov    eax,DWORD PTR [ebx+0x0]
    1da5:	8b 00                	mov    eax,DWORD PTR [eax]
    1da7:	83 ec 04             	sub    esp,0x4
    1daa:	52                   	push   edx
    1dab:	8d 93 60 05 00 00    	lea    edx,[ebx+0x560]
    1db1:	52                   	push   edx
    1db2:	50                   	push   eax
    1db3:	e8 fc ff ff ff       	call   1db4 <.L150+0x1a>
    1db8:	83 c4 10             	add    esp,0x10
    1dbb:	eb 7c                	jmp    1e39 <.L145+0x1d>

00001dbd <.L149>:
    1dbd:	8b 83 00 00 00 00    	mov    eax,DWORD PTR [ebx+0x0]
    1dc3:	8b 00                	mov    eax,DWORD PTR [eax]
    1dc5:	50                   	push   eax
    1dc6:	6a 1e                	push   0x1e
    1dc8:	6a 01                	push   0x1
    1dca:	8d 83 84 05 00 00    	lea    eax,[ebx+0x584]
    1dd0:	50                   	push   eax
    1dd1:	e8 fc ff ff ff       	call   1dd2 <.L149+0x15>
    1dd6:	83 c4 10             	add    esp,0x10
    1dd9:	eb 5e                	jmp    1e39 <.L145+0x1d>

00001ddb <.L148>:
    1ddb:	8b 83 00 00 00 00    	mov    eax,DWORD PTR [ebx+0x0]
    1de1:	8b 00                	mov    eax,DWORD PTR [eax]
    1de3:	50                   	push   eax
    1de4:	6a 1f                	push   0x1f
    1de6:	6a 01                	push   0x1
    1de8:	8d 83 a4 05 00 00    	lea    eax,[ebx+0x5a4]
    1dee:	50                   	push   eax
    1def:	e8 fc ff ff ff       	call   1df0 <.L148+0x15>
    1df4:	83 c4 10             	add    esp,0x10
    1df7:	eb 40                	jmp    1e39 <.L145+0x1d>

00001df9 <.L147>:
    1df9:	8b 45 08             	mov    eax,DWORD PTR [ebp+0x8]
    1dfc:	8b 10                	mov    edx,DWORD PTR [eax]
    1dfe:	8b 83 00 00 00 00    	mov    eax,DWORD PTR [ebx+0x0]
    1e04:	8b 00                	mov    eax,DWORD PTR [eax]
    1e06:	83 ec 04             	sub    esp,0x4
    1e09:	52                   	push   edx
    1e0a:	8d 93 c4 05 00 00    	lea    edx,[ebx+0x5c4]
    1e10:	52                   	push   edx
    1e11:	50                   	push   eax
    1e12:	e8 fc ff ff ff       	call   1e13 <.L147+0x1a>
    1e17:	83 c4 10             	add    esp,0x10
    1e1a:	eb 1d                	jmp    1e39 <.L145+0x1d>

00001e1c <.L145>:
    1e1c:	8b 83 00 00 00 00    	mov    eax,DWORD PTR [ebx+0x0]
    1e22:	8b 00                	mov    eax,DWORD PTR [eax]
    1e24:	50                   	push   eax
    1e25:	6a 2a                	push   0x2a
    1e27:	6a 01                	push   0x1
    1e29:	8d 83 f4 05 00 00    	lea    eax,[ebx+0x5f4]
    1e2f:	50                   	push   eax
    1e30:	e8 fc ff ff ff       	call   1e31 <.L145+0x15>
    1e35:	83 c4 10             	add    esp,0x10
    1e38:	90                   	nop
    1e39:	90                   	nop
    1e3a:	8d 65 f8             	lea    esp,[ebp-0x8]
    1e3d:	5b                   	pop    ebx
    1e3e:	5e                   	pop    esi
    1e3f:	5d                   	pop    ebp
    1e40:	c3                   	ret    

00001e41 <password_read>:
    1e41:	55                   	push   ebp
    1e42:	89 e5                	mov    ebp,esp
    1e44:	53                   	push   ebx
    1e45:	81 ec 84 00 00 00    	sub    esp,0x84
    1e4b:	e8 fc ff ff ff       	call   1e4c <password_read+0xb>
    1e50:	81 c3 02 00 00 00    	add    ebx,0x2
    1e56:	83 ec 08             	sub    esp,0x8
    1e59:	8d 45 b8             	lea    eax,[ebp-0x48]
    1e5c:	50                   	push   eax
    1e5d:	6a 00                	push   0x0
    1e5f:	e8 fc ff ff ff       	call   1e60 <password_read+0x1f>
    1e64:	83 c4 10             	add    esp,0x10
    1e67:	8b 45 b8             	mov    eax,DWORD PTR [ebp-0x48]
    1e6a:	89 85 7c ff ff ff    	mov    DWORD PTR [ebp-0x84],eax
    1e70:	8b 45 bc             	mov    eax,DWORD PTR [ebp-0x44]
    1e73:	89 45 80             	mov    DWORD PTR [ebp-0x80],eax
    1e76:	8b 45 c0             	mov    eax,DWORD PTR [ebp-0x40]
    1e79:	89 45 84             	mov    DWORD PTR [ebp-0x7c],eax
    1e7c:	8b 45 c4             	mov    eax,DWORD PTR [ebp-0x3c]
    1e7f:	89 45 88             	mov    DWORD PTR [ebp-0x78],eax
    1e82:	8b 45 c8             	mov    eax,DWORD PTR [ebp-0x38]
    1e85:	89 45 8c             	mov    DWORD PTR [ebp-0x74],eax
    1e88:	8b 45 cc             	mov    eax,DWORD PTR [ebp-0x34]
    1e8b:	89 45 90             	mov    DWORD PTR [ebp-0x70],eax
    1e8e:	8b 45 d0             	mov    eax,DWORD PTR [ebp-0x30]
    1e91:	89 45 94             	mov    DWORD PTR [ebp-0x6c],eax
    1e94:	8b 45 d4             	mov    eax,DWORD PTR [ebp-0x2c]
    1e97:	89 45 98             	mov    DWORD PTR [ebp-0x68],eax
    1e9a:	8b 45 d8             	mov    eax,DWORD PTR [ebp-0x28]
    1e9d:	89 45 9c             	mov    DWORD PTR [ebp-0x64],eax
    1ea0:	8b 45 dc             	mov    eax,DWORD PTR [ebp-0x24]
    1ea3:	89 45 a0             	mov    DWORD PTR [ebp-0x60],eax
    1ea6:	8b 45 e0             	mov    eax,DWORD PTR [ebp-0x20]
    1ea9:	89 45 a4             	mov    DWORD PTR [ebp-0x5c],eax
    1eac:	8b 45 e4             	mov    eax,DWORD PTR [ebp-0x1c]
    1eaf:	89 45 a8             	mov    DWORD PTR [ebp-0x58],eax
    1eb2:	8b 45 e8             	mov    eax,DWORD PTR [ebp-0x18]
    1eb5:	89 45 ac             	mov    DWORD PTR [ebp-0x54],eax
    1eb8:	8b 45 ec             	mov    eax,DWORD PTR [ebp-0x14]
    1ebb:	89 45 b0             	mov    DWORD PTR [ebp-0x50],eax
    1ebe:	8b 45 f0             	mov    eax,DWORD PTR [ebp-0x10]
    1ec1:	89 45 b4             	mov    DWORD PTR [ebp-0x4c],eax
    1ec4:	8b 45 c4             	mov    eax,DWORD PTR [ebp-0x3c]
    1ec7:	83 e0 f7             	and    eax,0xfffffff7
    1eca:	89 45 c4             	mov    DWORD PTR [ebp-0x3c],eax
    1ecd:	83 ec 04             	sub    esp,0x4
    1ed0:	8d 45 b8             	lea    eax,[ebp-0x48]
    1ed3:	50                   	push   eax
    1ed4:	6a 00                	push   0x0
    1ed6:	6a 00                	push   0x0
    1ed8:	e8 fc ff ff ff       	call   1ed9 <password_read+0x98>
    1edd:	83 c4 10             	add    esp,0x10
    1ee0:	8b 83 00 00 00 00    	mov    eax,DWORD PTR [ebx+0x0]
    1ee6:	8b 00                	mov    eax,DWORD PTR [eax]
    1ee8:	83 ec 0c             	sub    esp,0xc
    1eeb:	50                   	push   eax
    1eec:	e8 fc ff ff ff       	call   1eed <password_read+0xac>
    1ef1:	83 c4 10             	add    esp,0x10
    1ef4:	8b 83 00 00 00 00    	mov    eax,DWORD PTR [ebx+0x0]
    1efa:	8b 00                	mov    eax,DWORD PTR [eax]
    1efc:	83 ec 0c             	sub    esp,0xc
    1eff:	50                   	push   eax
    1f00:	e8 fc ff ff ff       	call   1f01 <password_read+0xc0>
    1f05:	83 c4 10             	add    esp,0x10
    1f08:	83 ec 0c             	sub    esp,0xc
    1f0b:	8d 83 48 06 00 00    	lea    eax,[ebx+0x648]
    1f11:	50                   	push   eax
    1f12:	e8 fc ff ff ff       	call   1f13 <password_read+0xd2>
    1f17:	83 c4 10             	add    esp,0x10
    1f1a:	8b 83 00 00 00 00    	mov    eax,DWORD PTR [ebx+0x0]
    1f20:	8b 10                	mov    edx,DWORD PTR [eax]
    1f22:	8b 45 08             	mov    eax,DWORD PTR [ebp+0x8]
    1f25:	8b 40 0c             	mov    eax,DWORD PTR [eax+0xc]
    1f28:	89 c1                	mov    ecx,eax
    1f2a:	8b 45 08             	mov    eax,DWORD PTR [ebp+0x8]
    1f2d:	8b 40 08             	mov    eax,DWORD PTR [eax+0x8]
    1f30:	83 ec 04             	sub    esp,0x4
    1f33:	52                   	push   edx
    1f34:	51                   	push   ecx
    1f35:	50                   	push   eax
    1f36:	e8 fc ff ff ff       	call   1f37 <password_read+0xf6>
    1f3b:	83 c4 10             	add    esp,0x10
    1f3e:	85 c0                	test   eax,eax
    1f40:	75 23                	jne    1f65 <password_read+0x124>
    1f42:	8b 83 00 00 00 00    	mov    eax,DWORD PTR [ebx+0x0]
    1f48:	8b 00                	mov    eax,DWORD PTR [eax]
    1f4a:	50                   	push   eax
    1f4b:	6a 29                	push   0x29
    1f4d:	6a 01                	push   0x1
    1f4f:	8d 83 6c 06 00 00    	lea    eax,[ebx+0x66c]
    1f55:	50                   	push   eax
    1f56:	e8 fc ff ff ff       	call   1f57 <password_read+0x116>
    1f5b:	83 c4 10             	add    esp,0x10
    1f5e:	b8 03 00 00 00       	mov    eax,0x3
    1f63:	eb 6d                	jmp    1fd2 <password_read+0x191>
    1f65:	c7 45 f4 00 00 00 00 	mov    DWORD PTR [ebp-0xc],0x0
    1f6c:	eb 26                	jmp    1f94 <password_read+0x153>
    1f6e:	8b 45 08             	mov    eax,DWORD PTR [ebp+0x8]
    1f71:	8b 50 08             	mov    edx,DWORD PTR [eax+0x8]
    1f74:	8b 45 f4             	mov    eax,DWORD PTR [ebp-0xc]
    1f77:	01 d0                	add    eax,edx
    1f79:	0f b6 00             	movzx  eax,BYTE PTR [eax]
    1f7c:	3c 0a                	cmp    al,0xa
    1f7e:	75 10                	jne    1f90 <password_read+0x14f>
    1f80:	8b 45 08             	mov    eax,DWORD PTR [ebp+0x8]
    1f83:	8b 50 08             	mov    edx,DWORD PTR [eax+0x8]
    1f86:	8b 45 f4             	mov    eax,DWORD PTR [ebp-0xc]
    1f89:	01 d0                	add    eax,edx
    1f8b:	c6 00 00             	mov    BYTE PTR [eax],0x0
    1f8e:	eb 11                	jmp    1fa1 <password_read+0x160>
    1f90:	83 45 f4 01          	add    DWORD PTR [ebp-0xc],0x1
    1f94:	8b 45 08             	mov    eax,DWORD PTR [ebp+0x8]
    1f97:	8b 50 0c             	mov    edx,DWORD PTR [eax+0xc]
    1f9a:	8b 45 f4             	mov    eax,DWORD PTR [ebp-0xc]
    1f9d:	39 c2                	cmp    edx,eax
    1f9f:	77 cd                	ja     1f6e <password_read+0x12d>
    1fa1:	83 ec 04             	sub    esp,0x4
    1fa4:	8d 85 7c ff ff ff    	lea    eax,[ebp-0x84]
    1faa:	50                   	push   eax
    1fab:	6a 00                	push   0x0
    1fad:	6a 00                	push   0x0
    1faf:	e8 fc ff ff ff       	call   1fb0 <password_read+0x16f>
    1fb4:	83 c4 10             	add    esp,0x10
    1fb7:	8b 83 00 00 00 00    	mov    eax,DWORD PTR [ebx+0x0]
    1fbd:	8b 00                	mov    eax,DWORD PTR [eax]
    1fbf:	83 ec 08             	sub    esp,0x8
    1fc2:	50                   	push   eax
    1fc3:	6a 0a                	push   0xa
    1fc5:	e8 fc ff ff ff       	call   1fc6 <password_read+0x185>
    1fca:	83 c4 10             	add    esp,0x10
    1fcd:	b8 00 00 00 00       	mov    eax,0x0
    1fd2:	8b 5d fc             	mov    ebx,DWORD PTR [ebp-0x4]
    1fd5:	c9                   	leave  
    1fd6:	c3                   	ret    

00001fd7 <INITIALIZED_GLOBAL_MEMORY>:
    1fd7:	55                   	push   ebp
    1fd8:	89 e5                	mov    ebp,esp
    1fda:	56                   	push   esi
    1fdb:	53                   	push   ebx
    1fdc:	e8 fc ff ff ff       	call   1fdd <INITIALIZED_GLOBAL_MEMORY+0x6>
    1fe1:	81 c3 02 00 00 00    	add    ebx,0x2
    1fe7:	83 ec 0c             	sub    esp,0xc
    1fea:	ff 75 0c             	push   DWORD PTR [ebp+0xc]
    1fed:	e8 fc ff ff ff       	call   1fee <INITIALIZED_GLOBAL_MEMORY+0x17>
    1ff2:	83 c4 10             	add    esp,0x10
    1ff5:	89 c2                	mov    edx,eax
    1ff7:	8b 45 08             	mov    eax,DWORD PTR [ebp+0x8]
    1ffa:	89 10                	mov    DWORD PTR [eax],edx
    1ffc:	8b 45 08             	mov    eax,DWORD PTR [ebp+0x8]
    1fff:	8b 00                	mov    eax,DWORD PTR [eax]
    2001:	85 c0                	test   eax,eax
    2003:	75 0a                	jne    200f <INITIALIZED_GLOBAL_MEMORY+0x38>
    2005:	b8 01 00 00 00       	mov    eax,0x1
    200a:	e9 34 01 00 00       	jmp    2143 <INITIALIZED_GLOBAL_MEMORY+0x16c>
    200f:	8b 45 08             	mov    eax,DWORD PTR [ebp+0x8]
    2012:	8b 00                	mov    eax,DWORD PTR [eax]
    2014:	83 ec 04             	sub    esp,0x4
    2017:	ff 75 0c             	push   DWORD PTR [ebp+0xc]
    201a:	6a 00                	push   0x0
    201c:	50                   	push   eax
    201d:	e8 fc ff ff ff       	call   201e <INITIALIZED_GLOBAL_MEMORY+0x47>
    2022:	83 c4 10             	add    esp,0x10
    2025:	8b 45 08             	mov    eax,DWORD PTR [ebp+0x8]
    2028:	8b 00                	mov    eax,DWORD PTR [eax]
    202a:	c7 00 00 00 00 00    	mov    DWORD PTR [eax],0x0
    2030:	8b 45 08             	mov    eax,DWORD PTR [ebp+0x8]
    2033:	8b 00                	mov    eax,DWORD PTR [eax]
    2035:	c7 40 04 00 00 00 00 	mov    DWORD PTR [eax+0x4],0x0
    203c:	8b 45 08             	mov    eax,DWORD PTR [ebp+0x8]
    203f:	8b 00                	mov    eax,DWORD PTR [eax]
    2041:	c7 40 18 00 00 00 00 	mov    DWORD PTR [eax+0x18],0x0
    2048:	8b 45 08             	mov    eax,DWORD PTR [ebp+0x8]
    204b:	8b 00                	mov    eax,DWORD PTR [eax]
    204d:	c7 40 20 00 00 00 00 	mov    DWORD PTR [eax+0x20],0x0
    2054:	8b 45 08             	mov    eax,DWORD PTR [ebp+0x8]
    2057:	8b 00                	mov    eax,DWORD PTR [eax]
    2059:	c7 80 44 00 00 01 00 	mov    DWORD PTR [eax+0x1000044],0x0
    2060:	00 00 00 
    2063:	8b 45 08             	mov    eax,DWORD PTR [ebp+0x8]
    2066:	8b 00                	mov    eax,DWORD PTR [eax]
    2068:	c7 80 48 00 00 01 00 	mov    DWORD PTR [eax+0x1000048],0x0
    206f:	00 00 00 
    2072:	8b 45 08             	mov    eax,DWORD PTR [ebp+0x8]
    2075:	8b 00                	mov    eax,DWORD PTR [eax]
    2077:	c7 40 1c 00 00 00 00 	mov    DWORD PTR [eax+0x1c],0x0
    207e:	8b 45 08             	mov    eax,DWORD PTR [ebp+0x8]
    2081:	8b 00                	mov    eax,DWORD PTR [eax]
    2083:	c7 40 24 00 00 00 00 	mov    DWORD PTR [eax+0x24],0x0
    208a:	8b 45 08             	mov    eax,DWORD PTR [ebp+0x8]
    208d:	8b 00                	mov    eax,DWORD PTR [eax]
    208f:	c7 40 0c 00 08 00 00 	mov    DWORD PTR [eax+0xc],0x800
    2096:	8b 45 08             	mov    eax,DWORD PTR [ebp+0x8]
    2099:	8b 00                	mov    eax,DWORD PTR [eax]
    209b:	c7 40 14 8c 00 00 00 	mov    DWORD PTR [eax+0x14],0x8c
    20a2:	8b 45 08             	mov    eax,DWORD PTR [ebp+0x8]
    20a5:	8b 00                	mov    eax,DWORD PTR [eax]
    20a7:	8b 40 0c             	mov    eax,DWORD PTR [eax+0xc]
    20aa:	8b 55 08             	mov    edx,DWORD PTR [ebp+0x8]
    20ad:	8b 32                	mov    esi,DWORD PTR [edx]
    20af:	83 ec 0c             	sub    esp,0xc
    20b2:	50                   	push   eax
    20b3:	e8 fc ff ff ff       	call   20b4 <INITIALIZED_GLOBAL_MEMORY+0xdd>
    20b8:	83 c4 10             	add    esp,0x10
    20bb:	89 46 08             	mov    DWORD PTR [esi+0x8],eax
    20be:	8b 45 08             	mov    eax,DWORD PTR [ebp+0x8]
    20c1:	8b 00                	mov    eax,DWORD PTR [eax]
    20c3:	8b 40 08             	mov    eax,DWORD PTR [eax+0x8]
    20c6:	85 c0                	test   eax,eax
    20c8:	75 07                	jne    20d1 <INITIALIZED_GLOBAL_MEMORY+0xfa>
    20ca:	b8 02 00 00 00       	mov    eax,0x2
    20cf:	eb 72                	jmp    2143 <INITIALIZED_GLOBAL_MEMORY+0x16c>
    20d1:	8b 45 08             	mov    eax,DWORD PTR [ebp+0x8]
    20d4:	8b 00                	mov    eax,DWORD PTR [eax]
    20d6:	8b 40 14             	mov    eax,DWORD PTR [eax+0x14]
    20d9:	8b 55 08             	mov    edx,DWORD PTR [ebp+0x8]
    20dc:	8b 32                	mov    esi,DWORD PTR [edx]
    20de:	83 ec 0c             	sub    esp,0xc
    20e1:	50                   	push   eax
    20e2:	e8 fc ff ff ff       	call   20e3 <INITIALIZED_GLOBAL_MEMORY+0x10c>
    20e7:	83 c4 10             	add    esp,0x10
    20ea:	89 46 10             	mov    DWORD PTR [esi+0x10],eax
    20ed:	8b 45 08             	mov    eax,DWORD PTR [ebp+0x8]
    20f0:	8b 00                	mov    eax,DWORD PTR [eax]
    20f2:	8b 40 10             	mov    eax,DWORD PTR [eax+0x10]
    20f5:	85 c0                	test   eax,eax
    20f7:	75 07                	jne    2100 <INITIALIZED_GLOBAL_MEMORY+0x129>
    20f9:	b8 03 00 00 00       	mov    eax,0x3
    20fe:	eb 43                	jmp    2143 <INITIALIZED_GLOBAL_MEMORY+0x16c>
    2100:	8b 45 08             	mov    eax,DWORD PTR [ebp+0x8]
    2103:	8b 00                	mov    eax,DWORD PTR [eax]
    2105:	8b 50 0c             	mov    edx,DWORD PTR [eax+0xc]
    2108:	8b 45 08             	mov    eax,DWORD PTR [ebp+0x8]
    210b:	8b 00                	mov    eax,DWORD PTR [eax]
    210d:	8b 40 08             	mov    eax,DWORD PTR [eax+0x8]
    2110:	83 ec 04             	sub    esp,0x4
    2113:	52                   	push   edx
    2114:	6a 00                	push   0x0
    2116:	50                   	push   eax
    2117:	e8 fc ff ff ff       	call   2118 <INITIALIZED_GLOBAL_MEMORY+0x141>
    211c:	83 c4 10             	add    esp,0x10
    211f:	8b 45 08             	mov    eax,DWORD PTR [ebp+0x8]
    2122:	8b 00                	mov    eax,DWORD PTR [eax]
    2124:	8b 50 14             	mov    edx,DWORD PTR [eax+0x14]
    2127:	8b 45 08             	mov    eax,DWORD PTR [ebp+0x8]
    212a:	8b 00                	mov    eax,DWORD PTR [eax]
    212c:	8b 40 10             	mov    eax,DWORD PTR [eax+0x10]
    212f:	83 ec 04             	sub    esp,0x4
    2132:	52                   	push   edx
    2133:	6a 00                	push   0x0
    2135:	50                   	push   eax
    2136:	e8 fc ff ff ff       	call   2137 <INITIALIZED_GLOBAL_MEMORY+0x160>
    213b:	83 c4 10             	add    esp,0x10
    213e:	b8 00 00 00 00       	mov    eax,0x0
    2143:	8d 65 f8             	lea    esp,[ebp-0x8]
    2146:	5b                   	pop    ebx
    2147:	5e                   	pop    esi
    2148:	5d                   	pop    ebp
    2149:	c3                   	ret    

0000214a <main>:
    214a:	8d 4c 24 04          	lea    ecx,[esp+0x4]
    214e:	83 e4 f0             	and    esp,0xfffffff0
    2151:	ff 71 fc             	push   DWORD PTR [ecx-0x4]
    2154:	55                   	push   ebp
    2155:	89 e5                	mov    ebp,esp
    2157:	57                   	push   edi
    2158:	56                   	push   esi
    2159:	53                   	push   ebx
    215a:	51                   	push   ecx
    215b:	83 ec 28             	sub    esp,0x28
    215e:	e8 fc ff ff ff       	call   215f <main+0x15>
    2163:	81 c3 02 00 00 00    	add    ebx,0x2
    2169:	89 ce                	mov    esi,ecx
    216b:	c7 45 dc 00 00 00 00 	mov    DWORD PTR [ebp-0x24],0x0
    2172:	83 ec 0c             	sub    esp,0xc
    2175:	6a 00                	push   0x0
    2177:	e8 fc ff ff ff       	call   2178 <main+0x2e>
    217c:	83 c4 10             	add    esp,0x10
    217f:	89 c2                	mov    edx,eax
    2181:	8b 45 d8             	mov    eax,DWORD PTR [ebp-0x28]
    2184:	01 d0                	add    eax,edx
    2186:	83 ec 0c             	sub    esp,0xc
    2189:	50                   	push   eax
    218a:	e8 fc ff ff ff       	call   218b <main+0x41>
    218f:	83 c4 10             	add    esp,0x10
    2192:	83 ec 0c             	sub    esp,0xc
    2195:	6a 00                	push   0x0
    2197:	e8 fc ff ff ff       	call   2198 <main+0x4e>
    219c:	83 c4 10             	add    esp,0x10
    219f:	85 c0                	test   eax,eax
    21a1:	75 26                	jne    21c9 <main+0x7f>
    21a3:	8b 83 00 00 00 00    	mov    eax,DWORD PTR [ebx+0x0]
    21a9:	8b 00                	mov    eax,DWORD PTR [eax]
    21ab:	50                   	push   eax
    21ac:	6a 12                	push   0x12
    21ae:	6a 01                	push   0x1
    21b0:	8d 83 96 06 00 00    	lea    eax,[ebx+0x696]
    21b6:	50                   	push   eax
    21b7:	e8 fc ff ff ff       	call   21b8 <main+0x6e>
    21bc:	83 c4 10             	add    esp,0x10
    21bf:	b8 01 00 00 00       	mov    eax,0x1
    21c4:	e9 9d 0f 00 00       	jmp    3166 <.L231+0x221>
    21c9:	c7 45 d4 4c 00 00 01 	mov    DWORD PTR [ebp-0x2c],0x100004c
    21d0:	83 ec 08             	sub    esp,0x8
    21d3:	ff 75 d4             	push   DWORD PTR [ebp-0x2c]
    21d6:	8d 45 c8             	lea    eax,[ebp-0x38]
    21d9:	50                   	push   eax
    21da:	e8 fc ff ff ff       	call   21db <main+0x91>
    21df:	83 c4 10             	add    esp,0x10
    21e2:	89 45 d0             	mov    DWORD PTR [ebp-0x30],eax
    21e5:	83 7d d0 00          	cmp    DWORD PTR [ebp-0x30],0x0
    21e9:	74 36                	je     2221 <main+0xd7>
    21eb:	8b 45 c8             	mov    eax,DWORD PTR [ebp-0x38]
    21ee:	83 ec 08             	sub    esp,0x8
    21f1:	ff 75 d4             	push   DWORD PTR [ebp-0x2c]
    21f4:	50                   	push   eax
    21f5:	e8 06 de ff ff       	call   0 <free_global_memory>
    21fa:	83 c4 10             	add    esp,0x10
    21fd:	8b 83 00 00 00 00    	mov    eax,DWORD PTR [ebx+0x0]
    2203:	8b 00                	mov    eax,DWORD PTR [eax]
    2205:	50                   	push   eax
    2206:	6a 1c                	push   0x1c
    2208:	6a 01                	push   0x1
    220a:	8d 83 c2 00 00 00    	lea    eax,[ebx+0xc2]
    2210:	50                   	push   eax
    2211:	e8 fc ff ff ff       	call   2212 <main+0xc8>
    2216:	83 c4 10             	add    esp,0x10
    2219:	8b 45 d0             	mov    eax,DWORD PTR [ebp-0x30]
    221c:	e9 45 0f 00 00       	jmp    3166 <.L231+0x221>
    2221:	83 3e 01             	cmp    DWORD PTR [esi],0x1
    2224:	7e 71                	jle    2297 <main+0x14d>
    2226:	83 3e 06             	cmp    DWORD PTR [esi],0x6
    2229:	7f 6c                	jg     2297 <main+0x14d>
    222b:	c7 45 e4 01 00 00 00 	mov    DWORD PTR [ebp-0x1c],0x1
    2232:	eb 57                	jmp    228b <main+0x141>
    2234:	8b 45 e4             	mov    eax,DWORD PTR [ebp-0x1c]
    2237:	8d 14 85 00 00 00 00 	lea    edx,[eax*4+0x0]
    223e:	8b 46 04             	mov    eax,DWORD PTR [esi+0x4]
    2241:	01 d0                	add    eax,edx
    2243:	8b 00                	mov    eax,DWORD PTR [eax]
    2245:	83 ec 08             	sub    esp,0x8
    2248:	68 00 08 00 00       	push   0x800
    224d:	50                   	push   eax
    224e:	e8 fc ff ff ff       	call   224f <main+0x105>
    2253:	83 c4 10             	add    esp,0x10
    2256:	3d 00 08 00 00       	cmp    eax,0x800
    225b:	75 2a                	jne    2287 <main+0x13d>
    225d:	8b 83 00 00 00 00    	mov    eax,DWORD PTR [ebx+0x0]
    2263:	8b 00                	mov    eax,DWORD PTR [eax]
    2265:	68 00 08 00 00       	push   0x800
    226a:	ff 75 e4             	push   DWORD PTR [ebp-0x1c]
    226d:	8d 93 ac 06 00 00    	lea    edx,[ebx+0x6ac]
    2273:	52                   	push   edx
    2274:	50                   	push   eax
    2275:	e8 fc ff ff ff       	call   2276 <main+0x12c>
    227a:	83 c4 10             	add    esp,0x10
    227d:	b8 01 00 00 00       	mov    eax,0x1
    2282:	e9 df 0e 00 00       	jmp    3166 <.L231+0x221>
    2287:	83 45 e4 01          	add    DWORD PTR [ebp-0x1c],0x1
    228b:	8b 06                	mov    eax,DWORD PTR [esi]
    228d:	83 e8 01             	sub    eax,0x1
    2290:	39 45 e4             	cmp    DWORD PTR [ebp-0x1c],eax
    2293:	7c 9f                	jl     2234 <main+0xea>
    2295:	eb 31                	jmp    22c8 <main+0x17e>
    2297:	83 3e 01             	cmp    DWORD PTR [esi],0x1
    229a:	74 05                	je     22a1 <main+0x157>
    229c:	83 3e 06             	cmp    DWORD PTR [esi],0x6
    229f:	7e 27                	jle    22c8 <main+0x17e>
    22a1:	8b 83 00 00 00 00    	mov    eax,DWORD PTR [ebx+0x0]
    22a7:	8b 00                	mov    eax,DWORD PTR [eax]
    22a9:	83 ec 04             	sub    esp,0x4
    22ac:	ff 36                	push   DWORD PTR [esi]
    22ae:	8d 93 dc 06 00 00    	lea    edx,[ebx+0x6dc]
    22b4:	52                   	push   edx
    22b5:	50                   	push   eax
    22b6:	e8 fc ff ff ff       	call   22b7 <main+0x16d>
    22bb:	83 c4 10             	add    esp,0x10
    22be:	b8 00 00 00 00       	mov    eax,0x0
    22c3:	e9 9e 0e 00 00       	jmp    3166 <.L231+0x221>
    22c8:	83 3e 02             	cmp    DWORD PTR [esi],0x2
    22cb:	0f 85 e8 00 00 00    	jne    23b9 <main+0x26f>
    22d1:	8b 46 04             	mov    eax,DWORD PTR [esi+0x4]
    22d4:	83 c0 04             	add    eax,0x4
    22d7:	8b 00                	mov    eax,DWORD PTR [eax]
    22d9:	83 ec 08             	sub    esp,0x8
    22dc:	8d 93 19 07 00 00    	lea    edx,[ebx+0x719]
    22e2:	52                   	push   edx
    22e3:	50                   	push   eax
    22e4:	e8 fc ff ff ff       	call   22e5 <main+0x19b>
    22e9:	83 c4 10             	add    esp,0x10
    22ec:	85 c0                	test   eax,eax
    22ee:	74 1f                	je     230f <main+0x1c5>
    22f0:	8b 46 04             	mov    eax,DWORD PTR [esi+0x4]
    22f3:	83 c0 04             	add    eax,0x4
    22f6:	8b 00                	mov    eax,DWORD PTR [eax]
    22f8:	83 ec 08             	sub    esp,0x8
    22fb:	8d 93 1c 07 00 00    	lea    edx,[ebx+0x71c]
    2301:	52                   	push   edx
    2302:	50                   	push   eax
    2303:	e8 fc ff ff ff       	call   2304 <main+0x1ba>
    2308:	83 c4 10             	add    esp,0x10
    230b:	85 c0                	test   eax,eax
    230d:	75 7c                	jne    238b <main+0x241>
    230f:	8b 83 00 00 00 00    	mov    eax,DWORD PTR [ebx+0x0]
    2315:	83 ec 0c             	sub    esp,0xc
    2318:	50                   	push   eax
    2319:	e8 fc ff ff ff       	call   231a <main+0x1d0>
    231e:	83 c4 10             	add    esp,0x10
    2321:	83 ec 0c             	sub    esp,0xc
    2324:	8d 83 24 07 00 00    	lea    eax,[ebx+0x724]
    232a:	50                   	push   eax
    232b:	e8 fc ff ff ff       	call   232c <main+0x1e2>
    2330:	83 c4 10             	add    esp,0x10
    2333:	83 ec 0c             	sub    esp,0xc
    2336:	8d 83 54 07 00 00    	lea    eax,[ebx+0x754]
    233c:	50                   	push   eax
    233d:	e8 fc ff ff ff       	call   233e <main+0x1f4>
    2342:	83 c4 10             	add    esp,0x10
    2345:	83 ec 0c             	sub    esp,0xc
    2348:	8d 83 a4 07 00 00    	lea    eax,[ebx+0x7a4]
    234e:	50                   	push   eax
    234f:	e8 fc ff ff ff       	call   2350 <main+0x206>
    2354:	83 c4 10             	add    esp,0x10
    2357:	83 ec 0c             	sub    esp,0xc
    235a:	8d 83 cc 07 00 00    	lea    eax,[ebx+0x7cc]
    2360:	50                   	push   eax
    2361:	e8 fc ff ff ff       	call   2362 <main+0x218>
    2366:	83 c4 10             	add    esp,0x10
    2369:	8b 46 04             	mov    eax,DWORD PTR [esi+0x4]
    236c:	8b 00                	mov    eax,DWORD PTR [eax]
    236e:	83 ec 08             	sub    esp,0x8
    2371:	50                   	push   eax
    2372:	8d 83 0c 08 00 00    	lea    eax,[ebx+0x80c]
    2378:	50                   	push   eax
    2379:	e8 fc ff ff ff       	call   237a <main+0x230>
    237e:	83 c4 10             	add    esp,0x10
    2381:	b8 00 00 00 00       	mov    eax,0x0
    2386:	e9 db 0d 00 00       	jmp    3166 <.L231+0x221>
    238b:	8b 46 04             	mov    eax,DWORD PTR [esi+0x4]
    238e:	83 c0 04             	add    eax,0x4
    2391:	8b 10                	mov    edx,DWORD PTR [eax]
    2393:	8b 83 00 00 00 00    	mov    eax,DWORD PTR [ebx+0x0]
    2399:	8b 00                	mov    eax,DWORD PTR [eax]
    239b:	83 ec 04             	sub    esp,0x4
    239e:	52                   	push   edx
    239f:	8d 93 60 08 00 00    	lea    edx,[ebx+0x860]
    23a5:	52                   	push   edx
    23a6:	50                   	push   eax
    23a7:	e8 fc ff ff ff       	call   23a8 <main+0x25e>
    23ac:	83 c4 10             	add    esp,0x10
    23af:	b8 01 00 00 00       	mov    eax,0x1
    23b4:	e9 ad 0d 00 00       	jmp    3166 <.L231+0x221>
    23b9:	83 3e 03             	cmp    DWORD PTR [esi],0x3
    23bc:	7f 27                	jg     23e5 <main+0x29b>
    23be:	8b 83 00 00 00 00    	mov    eax,DWORD PTR [ebx+0x0]
    23c4:	8b 00                	mov    eax,DWORD PTR [eax]
    23c6:	83 ec 04             	sub    esp,0x4
    23c9:	ff 36                	push   DWORD PTR [esi]
    23cb:	8d 93 dc 06 00 00    	lea    edx,[ebx+0x6dc]
    23d1:	52                   	push   edx
    23d2:	50                   	push   eax
    23d3:	e8 fc ff ff ff       	call   23d4 <main+0x28a>
    23d8:	83 c4 10             	add    esp,0x10
    23db:	b8 00 00 00 00       	mov    eax,0x0
    23e0:	e9 81 0d 00 00       	jmp    3166 <.L231+0x221>
    23e5:	8b 06                	mov    eax,DWORD PTR [esi]
    23e7:	05 ff ff ff 3f       	add    eax,0x3fffffff
    23ec:	8d 14 85 00 00 00 00 	lea    edx,[eax*4+0x0]
    23f3:	8b 46 04             	mov    eax,DWORD PTR [esi+0x4]
    23f6:	01 c2                	add    edx,eax
    23f8:	8b 45 c8             	mov    eax,DWORD PTR [ebp-0x38]
    23fb:	8b 12                	mov    edx,DWORD PTR [edx]
    23fd:	89 50 04             	mov    DWORD PTR [eax+0x4],edx
    2400:	8b 06                	mov    eax,DWORD PTR [esi]
    2402:	05 fe ff ff 3f       	add    eax,0x3ffffffe
    2407:	8d 14 85 00 00 00 00 	lea    edx,[eax*4+0x0]
    240e:	8b 46 04             	mov    eax,DWORD PTR [esi+0x4]
    2411:	01 c2                	add    edx,eax
    2413:	8b 45 c8             	mov    eax,DWORD PTR [ebp-0x38]
    2416:	8b 12                	mov    edx,DWORD PTR [edx]
    2418:	89 10                	mov    DWORD PTR [eax],edx
    241a:	83 ec 04             	sub    esp,0x4
    241d:	8d 83 96 08 00 00    	lea    eax,[ebx+0x896]
    2423:	50                   	push   eax
    2424:	8d 83 9f 08 00 00    	lea    eax,[ebx+0x89f]
    242a:	50                   	push   eax
    242b:	8d 83 ac 08 00 00    	lea    eax,[ebx+0x8ac]
    2431:	50                   	push   eax
    2432:	e8 fc ff ff ff       	call   2433 <main+0x2e9>
    2437:	83 c4 10             	add    esp,0x10
    243a:	83 ec 08             	sub    esp,0x8
    243d:	ff 75 d4             	push   DWORD PTR [ebp-0x2c]
    2440:	8d 83 d8 08 00 00    	lea    eax,[ebx+0x8d8]
    2446:	50                   	push   eax
    2447:	e8 fc ff ff ff       	call   2448 <main+0x2fe>
    244c:	83 c4 10             	add    esp,0x10
    244f:	8b 45 c8             	mov    eax,DWORD PTR [ebp-0x38]
    2452:	83 ec 08             	sub    esp,0x8
    2455:	50                   	push   eax
    2456:	8d 83 04 09 00 00    	lea    eax,[ebx+0x904]
    245c:	50                   	push   eax
    245d:	e8 fc ff ff ff       	call   245e <main+0x314>
    2462:	83 c4 10             	add    esp,0x10
    2465:	8b 45 c8             	mov    eax,DWORD PTR [ebp-0x38]
    2468:	8b 40 14             	mov    eax,DWORD PTR [eax+0x14]
    246b:	83 ec 08             	sub    esp,0x8
    246e:	50                   	push   eax
    246f:	8d 83 2c 09 00 00    	lea    eax,[ebx+0x92c]
    2475:	50                   	push   eax
    2476:	e8 fc ff ff ff       	call   2477 <main+0x32d>
    247b:	83 c4 10             	add    esp,0x10
    247e:	8b 45 c8             	mov    eax,DWORD PTR [ebp-0x38]
    2481:	8b 40 10             	mov    eax,DWORD PTR [eax+0x10]
    2484:	83 ec 08             	sub    esp,0x8
    2487:	50                   	push   eax
    2488:	8d 83 64 09 00 00    	lea    eax,[ebx+0x964]
    248e:	50                   	push   eax
    248f:	e8 fc ff ff ff       	call   2490 <main+0x346>
    2494:	83 c4 10             	add    esp,0x10
    2497:	8b 45 c8             	mov    eax,DWORD PTR [ebp-0x38]
    249a:	8b 40 0c             	mov    eax,DWORD PTR [eax+0xc]
    249d:	83 ec 08             	sub    esp,0x8
    24a0:	50                   	push   eax
    24a1:	8d 83 94 09 00 00    	lea    eax,[ebx+0x994]
    24a7:	50                   	push   eax
    24a8:	e8 fc ff ff ff       	call   24a9 <main+0x35f>
    24ad:	83 c4 10             	add    esp,0x10
    24b0:	8b 45 c8             	mov    eax,DWORD PTR [ebp-0x38]
    24b3:	8b 40 08             	mov    eax,DWORD PTR [eax+0x8]
    24b6:	83 ec 08             	sub    esp,0x8
    24b9:	50                   	push   eax
    24ba:	8d 83 d0 09 00 00    	lea    eax,[ebx+0x9d0]
    24c0:	50                   	push   eax
    24c1:	e8 fc ff ff ff       	call   24c2 <main+0x378>
    24c6:	83 c4 10             	add    esp,0x10
    24c9:	8b 46 04             	mov    eax,DWORD PTR [esi+0x4]
    24cc:	83 c0 04             	add    eax,0x4
    24cf:	8b 00                	mov    eax,DWORD PTR [eax]
    24d1:	83 ec 08             	sub    esp,0x8
    24d4:	8d 93 0c 0a 00 00    	lea    edx,[ebx+0xa0c]
    24da:	52                   	push   edx
    24db:	50                   	push   eax
    24dc:	e8 fc ff ff ff       	call   24dd <main+0x393>
    24e1:	83 c4 10             	add    esp,0x10
    24e4:	85 c0                	test   eax,eax
    24e6:	74 1f                	je     2507 <main+0x3bd>
    24e8:	8b 46 04             	mov    eax,DWORD PTR [esi+0x4]
    24eb:	83 c0 04             	add    eax,0x4
    24ee:	8b 00                	mov    eax,DWORD PTR [eax]
    24f0:	83 ec 08             	sub    esp,0x8
    24f3:	8d 93 0f 0a 00 00    	lea    edx,[ebx+0xa0f]
    24f9:	52                   	push   edx
    24fa:	50                   	push   eax
    24fb:	e8 fc ff ff ff       	call   24fc <main+0x3b2>
    2500:	83 c4 10             	add    esp,0x10
    2503:	85 c0                	test   eax,eax
    2505:	75 12                	jne    2519 <main+0x3cf>
    2507:	8b 45 c8             	mov    eax,DWORD PTR [ebp-0x38]
    250a:	c7 80 48 00 00 01 03 	mov    DWORD PTR [eax+0x1000048],0x3
    2511:	00 00 00 
    2514:	e9 7d 01 00 00       	jmp    2696 <main+0x54c>
    2519:	8b 46 04             	mov    eax,DWORD PTR [esi+0x4]
    251c:	83 c0 04             	add    eax,0x4
    251f:	8b 00                	mov    eax,DWORD PTR [eax]
    2521:	83 ec 08             	sub    esp,0x8
    2524:	8d 93 1a 0a 00 00    	lea    edx,[ebx+0xa1a]
    252a:	52                   	push   edx
    252b:	50                   	push   eax
    252c:	e8 fc ff ff ff       	call   252d <main+0x3e3>
    2531:	83 c4 10             	add    esp,0x10
    2534:	85 c0                	test   eax,eax
    2536:	74 1f                	je     2557 <main+0x40d>
    2538:	8b 46 04             	mov    eax,DWORD PTR [esi+0x4]
    253b:	83 c0 04             	add    eax,0x4
    253e:	8b 00                	mov    eax,DWORD PTR [eax]
    2540:	83 ec 08             	sub    esp,0x8
    2543:	8d 93 1d 0a 00 00    	lea    edx,[ebx+0xa1d]
    2549:	52                   	push   edx
    254a:	50                   	push   eax
    254b:	e8 fc ff ff ff       	call   254c <main+0x402>
    2550:	83 c4 10             	add    esp,0x10
    2553:	85 c0                	test   eax,eax
    2555:	75 12                	jne    2569 <main+0x41f>
    2557:	8b 45 c8             	mov    eax,DWORD PTR [ebp-0x38]
    255a:	c7 80 48 00 00 01 04 	mov    DWORD PTR [eax+0x1000048],0x4
    2561:	00 00 00 
    2564:	e9 2d 01 00 00       	jmp    2696 <main+0x54c>
    2569:	8b 46 04             	mov    eax,DWORD PTR [esi+0x4]
    256c:	83 c0 04             	add    eax,0x4
    256f:	8b 00                	mov    eax,DWORD PTR [eax]
    2571:	83 ec 08             	sub    esp,0x8
    2574:	8d 93 29 0a 00 00    	lea    edx,[ebx+0xa29]
    257a:	52                   	push   edx
    257b:	50                   	push   eax
    257c:	e8 fc ff ff ff       	call   257d <main+0x433>
    2581:	83 c4 10             	add    esp,0x10
    2584:	85 c0                	test   eax,eax
    2586:	74 1f                	je     25a7 <main+0x45d>
    2588:	8b 46 04             	mov    eax,DWORD PTR [esi+0x4]
    258b:	83 c0 04             	add    eax,0x4
    258e:	8b 00                	mov    eax,DWORD PTR [eax]
    2590:	83 ec 08             	sub    esp,0x8
    2593:	8d 93 2c 0a 00 00    	lea    edx,[ebx+0xa2c]
    2599:	52                   	push   edx
    259a:	50                   	push   eax
    259b:	e8 fc ff ff ff       	call   259c <main+0x452>
    25a0:	83 c4 10             	add    esp,0x10
    25a3:	85 c0                	test   eax,eax
    25a5:	75 12                	jne    25b9 <main+0x46f>
    25a7:	8b 45 c8             	mov    eax,DWORD PTR [ebp-0x38]
    25aa:	c7 80 48 00 00 01 00 	mov    DWORD PTR [eax+0x1000048],0x0
    25b1:	00 00 00 
    25b4:	e9 dd 00 00 00       	jmp    2696 <main+0x54c>
    25b9:	8b 46 04             	mov    eax,DWORD PTR [esi+0x4]
    25bc:	83 c0 04             	add    eax,0x4
    25bf:	8b 00                	mov    eax,DWORD PTR [eax]
    25c1:	83 ec 08             	sub    esp,0x8
    25c4:	8d 93 32 0a 00 00    	lea    edx,[ebx+0xa32]
    25ca:	52                   	push   edx
    25cb:	50                   	push   eax
    25cc:	e8 fc ff ff ff       	call   25cd <main+0x483>
    25d1:	83 c4 10             	add    esp,0x10
    25d4:	85 c0                	test   eax,eax
    25d6:	74 1f                	je     25f7 <main+0x4ad>
    25d8:	8b 46 04             	mov    eax,DWORD PTR [esi+0x4]
    25db:	83 c0 04             	add    eax,0x4
    25de:	8b 00                	mov    eax,DWORD PTR [eax]
    25e0:	83 ec 08             	sub    esp,0x8
    25e3:	8d 93 35 0a 00 00    	lea    edx,[ebx+0xa35]
    25e9:	52                   	push   edx
    25ea:	50                   	push   eax
    25eb:	e8 fc ff ff ff       	call   25ec <main+0x4a2>
    25f0:	83 c4 10             	add    esp,0x10
    25f3:	85 c0                	test   eax,eax
    25f5:	75 12                	jne    2609 <main+0x4bf>
    25f7:	8b 45 c8             	mov    eax,DWORD PTR [ebp-0x38]
    25fa:	c7 80 48 00 00 01 01 	mov    DWORD PTR [eax+0x1000048],0x1
    2601:	00 00 00 
    2604:	e9 8d 00 00 00       	jmp    2696 <main+0x54c>
    2609:	8b 46 04             	mov    eax,DWORD PTR [esi+0x4]
    260c:	83 c0 04             	add    eax,0x4
    260f:	8b 00                	mov    eax,DWORD PTR [eax]
    2611:	83 ec 08             	sub    esp,0x8
    2614:	8d 93 3f 0a 00 00    	lea    edx,[ebx+0xa3f]
    261a:	52                   	push   edx
    261b:	50                   	push   eax
    261c:	e8 fc ff ff ff       	call   261d <main+0x4d3>
    2621:	83 c4 10             	add    esp,0x10
    2624:	85 c0                	test   eax,eax
    2626:	74 1f                	je     2647 <main+0x4fd>
    2628:	8b 46 04             	mov    eax,DWORD PTR [esi+0x4]
    262b:	83 c0 04             	add    eax,0x4
    262e:	8b 00                	mov    eax,DWORD PTR [eax]
    2630:	83 ec 08             	sub    esp,0x8
    2633:	8d 93 42 0a 00 00    	lea    edx,[ebx+0xa42]
    2639:	52                   	push   edx
    263a:	50                   	push   eax
    263b:	e8 fc ff ff ff       	call   263c <main+0x4f2>
    2640:	83 c4 10             	add    esp,0x10
    2643:	85 c0                	test   eax,eax
    2645:	75 0f                	jne    2656 <main+0x50c>
    2647:	8b 45 c8             	mov    eax,DWORD PTR [ebp-0x38]
    264a:	c7 80 48 00 00 01 02 	mov    DWORD PTR [eax+0x1000048],0x2
    2651:	00 00 00 
    2654:	eb 40                	jmp    2696 <main+0x54c>
    2656:	8b 45 c8             	mov    eax,DWORD PTR [ebp-0x38]
    2659:	83 ec 08             	sub    esp,0x8
    265c:	ff 75 d4             	push   DWORD PTR [ebp-0x2c]
    265f:	50                   	push   eax
    2660:	e8 9b d9 ff ff       	call   0 <free_global_memory>
    2665:	83 c4 10             	add    esp,0x10
    2668:	8b 46 04             	mov    eax,DWORD PTR [esi+0x4]
    266b:	83 c0 04             	add    eax,0x4
    266e:	8b 10                	mov    edx,DWORD PTR [eax]
    2670:	8b 83 00 00 00 00    	mov    eax,DWORD PTR [ebx+0x0]
    2676:	8b 00                	mov    eax,DWORD PTR [eax]
    2678:	83 ec 04             	sub    esp,0x4
    267b:	52                   	push   edx
    267c:	8d 93 4c 0a 00 00    	lea    edx,[ebx+0xa4c]
    2682:	52                   	push   edx
    2683:	50                   	push   eax
    2684:	e8 fc ff ff ff       	call   2685 <main+0x53b>
    2689:	83 c4 10             	add    esp,0x10
    268c:	b8 01 00 00 00       	mov    eax,0x1
    2691:	e9 d0 0a 00 00       	jmp    3166 <.L231+0x221>
    2696:	8b 46 04             	mov    eax,DWORD PTR [esi+0x4]
    2699:	83 c0 08             	add    eax,0x8
    269c:	8b 00                	mov    eax,DWORD PTR [eax]
    269e:	83 ec 08             	sub    esp,0x8
    26a1:	8d 93 6d 0a 00 00    	lea    edx,[ebx+0xa6d]
    26a7:	52                   	push   edx
    26a8:	50                   	push   eax
    26a9:	e8 fc ff ff ff       	call   26aa <main+0x560>
    26ae:	83 c4 10             	add    esp,0x10
    26b1:	85 c0                	test   eax,eax
    26b3:	74 1f                	je     26d4 <main+0x58a>
    26b5:	8b 46 04             	mov    eax,DWORD PTR [esi+0x4]
    26b8:	83 c0 08             	add    eax,0x8
    26bb:	8b 00                	mov    eax,DWORD PTR [eax]
    26bd:	83 ec 08             	sub    esp,0x8
    26c0:	8d 93 70 0a 00 00    	lea    edx,[ebx+0xa70]
    26c6:	52                   	push   edx
    26c7:	50                   	push   eax
    26c8:	e8 fc ff ff ff       	call   26c9 <main+0x57f>
    26cd:	83 c4 10             	add    esp,0x10
    26d0:	85 c0                	test   eax,eax
    26d2:	75 12                	jne    26e6 <main+0x59c>
    26d4:	8b 45 c8             	mov    eax,DWORD PTR [ebp-0x38]
    26d7:	c7 80 44 00 00 01 00 	mov    DWORD PTR [eax+0x1000044],0x0
    26de:	00 00 00 
    26e1:	e9 8d 00 00 00       	jmp    2773 <main+0x629>
    26e6:	8b 46 04             	mov    eax,DWORD PTR [esi+0x4]
    26e9:	83 c0 08             	add    eax,0x8
    26ec:	8b 00                	mov    eax,DWORD PTR [eax]
    26ee:	83 ec 08             	sub    esp,0x8
    26f1:	8d 93 7a 0a 00 00    	lea    edx,[ebx+0xa7a]
    26f7:	52                   	push   edx
    26f8:	50                   	push   eax
    26f9:	e8 fc ff ff ff       	call   26fa <main+0x5b0>
    26fe:	83 c4 10             	add    esp,0x10
    2701:	85 c0                	test   eax,eax
    2703:	74 1f                	je     2724 <main+0x5da>
    2705:	8b 46 04             	mov    eax,DWORD PTR [esi+0x4]
    2708:	83 c0 08             	add    eax,0x8
    270b:	8b 00                	mov    eax,DWORD PTR [eax]
    270d:	83 ec 08             	sub    esp,0x8
    2710:	8d 93 7d 0a 00 00    	lea    edx,[ebx+0xa7d]
    2716:	52                   	push   edx
    2717:	50                   	push   eax
    2718:	e8 fc ff ff ff       	call   2719 <main+0x5cf>
    271d:	83 c4 10             	add    esp,0x10
    2720:	85 c0                	test   eax,eax
    2722:	75 0f                	jne    2733 <main+0x5e9>
    2724:	8b 45 c8             	mov    eax,DWORD PTR [ebp-0x38]
    2727:	c7 80 44 00 00 01 de 	mov    DWORD PTR [eax+0x1000044],0xde
    272e:	00 00 00 
    2731:	eb 40                	jmp    2773 <main+0x629>
    2733:	8b 45 c8             	mov    eax,DWORD PTR [ebp-0x38]
    2736:	83 ec 08             	sub    esp,0x8
    2739:	ff 75 d4             	push   DWORD PTR [ebp-0x2c]
    273c:	50                   	push   eax
    273d:	e8 be d8 ff ff       	call   0 <free_global_memory>
    2742:	83 c4 10             	add    esp,0x10
    2745:	8b 46 04             	mov    eax,DWORD PTR [esi+0x4]
    2748:	83 c0 08             	add    eax,0x8
    274b:	8b 10                	mov    edx,DWORD PTR [eax]
    274d:	8b 83 00 00 00 00    	mov    eax,DWORD PTR [ebx+0x0]
    2753:	8b 00                	mov    eax,DWORD PTR [eax]
    2755:	83 ec 04             	sub    esp,0x4
    2758:	52                   	push   edx
    2759:	8d 93 88 0a 00 00    	lea    edx,[ebx+0xa88]
    275f:	52                   	push   edx
    2760:	50                   	push   eax
    2761:	e8 fc ff ff ff       	call   2762 <main+0x618>
    2766:	83 c4 10             	add    esp,0x10
    2769:	b8 01 00 00 00       	mov    eax,0x1
    276e:	e9 f3 09 00 00       	jmp    3166 <.L231+0x221>
    2773:	8b 45 c8             	mov    eax,DWORD PTR [ebp-0x38]
    2776:	8b 80 48 00 00 01    	mov    eax,DWORD PTR [eax+0x1000048]
    277c:	85 c0                	test   eax,eax
    277e:	74 20                	je     27a0 <main+0x656>
    2780:	8b 45 c8             	mov    eax,DWORD PTR [ebp-0x38]
    2783:	8b 80 48 00 00 01    	mov    eax,DWORD PTR [eax+0x1000048]
    2789:	83 f8 01             	cmp    eax,0x1
    278c:	74 12                	je     27a0 <main+0x656>
    278e:	8b 45 c8             	mov    eax,DWORD PTR [ebp-0x38]
    2791:	8b 80 48 00 00 01    	mov    eax,DWORD PTR [eax+0x1000048]
    2797:	83 f8 02             	cmp    eax,0x2
    279a:	0f 85 74 01 00 00    	jne    2914 <main+0x7ca>
    27a0:	8b 46 04             	mov    eax,DWORD PTR [esi+0x4]
    27a3:	83 c0 0c             	add    eax,0xc
    27a6:	8b 00                	mov    eax,DWORD PTR [eax]
    27a8:	83 ec 08             	sub    esp,0x8
    27ab:	8d 93 a7 0a 00 00    	lea    edx,[ebx+0xaa7]
    27b1:	52                   	push   edx
    27b2:	50                   	push   eax
    27b3:	e8 fc ff ff ff       	call   27b4 <main+0x66a>
    27b8:	83 c4 10             	add    esp,0x10
    27bb:	85 c0                	test   eax,eax
    27bd:	74 1f                	je     27de <main+0x694>
    27bf:	8b 46 04             	mov    eax,DWORD PTR [esi+0x4]
    27c2:	83 c0 0c             	add    eax,0xc
    27c5:	8b 00                	mov    eax,DWORD PTR [eax]
    27c7:	83 ec 08             	sub    esp,0x8
    27ca:	8d 93 aa 0a 00 00    	lea    edx,[ebx+0xaaa]
    27d0:	52                   	push   edx
    27d1:	50                   	push   eax
    27d2:	e8 fc ff ff ff       	call   27d3 <main+0x689>
    27d7:	83 c4 10             	add    esp,0x10
    27da:	85 c0                	test   eax,eax
    27dc:	75 28                	jne    2806 <main+0x6bc>
    27de:	8b 45 c8             	mov    eax,DWORD PTR [ebp-0x38]
    27e1:	8b 80 48 00 00 01    	mov    eax,DWORD PTR [eax+0x1000048]
    27e7:	85 c0                	test   eax,eax
    27e9:	75 0c                	jne    27f7 <main+0x6ad>
    27eb:	8b 83 00 00 00 00    	mov    eax,DWORD PTR [ebx+0x0]
    27f1:	c7 00 0a 00 00 00    	mov    DWORD PTR [eax],0xa
    27f7:	8b 45 c8             	mov    eax,DWORD PTR [ebp-0x38]
    27fa:	c7 40 24 80 00 00 00 	mov    DWORD PTR [eax+0x24],0x80
    2801:	e9 09 01 00 00       	jmp    290f <main+0x7c5>
    2806:	8b 46 04             	mov    eax,DWORD PTR [esi+0x4]
    2809:	83 c0 0c             	add    eax,0xc
    280c:	8b 00                	mov    eax,DWORD PTR [eax]
    280e:	83 ec 08             	sub    esp,0x8
    2811:	8d 93 0c 0a 00 00    	lea    edx,[ebx+0xa0c]
    2817:	52                   	push   edx
    2818:	50                   	push   eax
    2819:	e8 fc ff ff ff       	call   281a <main+0x6d0>
    281e:	83 c4 10             	add    esp,0x10
    2821:	85 c0                	test   eax,eax
    2823:	74 1f                	je     2844 <main+0x6fa>
    2825:	8b 46 04             	mov    eax,DWORD PTR [esi+0x4]
    2828:	83 c0 0c             	add    eax,0xc
    282b:	8b 00                	mov    eax,DWORD PTR [eax]
    282d:	83 ec 08             	sub    esp,0x8
    2830:	8d 93 b0 0a 00 00    	lea    edx,[ebx+0xab0]
    2836:	52                   	push   edx
    2837:	50                   	push   eax
    2838:	e8 fc ff ff ff       	call   2839 <main+0x6ef>
    283d:	83 c4 10             	add    esp,0x10
    2840:	85 c0                	test   eax,eax
    2842:	75 28                	jne    286c <main+0x722>
    2844:	8b 45 c8             	mov    eax,DWORD PTR [ebp-0x38]
    2847:	8b 80 48 00 00 01    	mov    eax,DWORD PTR [eax+0x1000048]
    284d:	85 c0                	test   eax,eax
    284f:	75 0c                	jne    285d <main+0x713>
    2851:	8b 83 00 00 00 00    	mov    eax,DWORD PTR [ebx+0x0]
    2857:	c7 00 0c 00 00 00    	mov    DWORD PTR [eax],0xc
    285d:	8b 45 c8             	mov    eax,DWORD PTR [ebp-0x38]
    2860:	c7 40 24 c0 00 00 00 	mov    DWORD PTR [eax+0x24],0xc0
    2867:	e9 a3 00 00 00       	jmp    290f <main+0x7c5>
    286c:	8b 46 04             	mov    eax,DWORD PTR [esi+0x4]
    286f:	83 c0 0c             	add    eax,0xc
    2872:	8b 00                	mov    eax,DWORD PTR [eax]
    2874:	83 ec 08             	sub    esp,0x8
    2877:	8d 93 b6 0a 00 00    	lea    edx,[ebx+0xab6]
    287d:	52                   	push   edx
    287e:	50                   	push   eax
    287f:	e8 fc ff ff ff       	call   2880 <main+0x736>
    2884:	83 c4 10             	add    esp,0x10
    2887:	85 c0                	test   eax,eax
    2889:	74 1f                	je     28aa <main+0x760>
    288b:	8b 46 04             	mov    eax,DWORD PTR [esi+0x4]
    288e:	83 c0 0c             	add    eax,0xc
    2891:	8b 00                	mov    eax,DWORD PTR [eax]
    2893:	83 ec 08             	sub    esp,0x8
    2896:	8d 93 b9 0a 00 00    	lea    edx,[ebx+0xab9]
    289c:	52                   	push   edx
    289d:	50                   	push   eax
    289e:	e8 fc ff ff ff       	call   289f <main+0x755>
    28a3:	83 c4 10             	add    esp,0x10
    28a6:	85 c0                	test   eax,eax
    28a8:	75 25                	jne    28cf <main+0x785>
    28aa:	8b 45 c8             	mov    eax,DWORD PTR [ebp-0x38]
    28ad:	8b 80 48 00 00 01    	mov    eax,DWORD PTR [eax+0x1000048]
    28b3:	85 c0                	test   eax,eax
    28b5:	75 0c                	jne    28c3 <main+0x779>
    28b7:	8b 83 00 00 00 00    	mov    eax,DWORD PTR [ebx+0x0]
    28bd:	c7 00 0e 00 00 00    	mov    DWORD PTR [eax],0xe
    28c3:	8b 45 c8             	mov    eax,DWORD PTR [ebp-0x38]
    28c6:	c7 40 24 00 01 00 00 	mov    DWORD PTR [eax+0x24],0x100
    28cd:	eb 40                	jmp    290f <main+0x7c5>
    28cf:	8b 45 c8             	mov    eax,DWORD PTR [ebp-0x38]
    28d2:	83 ec 08             	sub    esp,0x8
    28d5:	ff 75 d4             	push   DWORD PTR [ebp-0x2c]
    28d8:	50                   	push   eax
    28d9:	e8 22 d7 ff ff       	call   0 <free_global_memory>
    28de:	83 c4 10             	add    esp,0x10
    28e1:	8b 46 04             	mov    eax,DWORD PTR [esi+0x4]
    28e4:	83 c0 0c             	add    eax,0xc
    28e7:	8b 10                	mov    edx,DWORD PTR [eax]
    28e9:	8b 83 00 00 00 00    	mov    eax,DWORD PTR [ebx+0x0]
    28ef:	8b 00                	mov    eax,DWORD PTR [eax]
    28f1:	83 ec 04             	sub    esp,0x4
    28f4:	52                   	push   edx
    28f5:	8d 93 c0 0a 00 00    	lea    edx,[ebx+0xac0]
    28fb:	52                   	push   edx
    28fc:	50                   	push   eax
    28fd:	e8 fc ff ff ff       	call   28fe <main+0x7b4>
    2902:	83 c4 10             	add    esp,0x10
    2905:	b8 01 00 00 00       	mov    eax,0x1
    290a:	e9 57 08 00 00       	jmp    3166 <.L231+0x221>
    290f:	e9 53 01 00 00       	jmp    2a67 <main+0x91d>
    2914:	8b 45 c8             	mov    eax,DWORD PTR [ebp-0x38]
    2917:	8b 80 48 00 00 01    	mov    eax,DWORD PTR [eax+0x1000048]
    291d:	83 f8 03             	cmp    eax,0x3
    2920:	75 0f                	jne    2931 <main+0x7e7>
    2922:	8b 45 c8             	mov    eax,DWORD PTR [ebp-0x38]
    2925:	c7 40 24 c0 01 00 00 	mov    DWORD PTR [eax+0x24],0x1c0
    292c:	e9 36 01 00 00       	jmp    2a67 <main+0x91d>
    2931:	8b 45 c8             	mov    eax,DWORD PTR [ebp-0x38]
    2934:	8b 80 48 00 00 01    	mov    eax,DWORD PTR [eax+0x1000048]
    293a:	83 f8 04             	cmp    eax,0x4
    293d:	0f 85 24 01 00 00    	jne    2a67 <main+0x91d>
    2943:	8b 46 04             	mov    eax,DWORD PTR [esi+0x4]
    2946:	83 c0 0c             	add    eax,0xc
    2949:	8b 00                	mov    eax,DWORD PTR [eax]
    294b:	83 ec 08             	sub    esp,0x8
    294e:	8d 93 a7 0a 00 00    	lea    edx,[ebx+0xaa7]
    2954:	52                   	push   edx
    2955:	50                   	push   eax
    2956:	e8 fc ff ff ff       	call   2957 <main+0x80d>
    295b:	83 c4 10             	add    esp,0x10
    295e:	85 c0                	test   eax,eax
    2960:	74 1f                	je     2981 <main+0x837>
    2962:	8b 46 04             	mov    eax,DWORD PTR [esi+0x4]
    2965:	83 c0 0c             	add    eax,0xc
    2968:	8b 00                	mov    eax,DWORD PTR [eax]
    296a:	83 ec 08             	sub    esp,0x8
    296d:	8d 93 b9 0a 00 00    	lea    edx,[ebx+0xab9]
    2973:	52                   	push   edx
    2974:	50                   	push   eax
    2975:	e8 fc ff ff ff       	call   2976 <main+0x82c>
    297a:	83 c4 10             	add    esp,0x10
    297d:	85 c0                	test   eax,eax
    297f:	75 0f                	jne    2990 <main+0x846>
    2981:	8b 45 c8             	mov    eax,DWORD PTR [ebp-0x38]
    2984:	c7 40 24 00 01 00 00 	mov    DWORD PTR [eax+0x24],0x100
    298b:	e9 d7 00 00 00       	jmp    2a67 <main+0x91d>
    2990:	8b 46 04             	mov    eax,DWORD PTR [esi+0x4]
    2993:	83 c0 0c             	add    eax,0xc
    2996:	8b 00                	mov    eax,DWORD PTR [eax]
    2998:	83 ec 08             	sub    esp,0x8
    299b:	8d 93 0c 0a 00 00    	lea    edx,[ebx+0xa0c]
    29a1:	52                   	push   edx
    29a2:	50                   	push   eax
    29a3:	e8 fc ff ff ff       	call   29a4 <main+0x85a>
    29a8:	83 c4 10             	add    esp,0x10
    29ab:	85 c0                	test   eax,eax
    29ad:	74 1f                	je     29ce <main+0x884>
    29af:	8b 46 04             	mov    eax,DWORD PTR [esi+0x4]
    29b2:	83 c0 0c             	add    eax,0xc
    29b5:	8b 00                	mov    eax,DWORD PTR [eax]
    29b7:	83 ec 08             	sub    esp,0x8
    29ba:	8d 93 e0 0a 00 00    	lea    edx,[ebx+0xae0]
    29c0:	52                   	push   edx
    29c1:	50                   	push   eax
    29c2:	e8 fc ff ff ff       	call   29c3 <main+0x879>
    29c7:	83 c4 10             	add    esp,0x10
    29ca:	85 c0                	test   eax,eax
    29cc:	75 0f                	jne    29dd <main+0x893>
    29ce:	8b 45 c8             	mov    eax,DWORD PTR [ebp-0x38]
    29d1:	c7 40 24 00 02 00 00 	mov    DWORD PTR [eax+0x24],0x200
    29d8:	e9 8a 00 00 00       	jmp    2a67 <main+0x91d>
    29dd:	8b 46 04             	mov    eax,DWORD PTR [esi+0x4]
    29e0:	83 c0 0c             	add    eax,0xc
    29e3:	8b 00                	mov    eax,DWORD PTR [eax]
    29e5:	83 ec 08             	sub    esp,0x8
    29e8:	8d 93 b6 0a 00 00    	lea    edx,[ebx+0xab6]
    29ee:	52                   	push   edx
    29ef:	50                   	push   eax
    29f0:	e8 fc ff ff ff       	call   29f1 <main+0x8a7>
    29f5:	83 c4 10             	add    esp,0x10
    29f8:	85 c0                	test   eax,eax
    29fa:	74 1f                	je     2a1b <main+0x8d1>
    29fc:	8b 46 04             	mov    eax,DWORD PTR [esi+0x4]
    29ff:	83 c0 0c             	add    eax,0xc
    2a02:	8b 00                	mov    eax,DWORD PTR [eax]
    2a04:	83 ec 08             	sub    esp,0x8
    2a07:	8d 93 e6 0a 00 00    	lea    edx,[ebx+0xae6]
    2a0d:	52                   	push   edx
    2a0e:	50                   	push   eax
    2a0f:	e8 fc ff ff ff       	call   2a10 <main+0x8c6>
    2a14:	83 c4 10             	add    esp,0x10
    2a17:	85 c0                	test   eax,eax
    2a19:	75 0c                	jne    2a27 <main+0x8dd>
    2a1b:	8b 45 c8             	mov    eax,DWORD PTR [ebp-0x38]
    2a1e:	c7 40 24 00 04 00 00 	mov    DWORD PTR [eax+0x24],0x400
    2a25:	eb 40                	jmp    2a67 <main+0x91d>
    2a27:	8b 45 c8             	mov    eax,DWORD PTR [ebp-0x38]
    2a2a:	83 ec 08             	sub    esp,0x8
    2a2d:	ff 75 d4             	push   DWORD PTR [ebp-0x2c]
    2a30:	50                   	push   eax
    2a31:	e8 ca d5 ff ff       	call   0 <free_global_memory>
    2a36:	83 c4 10             	add    esp,0x10
    2a39:	8b 46 04             	mov    eax,DWORD PTR [esi+0x4]
    2a3c:	83 c0 0c             	add    eax,0xc
    2a3f:	8b 10                	mov    edx,DWORD PTR [eax]
    2a41:	8b 83 00 00 00 00    	mov    eax,DWORD PTR [ebx+0x0]
    2a47:	8b 00                	mov    eax,DWORD PTR [eax]
    2a49:	83 ec 04             	sub    esp,0x4
    2a4c:	52                   	push   edx
    2a4d:	8d 93 c0 0a 00 00    	lea    edx,[ebx+0xac0]
    2a53:	52                   	push   edx
    2a54:	50                   	push   eax
    2a55:	e8 fc ff ff ff       	call   2a56 <main+0x90c>
    2a5a:	83 c4 10             	add    esp,0x10
    2a5d:	b8 01 00 00 00       	mov    eax,0x1
    2a62:	e9 ff 06 00 00       	jmp    3166 <.L231+0x221>
    2a67:	8b 45 c8             	mov    eax,DWORD PTR [ebp-0x38]
    2a6a:	83 ec 0c             	sub    esp,0xc
    2a6d:	50                   	push   eax
    2a6e:	e8 fc ff ff ff       	call   2a6f <main+0x925>
    2a73:	83 c4 10             	add    esp,0x10
    2a76:	85 c0                	test   eax,eax
    2a78:	74 1c                	je     2a96 <main+0x94c>
    2a7a:	8b 45 c8             	mov    eax,DWORD PTR [ebp-0x38]
    2a7d:	83 ec 08             	sub    esp,0x8
    2a80:	ff 75 d4             	push   DWORD PTR [ebp-0x2c]
    2a83:	50                   	push   eax
    2a84:	e8 77 d5 ff ff       	call   0 <free_global_memory>
    2a89:	83 c4 10             	add    esp,0x10
    2a8c:	b8 01 00 00 00       	mov    eax,0x1
    2a91:	e9 d0 06 00 00       	jmp    3166 <.L231+0x221>
    2a96:	8b 45 c8             	mov    eax,DWORD PTR [ebp-0x38]
    2a99:	8b 50 04             	mov    edx,DWORD PTR [eax+0x4]
    2a9c:	8b 45 c8             	mov    eax,DWORD PTR [ebp-0x38]
    2a9f:	8b 00                	mov    eax,DWORD PTR [eax]
    2aa1:	83 ec 08             	sub    esp,0x8
    2aa4:	52                   	push   edx
    2aa5:	50                   	push   eax
    2aa6:	e8 fc ff ff ff       	call   2aa7 <main+0x95d>
    2aab:	83 c4 10             	add    esp,0x10
    2aae:	85 c0                	test   eax,eax
    2ab0:	75 38                	jne    2aea <main+0x9a0>
    2ab2:	8b 45 c8             	mov    eax,DWORD PTR [ebp-0x38]
    2ab5:	83 ec 08             	sub    esp,0x8
    2ab8:	ff 75 d4             	push   DWORD PTR [ebp-0x2c]
    2abb:	50                   	push   eax
    2abc:	e8 3f d5 ff ff       	call   0 <free_global_memory>
    2ac1:	83 c4 10             	add    esp,0x10
    2ac4:	8b 83 00 00 00 00    	mov    eax,DWORD PTR [ebx+0x0]
    2aca:	8b 00                	mov    eax,DWORD PTR [eax]
    2acc:	50                   	push   eax
    2acd:	6a 28                	push   0x28
    2acf:	6a 01                	push   0x1
    2ad1:	8d 83 f0 0a 00 00    	lea    eax,[ebx+0xaf0]
    2ad7:	50                   	push   eax
    2ad8:	e8 fc ff ff ff       	call   2ad9 <main+0x98f>
    2add:	83 c4 10             	add    esp,0x10
    2ae0:	b8 01 00 00 00       	mov    eax,0x1
    2ae5:	e9 7c 06 00 00       	jmp    3166 <.L231+0x221>
    2aea:	8b 45 c8             	mov    eax,DWORD PTR [ebp-0x38]
    2aed:	8b 50 08             	mov    edx,DWORD PTR [eax+0x8]
    2af0:	8b 45 c8             	mov    eax,DWORD PTR [ebp-0x38]
    2af3:	8b 40 04             	mov    eax,DWORD PTR [eax+0x4]
    2af6:	83 ec 08             	sub    esp,0x8
    2af9:	52                   	push   edx
    2afa:	50                   	push   eax
    2afb:	e8 fc ff ff ff       	call   2afc <main+0x9b2>
    2b00:	83 c4 10             	add    esp,0x10
    2b03:	85 c0                	test   eax,eax
    2b05:	75 38                	jne    2b3f <main+0x9f5>
    2b07:	8b 45 c8             	mov    eax,DWORD PTR [ebp-0x38]
    2b0a:	83 ec 08             	sub    esp,0x8
    2b0d:	ff 75 d4             	push   DWORD PTR [ebp-0x2c]
    2b10:	50                   	push   eax
    2b11:	e8 ea d4 ff ff       	call   0 <free_global_memory>
    2b16:	83 c4 10             	add    esp,0x10
    2b19:	8b 83 00 00 00 00    	mov    eax,DWORD PTR [ebx+0x0]
    2b1f:	8b 00                	mov    eax,DWORD PTR [eax]
    2b21:	50                   	push   eax
    2b22:	6a 2a                	push   0x2a
    2b24:	6a 01                	push   0x1
    2b26:	8d 83 1c 0b 00 00    	lea    eax,[ebx+0xb1c]
    2b2c:	50                   	push   eax
    2b2d:	e8 fc ff ff ff       	call   2b2e <main+0x9e4>
    2b32:	83 c4 10             	add    esp,0x10
    2b35:	b8 01 00 00 00       	mov    eax,0x1
    2b3a:	e9 27 06 00 00       	jmp    3166 <.L231+0x221>
    2b3f:	8b 45 c8             	mov    eax,DWORD PTR [ebp-0x38]
    2b42:	8b 50 08             	mov    edx,DWORD PTR [eax+0x8]
    2b45:	8b 45 c8             	mov    eax,DWORD PTR [ebp-0x38]
    2b48:	8b 00                	mov    eax,DWORD PTR [eax]
    2b4a:	83 ec 08             	sub    esp,0x8
    2b4d:	52                   	push   edx
    2b4e:	50                   	push   eax
    2b4f:	e8 fc ff ff ff       	call   2b50 <main+0xa06>
    2b54:	83 c4 10             	add    esp,0x10
    2b57:	85 c0                	test   eax,eax
    2b59:	75 38                	jne    2b93 <main+0xa49>
    2b5b:	8b 45 c8             	mov    eax,DWORD PTR [ebp-0x38]
    2b5e:	83 ec 08             	sub    esp,0x8
    2b61:	ff 75 d4             	push   DWORD PTR [ebp-0x2c]
    2b64:	50                   	push   eax
    2b65:	e8 96 d4 ff ff       	call   0 <free_global_memory>
    2b6a:	83 c4 10             	add    esp,0x10
    2b6d:	8b 83 00 00 00 00    	mov    eax,DWORD PTR [ebx+0x0]
    2b73:	8b 00                	mov    eax,DWORD PTR [eax]
    2b75:	50                   	push   eax
    2b76:	6a 29                	push   0x29
    2b78:	6a 01                	push   0x1
    2b7a:	8d 83 48 0b 00 00    	lea    eax,[ebx+0xb48]
    2b80:	50                   	push   eax
    2b81:	e8 fc ff ff ff       	call   2b82 <main+0xa38>
    2b86:	83 c4 10             	add    esp,0x10
    2b89:	b8 01 00 00 00       	mov    eax,0x1
    2b8e:	e9 d3 05 00 00       	jmp    3166 <.L231+0x221>
    2b93:	8b 45 c8             	mov    eax,DWORD PTR [ebp-0x38]
    2b96:	8b 00                	mov    eax,DWORD PTR [eax]
    2b98:	83 ec 08             	sub    esp,0x8
    2b9b:	50                   	push   eax
    2b9c:	8d 83 74 0b 00 00    	lea    eax,[ebx+0xb74]
    2ba2:	50                   	push   eax
    2ba3:	e8 fc ff ff ff       	call   2ba4 <main+0xa5a>
    2ba8:	83 c4 10             	add    esp,0x10
    2bab:	8b 45 c8             	mov    eax,DWORD PTR [ebp-0x38]
    2bae:	8b 40 04             	mov    eax,DWORD PTR [eax+0x4]
    2bb1:	83 ec 08             	sub    esp,0x8
    2bb4:	50                   	push   eax
    2bb5:	8d 83 98 0b 00 00    	lea    eax,[ebx+0xb98]
    2bbb:	50                   	push   eax
    2bbc:	e8 fc ff ff ff       	call   2bbd <main+0xa73>
    2bc1:	83 c4 10             	add    esp,0x10
    2bc4:	8b 45 c8             	mov    eax,DWORD PTR [ebp-0x38]
    2bc7:	8b 40 08             	mov    eax,DWORD PTR [eax+0x8]
    2bca:	83 ec 08             	sub    esp,0x8
    2bcd:	50                   	push   eax
    2bce:	8d 83 bc 0b 00 00    	lea    eax,[ebx+0xbbc]
    2bd4:	50                   	push   eax
    2bd5:	e8 fc ff ff ff       	call   2bd6 <main+0xa8c>
    2bda:	83 c4 10             	add    esp,0x10
    2bdd:	8b 45 c8             	mov    eax,DWORD PTR [ebp-0x38]
    2be0:	8b 80 48 00 00 01    	mov    eax,DWORD PTR [eax+0x1000048]
    2be6:	8b 84 83 30 00 00 00 	mov    eax,DWORD PTR [ebx+eax*4+0x30]
    2bed:	83 ec 08             	sub    esp,0x8
    2bf0:	50                   	push   eax
    2bf1:	8d 83 dd 0b 00 00    	lea    eax,[ebx+0xbdd]
    2bf7:	50                   	push   eax
    2bf8:	e8 fc ff ff ff       	call   2bf9 <main+0xaaf>
    2bfd:	83 c4 10             	add    esp,0x10
    2c00:	83 ec 0c             	sub    esp,0xc
    2c03:	8d 83 f4 0b 00 00    	lea    eax,[ebx+0xbf4]
    2c09:	50                   	push   eax
    2c0a:	e8 fc ff ff ff       	call   2c0b <main+0xac1>
    2c0f:	83 c4 10             	add    esp,0x10
    2c12:	8b 45 c8             	mov    eax,DWORD PTR [ebp-0x38]
    2c15:	8b 40 24             	mov    eax,DWORD PTR [eax+0x24]
    2c18:	83 ec 08             	sub    esp,0x8
    2c1b:	50                   	push   eax
    2c1c:	8d 83 20 0c 00 00    	lea    eax,[ebx+0xc20]
    2c22:	50                   	push   eax
    2c23:	e8 fc ff ff ff       	call   2c24 <main+0xada>
    2c28:	83 c4 10             	add    esp,0x10
    2c2b:	8b 45 c8             	mov    eax,DWORD PTR [ebp-0x38]
    2c2e:	8b 80 44 00 00 01    	mov    eax,DWORD PTR [eax+0x1000044]
    2c34:	85 c0                	test   eax,eax
    2c36:	0f 95 c0             	setne  al
    2c39:	0f b6 c0             	movzx  eax,al
    2c3c:	8b 84 83 28 00 00 00 	mov    eax,DWORD PTR [ebx+eax*4+0x28]
    2c43:	83 ec 08             	sub    esp,0x8
    2c46:	50                   	push   eax
    2c47:	8d 83 3d 0c 00 00    	lea    eax,[ebx+0xc3d]
    2c4d:	50                   	push   eax
    2c4e:	e8 fc ff ff ff       	call   2c4f <main+0xb05>
    2c53:	83 c4 10             	add    esp,0x10
    2c56:	8b 45 c8             	mov    eax,DWORD PTR [ebp-0x38]
    2c59:	8b 50 24             	mov    edx,DWORD PTR [eax+0x24]
    2c5c:	8b 45 c8             	mov    eax,DWORD PTR [ebp-0x38]
    2c5f:	c1 ea 03             	shr    edx,0x3
    2c62:	89 50 24             	mov    DWORD PTR [eax+0x24],edx
    2c65:	8b 45 c8             	mov    eax,DWORD PTR [ebp-0x38]
    2c68:	8b 40 24             	mov    eax,DWORD PTR [eax+0x24]
    2c6b:	8b 75 c8             	mov    esi,DWORD PTR [ebp-0x38]
    2c6e:	83 ec 08             	sub    esp,0x8
    2c71:	6a 01                	push   0x1
    2c73:	50                   	push   eax
    2c74:	e8 fc ff ff ff       	call   2c75 <main+0xb2b>
    2c79:	83 c4 10             	add    esp,0x10
    2c7c:	89 46 20             	mov    DWORD PTR [esi+0x20],eax
    2c7f:	8b 45 c8             	mov    eax,DWORD PTR [ebp-0x38]
    2c82:	8b 40 20             	mov    eax,DWORD PTR [eax+0x20]
    2c85:	85 c0                	test   eax,eax
    2c87:	75 38                	jne    2cc1 <main+0xb77>
    2c89:	8b 45 c8             	mov    eax,DWORD PTR [ebp-0x38]
    2c8c:	83 ec 08             	sub    esp,0x8
    2c8f:	ff 75 d4             	push   DWORD PTR [ebp-0x2c]
    2c92:	50                   	push   eax
    2c93:	e8 68 d3 ff ff       	call   0 <free_global_memory>
    2c98:	83 c4 10             	add    esp,0x10
    2c9b:	8b 83 00 00 00 00    	mov    eax,DWORD PTR [ebx+0x0]
    2ca1:	8b 00                	mov    eax,DWORD PTR [eax]
    2ca3:	50                   	push   eax
    2ca4:	6a 1c                	push   0x1c
    2ca6:	6a 01                	push   0x1
    2ca8:	8d 83 c2 00 00 00    	lea    eax,[ebx+0xc2]
    2cae:	50                   	push   eax
    2caf:	e8 fc ff ff ff       	call   2cb0 <main+0xb66>
    2cb4:	83 c4 10             	add    esp,0x10
    2cb7:	b8 01 00 00 00       	mov    eax,0x1
    2cbc:	e9 a5 04 00 00       	jmp    3166 <.L231+0x221>
    2cc1:	8b 45 c8             	mov    eax,DWORD PTR [ebp-0x38]
    2cc4:	8b 40 24             	mov    eax,DWORD PTR [eax+0x24]
    2cc7:	83 ec 08             	sub    esp,0x8
    2cca:	50                   	push   eax
    2ccb:	8d 83 54 0c 00 00    	lea    eax,[ebx+0xc54]
    2cd1:	50                   	push   eax
    2cd2:	e8 fc ff ff ff       	call   2cd3 <main+0xb89>
    2cd7:	83 c4 10             	add    esp,0x10
    2cda:	8b 45 c8             	mov    eax,DWORD PTR [ebp-0x38]
    2cdd:	8b 40 20             	mov    eax,DWORD PTR [eax+0x20]
    2ce0:	83 ec 08             	sub    esp,0x8
    2ce3:	50                   	push   eax
    2ce4:	8d 83 7c 0c 00 00    	lea    eax,[ebx+0xc7c]
    2cea:	50                   	push   eax
    2ceb:	e8 fc ff ff ff       	call   2cec <main+0xba2>
    2cf0:	83 c4 10             	add    esp,0x10
    2cf3:	8b 45 c8             	mov    eax,DWORD PTR [ebp-0x38]
    2cf6:	8b 48 24             	mov    ecx,DWORD PTR [eax+0x24]
    2cf9:	8b 45 c8             	mov    eax,DWORD PTR [ebp-0x38]
    2cfc:	8b 50 20             	mov    edx,DWORD PTR [eax+0x20]
    2cff:	8b 45 c8             	mov    eax,DWORD PTR [ebp-0x38]
    2d02:	8b 40 08             	mov    eax,DWORD PTR [eax+0x8]
    2d05:	83 ec 04             	sub    esp,0x4
    2d08:	51                   	push   ecx
    2d09:	52                   	push   edx
    2d0a:	50                   	push   eax
    2d0b:	e8 fc ff ff ff       	call   2d0c <main+0xbc2>
    2d10:	83 c4 10             	add    esp,0x10
    2d13:	89 45 e0             	mov    DWORD PTR [ebp-0x20],eax
    2d16:	8b 45 c8             	mov    eax,DWORD PTR [ebp-0x38]
    2d19:	8b 40 24             	mov    eax,DWORD PTR [eax+0x24]
    2d1c:	39 45 e0             	cmp    DWORD PTR [ebp-0x20],eax
    2d1f:	75 1e                	jne    2d3f <main+0xbf5>
    2d21:	8b 45 c8             	mov    eax,DWORD PTR [ebp-0x38]
    2d24:	8b 40 08             	mov    eax,DWORD PTR [eax+0x8]
    2d27:	83 ec 08             	sub    esp,0x8
    2d2a:	50                   	push   eax
    2d2b:	8d 83 a0 0c 00 00    	lea    eax,[ebx+0xca0]
    2d31:	50                   	push   eax
    2d32:	e8 fc ff ff ff       	call   2d33 <main+0xbe9>
    2d37:	83 c4 10             	add    esp,0x10
    2d3a:	e9 1d 01 00 00       	jmp    2e5c <main+0xd12>
    2d3f:	83 7d e0 00          	cmp    DWORD PTR [ebp-0x20],0x0
    2d43:	7e 43                	jle    2d88 <main+0xc3e>
    2d45:	8b 45 c8             	mov    eax,DWORD PTR [ebp-0x38]
    2d48:	8b 40 24             	mov    eax,DWORD PTR [eax+0x24]
    2d4b:	39 45 e0             	cmp    DWORD PTR [ebp-0x20],eax
    2d4e:	7d 38                	jge    2d88 <main+0xc3e>
    2d50:	8b 45 c8             	mov    eax,DWORD PTR [ebp-0x38]
    2d53:	8b 40 24             	mov    eax,DWORD PTR [eax+0x24]
    2d56:	83 ec 04             	sub    esp,0x4
    2d59:	50                   	push   eax
    2d5a:	ff 75 e0             	push   DWORD PTR [ebp-0x20]
    2d5d:	8d 83 c4 0c 00 00    	lea    eax,[ebx+0xcc4]
    2d63:	50                   	push   eax
    2d64:	e8 fc ff ff ff       	call   2d65 <main+0xc1b>
    2d69:	83 c4 10             	add    esp,0x10
    2d6c:	8b 45 c8             	mov    eax,DWORD PTR [ebp-0x38]
    2d6f:	83 ec 08             	sub    esp,0x8
    2d72:	ff 75 d4             	push   DWORD PTR [ebp-0x2c]
    2d75:	50                   	push   eax
    2d76:	e8 85 d2 ff ff       	call   0 <free_global_memory>
    2d7b:	83 c4 10             	add    esp,0x10
    2d7e:	b8 01 00 00 00       	mov    eax,0x1
    2d83:	e9 de 03 00 00       	jmp    3166 <.L231+0x221>
    2d88:	83 7d e0 00          	cmp    DWORD PTR [ebp-0x20],0x0
    2d8c:	74 0a                	je     2d98 <main+0xc4e>
    2d8e:	83 7d e0 ff          	cmp    DWORD PTR [ebp-0x20],0xffffffff
    2d92:	0f 85 c4 00 00 00    	jne    2e5c <main+0xd12>
    2d98:	8b 45 c8             	mov    eax,DWORD PTR [ebp-0x38]
    2d9b:	8b 40 08             	mov    eax,DWORD PTR [eax+0x8]
    2d9e:	83 ec 08             	sub    esp,0x8
    2da1:	68 00 01 00 00       	push   0x100
    2da6:	50                   	push   eax
    2da7:	e8 fc ff ff ff       	call   2da8 <main+0xc5e>
    2dac:	83 c4 10             	add    esp,0x10
    2daf:	89 45 e0             	mov    DWORD PTR [ebp-0x20],eax
    2db2:	83 7d e0 07          	cmp    DWORD PTR [ebp-0x20],0x7
    2db6:	7e 6a                	jle    2e22 <main+0xcd8>
    2db8:	81 7d e0 00 01 00 00 	cmp    DWORD PTR [ebp-0x20],0x100
    2dbf:	7f 61                	jg     2e22 <main+0xcd8>
    2dc1:	8b 45 c8             	mov    eax,DWORD PTR [ebp-0x38]
    2dc4:	8b 78 24             	mov    edi,DWORD PTR [eax+0x24]
    2dc7:	8b 45 c8             	mov    eax,DWORD PTR [ebp-0x38]
    2dca:	8b 70 20             	mov    esi,DWORD PTR [eax+0x20]
    2dcd:	8b 4d e0             	mov    ecx,DWORD PTR [ebp-0x20]
    2dd0:	8b 45 c8             	mov    eax,DWORD PTR [ebp-0x38]
    2dd3:	8b 50 08             	mov    edx,DWORD PTR [eax+0x8]
    2dd6:	8b 45 c8             	mov    eax,DWORD PTR [ebp-0x38]
    2dd9:	83 ec 0c             	sub    esp,0xc
    2ddc:	57                   	push   edi
    2ddd:	56                   	push   esi
    2dde:	51                   	push   ecx
    2ddf:	52                   	push   edx
    2de0:	50                   	push   eax
    2de1:	e8 0f d8 ff ff       	call   5f5 <KDFCLOMUL>
    2de6:	83 c4 20             	add    esp,0x20
    2de9:	8b 45 c8             	mov    eax,DWORD PTR [ebp-0x38]
    2dec:	8b 50 0c             	mov    edx,DWORD PTR [eax+0xc]
    2def:	8b 45 c8             	mov    eax,DWORD PTR [ebp-0x38]
    2df2:	8b 40 08             	mov    eax,DWORD PTR [eax+0x8]
    2df5:	83 ec 04             	sub    esp,0x4
    2df8:	52                   	push   edx
    2df9:	6a 00                	push   0x0
    2dfb:	50                   	push   eax
    2dfc:	e8 fc ff ff ff       	call   2dfd <main+0xcb3>
    2e01:	83 c4 10             	add    esp,0x10
    2e04:	8b 45 c8             	mov    eax,DWORD PTR [ebp-0x38]
    2e07:	c7 40 0c 00 00 00 00 	mov    DWORD PTR [eax+0xc],0x0
    2e0e:	83 ec 0c             	sub    esp,0xc
    2e11:	8d 83 f8 0c 00 00    	lea    eax,[ebx+0xcf8]
    2e17:	50                   	push   eax
    2e18:	e8 fc ff ff ff       	call   2e19 <main+0xccf>
    2e1d:	83 c4 10             	add    esp,0x10
    2e20:	eb 3a                	jmp    2e5c <main+0xd12>
    2e22:	8b 45 c8             	mov    eax,DWORD PTR [ebp-0x38]
    2e25:	83 ec 08             	sub    esp,0x8
    2e28:	ff 75 d4             	push   DWORD PTR [ebp-0x2c]
    2e2b:	50                   	push   eax
    2e2c:	e8 cf d1 ff ff       	call   0 <free_global_memory>
    2e31:	83 c4 10             	add    esp,0x10
    2e34:	8b 83 00 00 00 00    	mov    eax,DWORD PTR [ebx+0x0]
    2e3a:	8b 00                	mov    eax,DWORD PTR [eax]
    2e3c:	83 ec 04             	sub    esp,0x4
    2e3f:	ff 75 e0             	push   DWORD PTR [ebp-0x20]
    2e42:	8d 93 20 0d 00 00    	lea    edx,[ebx+0xd20]
    2e48:	52                   	push   edx
    2e49:	50                   	push   eax
    2e4a:	e8 fc ff ff ff       	call   2e4b <main+0xd01>
    2e4f:	83 c4 10             	add    esp,0x10
    2e52:	b8 01 00 00 00       	mov    eax,0x1
    2e57:	e9 0a 03 00 00       	jmp    3166 <.L231+0x221>
    2e5c:	8b 45 c8             	mov    eax,DWORD PTR [ebp-0x38]
    2e5f:	8b 40 24             	mov    eax,DWORD PTR [eax+0x24]
    2e62:	c1 e0 03             	shl    eax,0x3
    2e65:	83 ec 08             	sub    esp,0x8
    2e68:	50                   	push   eax
    2e69:	8d 83 58 0d 00 00    	lea    eax,[ebx+0xd58]
    2e6f:	50                   	push   eax
    2e70:	e8 fc ff ff ff       	call   2e71 <main+0xd27>
    2e75:	83 c4 10             	add    esp,0x10
    2e78:	83 ec 08             	sub    esp,0x8
    2e7b:	ff 75 e0             	push   DWORD PTR [ebp-0x20]
    2e7e:	8d 83 80 0d 00 00    	lea    eax,[ebx+0xd80]
    2e84:	50                   	push   eax
    2e85:	e8 fc ff ff ff       	call   2e86 <main+0xd3c>
    2e8a:	83 c4 10             	add    esp,0x10
    2e8d:	8b 45 c8             	mov    eax,DWORD PTR [ebp-0x38]
    2e90:	8b 40 20             	mov    eax,DWORD PTR [eax+0x20]
    2e93:	83 ec 08             	sub    esp,0x8
    2e96:	50                   	push   eax
    2e97:	8d 83 ac 0d 00 00    	lea    eax,[ebx+0xdac]
    2e9d:	50                   	push   eax
    2e9e:	e8 fc ff ff ff       	call   2e9f <main+0xd55>
    2ea3:	83 c4 10             	add    esp,0x10
    2ea6:	83 ec 0c             	sub    esp,0xc
    2ea9:	8d 83 dd 0d 00 00    	lea    eax,[ebx+0xddd]
    2eaf:	50                   	push   eax
    2eb0:	e8 fc ff ff ff       	call   2eb1 <main+0xd67>
    2eb5:	83 c4 10             	add    esp,0x10
    2eb8:	8b 45 c8             	mov    eax,DWORD PTR [ebp-0x38]
    2ebb:	8b 50 24             	mov    edx,DWORD PTR [eax+0x24]
    2ebe:	8b 45 c8             	mov    eax,DWORD PTR [ebp-0x38]
    2ec1:	8b 40 20             	mov    eax,DWORD PTR [eax+0x20]
    2ec4:	83 ec 04             	sub    esp,0x4
    2ec7:	52                   	push   edx
    2ec8:	50                   	push   eax
    2ec9:	6a 01                	push   0x1
    2ecb:	e8 fc ff ff ff       	call   2ecc <main+0xd82>
    2ed0:	83 c4 10             	add    esp,0x10
    2ed3:	8b 45 c8             	mov    eax,DWORD PTR [ebp-0x38]
    2ed6:	8b 80 48 00 00 01    	mov    eax,DWORD PTR [eax+0x1000048]
    2edc:	83 f8 04             	cmp    eax,0x4
    2edf:	77 78                	ja     2f59 <.L231+0x14>
    2ee1:	c1 e0 02             	shl    eax,0x2
    2ee4:	8b 84 18 b0 0e 00 00 	mov    eax,DWORD PTR [eax+ebx*1+0xeb0]
    2eeb:	01 d8                	add    eax,ebx
    2eed:	ff e0                	jmp    eax

00002eef <.L236>:
    2eef:	8b 45 c8             	mov    eax,DWORD PTR [ebp-0x38]
    2ef2:	c7 40 1c 10 00 00 00 	mov    DWORD PTR [eax+0x1c],0x10
    2ef9:	8b 83 00 00 00 00    	mov    eax,DWORD PTR [ebx+0x0]
    2eff:	8b 00                	mov    eax,DWORD PTR [eax]
    2f01:	83 c0 01             	add    eax,0x1
    2f04:	c1 e0 04             	shl    eax,0x4
    2f07:	89 45 dc             	mov    DWORD PTR [ebp-0x24],eax
    2f0a:	eb 4d                	jmp    2f59 <.L231+0x14>

00002f0c <.L235>:
    2f0c:	8b 45 c8             	mov    eax,DWORD PTR [ebp-0x38]
    2f0f:	c7 40 1c 10 00 00 00 	mov    DWORD PTR [eax+0x1c],0x10
    2f16:	c7 45 dc 54 06 00 00 	mov    DWORD PTR [ebp-0x24],0x654
    2f1d:	eb 3a                	jmp    2f59 <.L231+0x14>

00002f1f <.L234>:
    2f1f:	8b 45 c8             	mov    eax,DWORD PTR [ebp-0x38]
    2f22:	c7 40 1c 10 00 00 00 	mov    DWORD PTR [eax+0x1c],0x10
    2f29:	c7 45 dc a4 10 00 00 	mov    DWORD PTR [ebp-0x24],0x10a4
    2f30:	eb 27                	jmp    2f59 <.L231+0x14>

00002f32 <.L233>:
    2f32:	8b 45 c8             	mov    eax,DWORD PTR [ebp-0x38]
    2f35:	c7 40 1c 08 00 00 00 	mov    DWORD PTR [eax+0x1c],0x8
    2f3c:	c7 45 dc 48 10 00 00 	mov    DWORD PTR [ebp-0x24],0x1048
    2f43:	eb 14                	jmp    2f59 <.L231+0x14>

00002f45 <.L231>:
    2f45:	8b 55 c8             	mov    edx,DWORD PTR [ebp-0x38]
    2f48:	8b 45 c8             	mov    eax,DWORD PTR [ebp-0x38]
    2f4b:	8b 52 24             	mov    edx,DWORD PTR [edx+0x24]
    2f4e:	89 50 1c             	mov    DWORD PTR [eax+0x1c],edx
    2f51:	c7 45 dc a8 00 00 00 	mov    DWORD PTR [ebp-0x24],0xa8
    2f58:	90                   	nop
    2f59:	8b 45 c8             	mov    eax,DWORD PTR [ebp-0x38]
    2f5c:	8b 40 1c             	mov    eax,DWORD PTR [eax+0x1c]
    2f5f:	8b 75 c8             	mov    esi,DWORD PTR [ebp-0x38]
    2f62:	83 ec 08             	sub    esp,0x8
    2f65:	6a 01                	push   0x1
    2f67:	50                   	push   eax
    2f68:	e8 fc ff ff ff       	call   2f69 <.L231+0x24>
    2f6d:	83 c4 10             	add    esp,0x10
    2f70:	89 46 18             	mov    DWORD PTR [esi+0x18],eax
    2f73:	8b 45 c8             	mov    eax,DWORD PTR [ebp-0x38]
    2f76:	8b 40 18             	mov    eax,DWORD PTR [eax+0x18]
    2f79:	85 c0                	test   eax,eax
    2f7b:	75 38                	jne    2fb5 <.L231+0x70>
    2f7d:	8b 45 c8             	mov    eax,DWORD PTR [ebp-0x38]
    2f80:	83 ec 08             	sub    esp,0x8
    2f83:	ff 75 d4             	push   DWORD PTR [ebp-0x2c]
    2f86:	50                   	push   eax
    2f87:	e8 74 d0 ff ff       	call   0 <free_global_memory>
    2f8c:	83 c4 10             	add    esp,0x10
    2f8f:	8b 83 00 00 00 00    	mov    eax,DWORD PTR [ebx+0x0]
    2f95:	8b 00                	mov    eax,DWORD PTR [eax]
    2f97:	50                   	push   eax
    2f98:	6a 1c                	push   0x1c
    2f9a:	6a 01                	push   0x1
    2f9c:	8d 83 c2 00 00 00    	lea    eax,[ebx+0xc2]
    2fa2:	50                   	push   eax
    2fa3:	e8 fc ff ff ff       	call   2fa4 <.L231+0x5f>
    2fa8:	83 c4 10             	add    esp,0x10
    2fab:	b8 01 00 00 00       	mov    eax,0x1
    2fb0:	e9 b1 01 00 00       	jmp    3166 <.L231+0x221>
    2fb5:	8b 45 c8             	mov    eax,DWORD PTR [ebp-0x38]
    2fb8:	8b 80 44 00 00 01    	mov    eax,DWORD PTR [eax+0x1000044]
    2fbe:	85 c0                	test   eax,eax
    2fc0:	75 57                	jne    3019 <.L231+0xd4>
    2fc2:	83 ec 08             	sub    esp,0x8
    2fc5:	ff 75 d8             	push   DWORD PTR [ebp-0x28]
    2fc8:	8d 83 fa 0d 00 00    	lea    eax,[ebx+0xdfa]
    2fce:	50                   	push   eax
    2fcf:	e8 fc ff ff ff       	call   2fd0 <.L231+0x8b>
    2fd4:	83 c4 10             	add    esp,0x10
    2fd7:	83 ec 08             	sub    esp,0x8
    2fda:	6a ff                	push   0xffffffff
    2fdc:	6a 00                	push   0x0
    2fde:	e8 fc ff ff ff       	call   2fdf <.L231+0x9a>
    2fe3:	83 c4 10             	add    esp,0x10
    2fe6:	89 c2                	mov    edx,eax
    2fe8:	8b 45 d8             	mov    eax,DWORD PTR [ebp-0x28]
    2feb:	8d 0c 02             	lea    ecx,[edx+eax*1]
    2fee:	8b 45 c8             	mov    eax,DWORD PTR [ebp-0x38]
    2ff1:	8b 40 18             	mov    eax,DWORD PTR [eax+0x18]
    2ff4:	8b 10                	mov    edx,DWORD PTR [eax]
    2ff6:	8b 45 c8             	mov    eax,DWORD PTR [ebp-0x38]
    2ff9:	8b 40 18             	mov    eax,DWORD PTR [eax+0x18]
    2ffc:	31 ca                	xor    edx,ecx
    2ffe:	89 10                	mov    DWORD PTR [eax],edx
    3000:	8b 45 c8             	mov    eax,DWORD PTR [ebp-0x38]
    3003:	8b 50 1c             	mov    edx,DWORD PTR [eax+0x1c]
    3006:	8b 45 c8             	mov    eax,DWORD PTR [ebp-0x38]
    3009:	8b 40 18             	mov    eax,DWORD PTR [eax+0x18]
    300c:	83 ec 08             	sub    esp,0x8
    300f:	52                   	push   edx
    3010:	50                   	push   eax
    3011:	e8 fc ff ff ff       	call   3012 <.L231+0xcd>
    3016:	83 c4 10             	add    esp,0x10
    3019:	8b 45 c8             	mov    eax,DWORD PTR [ebp-0x38]
    301c:	83 ec 08             	sub    esp,0x8
    301f:	ff 75 dc             	push   DWORD PTR [ebp-0x24]
    3022:	50                   	push   eax
    3023:	e8 07 eb ff ff       	call   1b2f <cipher_init_memory>
    3028:	83 c4 10             	add    esp,0x10
    302b:	89 45 cc             	mov    DWORD PTR [ebp-0x34],eax
    302e:	83 7d cc 00          	cmp    DWORD PTR [ebp-0x34],0x0
    3032:	75 38                	jne    306c <.L231+0x127>
    3034:	8b 45 c8             	mov    eax,DWORD PTR [ebp-0x38]
    3037:	83 ec 08             	sub    esp,0x8
    303a:	ff 75 d4             	push   DWORD PTR [ebp-0x2c]
    303d:	50                   	push   eax
    303e:	e8 bd cf ff ff       	call   0 <free_global_memory>
    3043:	83 c4 10             	add    esp,0x10
    3046:	8b 83 00 00 00 00    	mov    eax,DWORD PTR [ebx+0x0]
    304c:	8b 00                	mov    eax,DWORD PTR [eax]
    304e:	50                   	push   eax
    304f:	6a 1c                	push   0x1c
    3051:	6a 01                	push   0x1
    3053:	8d 83 c2 00 00 00    	lea    eax,[ebx+0xc2]
    3059:	50                   	push   eax
    305a:	e8 fc ff ff ff       	call   305b <.L231+0x116>
    305f:	83 c4 10             	add    esp,0x10
    3062:	b8 01 00 00 00       	mov    eax,0x1
    3067:	e9 fa 00 00 00       	jmp    3166 <.L231+0x221>
    306c:	8b 45 c8             	mov    eax,DWORD PTR [ebp-0x38]
    306f:	8b 80 48 00 00 01    	mov    eax,DWORD PTR [eax+0x1000048]
    3075:	8b 84 83 30 00 00 00 	mov    eax,DWORD PTR [ebx+eax*4+0x30]
    307c:	83 ec 08             	sub    esp,0x8
    307f:	50                   	push   eax
    3080:	8d 83 15 0e 00 00    	lea    eax,[ebx+0xe15]
    3086:	50                   	push   eax
    3087:	e8 fc ff ff ff       	call   3088 <.L231+0x143>
    308c:	83 c4 10             	add    esp,0x10
    308f:	83 ec 08             	sub    esp,0x8
    3092:	ff 75 dc             	push   DWORD PTR [ebp-0x24]
    3095:	8d 83 34 0e 00 00    	lea    eax,[ebx+0xe34]
    309b:	50                   	push   eax
    309c:	e8 fc ff ff ff       	call   309d <.L231+0x158>
    30a1:	83 c4 10             	add    esp,0x10
    30a4:	83 ec 0c             	sub    esp,0xc
    30a7:	8d 83 64 0e 00 00    	lea    eax,[ebx+0xe64]
    30ad:	50                   	push   eax
    30ae:	e8 fc ff ff ff       	call   30af <.L231+0x16a>
    30b3:	83 c4 10             	add    esp,0x10
    30b6:	83 ec 04             	sub    esp,0x4
    30b9:	ff 75 dc             	push   DWORD PTR [ebp-0x24]
    30bc:	ff 75 cc             	push   DWORD PTR [ebp-0x34]
    30bf:	6a 01                	push   0x1
    30c1:	e8 fc ff ff ff       	call   30c2 <.L231+0x17d>
    30c6:	83 c4 10             	add    esp,0x10
    30c9:	8b 45 c8             	mov    eax,DWORD PTR [ebp-0x38]
    30cc:	8b 30                	mov    esi,DWORD PTR [eax]
    30ce:	8b 45 c8             	mov    eax,DWORD PTR [ebp-0x38]
    30d1:	8b 80 44 00 00 01    	mov    eax,DWORD PTR [eax+0x1000044]
    30d7:	83 ec 0c             	sub    esp,0xc
    30da:	50                   	push   eax
    30db:	e8 af d6 ff ff       	call   78f <operation_variant>
    30e0:	83 c4 10             	add    esp,0x10
    30e3:	8b 84 83 28 00 00 00 	mov    eax,DWORD PTR [ebx+eax*4+0x28]
    30ea:	83 ec 04             	sub    esp,0x4
    30ed:	56                   	push   esi
    30ee:	50                   	push   eax
    30ef:	8d 83 88 0e 00 00    	lea    eax,[ebx+0xe88]
    30f5:	50                   	push   eax
    30f6:	e8 fc ff ff ff       	call   30f7 <.L231+0x1b2>
    30fb:	83 c4 10             	add    esp,0x10
    30fe:	8b 45 c8             	mov    eax,DWORD PTR [ebp-0x38]
    3101:	83 ec 0c             	sub    esp,0xc
    3104:	50                   	push   eax
    3105:	e8 4a de ff ff       	call   f54 <filecrypt>
    310a:	83 c4 10             	add    esp,0x10
    310d:	89 45 d0             	mov    DWORD PTR [ebp-0x30],eax
    3110:	8b 45 c8             	mov    eax,DWORD PTR [ebp-0x38]
    3113:	83 ec 08             	sub    esp,0x8
    3116:	ff 75 d0             	push   DWORD PTR [ebp-0x30]
    3119:	50                   	push   eax
    311a:	e8 fc ff ff ff       	call   311b <.L231+0x1d6>
    311f:	83 c4 10             	add    esp,0x10
    3122:	83 ec 08             	sub    esp,0x8
    3125:	ff 75 dc             	push   DWORD PTR [ebp-0x24]
    3128:	ff 75 cc             	push   DWORD PTR [ebp-0x34]
    312b:	e8 fd d6 ff ff       	call   82d <cipher_free>
    3130:	83 c4 10             	add    esp,0x10
    3133:	8b 45 c8             	mov    eax,DWORD PTR [ebp-0x38]
    3136:	83 ec 08             	sub    esp,0x8
    3139:	ff 75 d4             	push   DWORD PTR [ebp-0x2c]
    313c:	50                   	push   eax
    313d:	e8 be ce ff ff       	call   0 <free_global_memory>
    3142:	83 c4 10             	add    esp,0x10
    3145:	c7 45 cc 00 00 00 00 	mov    DWORD PTR [ebp-0x34],0x0
    314c:	c7 45 c8 00 00 00 00 	mov    DWORD PTR [ebp-0x38],0x0
    3153:	c7 45 dc 00 00 00 00 	mov    DWORD PTR [ebp-0x24],0x0
    315a:	c7 45 d4 00 00 00 00 	mov    DWORD PTR [ebp-0x2c],0x0
    3161:	b8 00 00 00 00       	mov    eax,0x0
    3166:	8d 65 f0             	lea    esp,[ebp-0x10]
    3169:	59                   	pop    ecx
    316a:	5b                   	pop    ebx
    316b:	5e                   	pop    esi
    316c:	5f                   	pop    edi
    316d:	5d                   	pop    ebp
    316e:	8d 61 fc             	lea    esp,[ecx-0x4]
    3171:	c3                   	ret    

Дизассемблирование раздела .bss:

00000000 <rijndael_ctx>:
   0:	00 00                	add    BYTE PTR [eax],al
	...

00000004 <serpent_ctx>:
   4:	00 00                	add    BYTE PTR [eax],al
	...

00000008 <twofish_ctx>:
   8:	00 00                	add    BYTE PTR [eax],al
	...

0000000c <blowfish_ctx>:
   c:	00 00                	add    BYTE PTR [eax],al
	...

00000010 <threefish_ctx>:
  10:	00 00                	add    BYTE PTR [eax],al
	...

Дизассемблирование раздела .rodata:

00000000 <INT_SIZE_DATA-0x40>:
   0:	72 62                	jb     64 <INT_SIZE_DATA+0x24>
   2:	00 77 62             	add    BYTE PTR [edi+0x62],dh
   5:	00 00                	add    BYTE PTR [eax],al
   7:	00 50 6c             	add    BYTE PTR [eax+0x6c],dl
   a:	65 78 75             	gs js  82 <INT_SIZE_DATA+0x42>
   d:	73 54                	jae    63 <INT_SIZE_DATA+0x23>
   f:	43                   	inc    ebx
  10:	4c                   	dec    esp
  11:	20 43 6f             	and    BYTE PTR [ebx+0x6f],al
  14:	6e                   	outs   dx,BYTE PTR ds:[esi]
  15:	73 6f                	jae    86 <INT_SIZE_DATA+0x46>
  17:	6c                   	ins    BYTE PTR es:[edi],dx
  18:	65 20 43 72          	and    BYTE PTR gs:[ebx+0x72],al
  1c:	79 70                	jns    8e <INT_SIZE_DATA+0x4e>
  1e:	74 65                	je     85 <INT_SIZE_DATA+0x45>
  20:	72 20                	jb     42 <INT_SIZE_DATA+0x2>
  22:	35 2e 31 30 20       	xor    eax,0x2030312e
  27:	33 31                	xor    esi,DWORD PTR [ecx]
  29:	4a                   	dec    edx
  2a:	55                   	push   ebp
  2b:	4c                   	dec    esp
  2c:	32 34 20             	xor    dh,BYTE PTR [eax+eiz*1]
  2f:	5b                   	pop    ebx
  30:	45                   	inc    ebp
  31:	4e                   	dec    esi
  32:	5d                   	pop    ebp
	...

00000040 <INT_SIZE_DATA>:
  40:	00 04 00             	add    BYTE PTR [eax+eax*1],al
  43:	00 00                	add    BYTE PTR [eax],al
  45:	00 00                	add    BYTE PTR [eax],al
  47:	00 00                	add    BYTE PTR [eax],al
  49:	00 10                	add    BYTE PTR [eax],dl
	...
  53:	40                   	inc    eax
	...
  5c:	00 01                	add    BYTE PTR [ecx],al
	...
  66:	04 00                	add    al,0x0
  68:	00 00                	add    BYTE PTR [eax],al
  6a:	00 00                	add    BYTE PTR [eax],al
  6c:	00 00                	add    BYTE PTR [eax],al
  6e:	00 10                	add    BYTE PTR [eax],dl
  70:	42                   	inc    edx
  71:	74 00                	je     73 <INT_SIZE_DATA+0x33>
  73:	4b                   	dec    ebx
  74:	69 42 00 4d 69 42 00 	imul   eax,DWORD PTR [edx+0x0],0x42694d
  7b:	47                   	inc    edi
  7c:	69 42 00 54 69 42 00 	imul   eax,DWORD PTR [edx+0x0],0x426954
  83:	50                   	push   eax
  84:	69 42 00 45 69 42 00 	imul   eax,DWORD PTR [edx+0x0],0x426945
  8b:	45                   	inc    ebp
  8c:	6e                   	outs   dx,BYTE PTR ds:[esi]
  8d:	63 72 79             	arpl   WORD PTR [edx+0x79],si
  90:	70 74                	jo     106 <INT_SIZE_DATA+0xc6>
  92:	00 44 65 63          	add    BYTE PTR [ebp+eiz*2+0x63],al
  96:	72 79                	jb     111 <INT_SIZE_DATA+0xd1>
  98:	70 74                	jo     10e <INT_SIZE_DATA+0xce>
  9a:	00 41 45             	add    BYTE PTR [ecx+0x45],al
  9d:	53                   	push   ebx
  9e:	00 53 45             	add    BYTE PTR [ebx+0x45],dl
  a1:	52                   	push   edx
  a2:	50                   	push   eax
  a3:	45                   	inc    ebp
  a4:	4e                   	dec    esi
  a5:	54                   	push   esp
  a6:	00 54 57 4f          	add    BYTE PTR [edi+edx*2+0x4f],dl
  aa:	46                   	inc    esi
  ab:	49                   	dec    ecx
  ac:	53                   	push   ebx
  ad:	48                   	dec    eax
  ae:	00 42 4c             	add    BYTE PTR [edx+0x4c],al
  b1:	4f                   	dec    edi
  b2:	57                   	push   edi
  b3:	46                   	inc    esi
  b4:	49                   	dec    ecx
  b5:	53                   	push   ebx
  b6:	48                   	dec    eax
  b7:	00 54 48 52          	add    BYTE PTR [eax+ecx*2+0x52],dl
  bb:	45                   	inc    ebp
  bc:	45                   	inc    ebp
  bd:	46                   	inc    esi
  be:	49                   	dec    ecx
  bf:	53                   	push   ebx
  c0:	48                   	dec    eax
  c1:	00 5b 21             	add    BYTE PTR [ebx+0x21],bl
  c4:	5d                   	pop    ebp
  c5:	20 43 61             	and    BYTE PTR [ebx+0x61],al
  c8:	6e                   	outs   dx,BYTE PTR ds:[esi]
  c9:	6e                   	outs   dx,BYTE PTR ds:[esi]
  ca:	6f                   	outs   dx,DWORD PTR ds:[esi]
  cb:	74 20                	je     ed <INT_SIZE_DATA+0xad>
  cd:	61                   	popa   
  ce:	6c                   	ins    BYTE PTR es:[edi],dx
  cf:	6c                   	ins    BYTE PTR es:[edi],dx
  d0:	6f                   	outs   dx,DWORD PTR ds:[esi]
  d1:	63 61 74             	arpl   WORD PTR [ecx+0x74],sp
  d4:	65 20 6d 65          	and    BYTE PTR gs:[ebp+0x65],ch
  d8:	6d                   	ins    DWORD PTR es:[edi],dx
  d9:	6f                   	outs   dx,DWORD PTR ds:[esi]
  da:	72 79                	jb     155 <INT_SIZE_DATA+0x115>
  dc:	2e 0a 00             	or     al,BYTE PTR cs:[eax]
  df:	00 5b 44             	add    BYTE PTR [ebx+0x44],bl
  e2:	45                   	inc    ebp
  e3:	42                   	inc    edx
  e4:	55                   	push   ebp
  e5:	47                   	inc    edi
  e6:	5d                   	pop    ebp
  e7:	20 70 6f             	and    BYTE PTR [eax+0x6f],dh
  ea:	69 6e 74 65 72 20 6f 	imul   ebp,DWORD PTR [esi+0x74],0x6f207265
  f1:	66 20 6b 65          	data16 and BYTE PTR [ebx+0x65],ch
  f5:	79 20                	jns    117 <INT_SIZE_DATA+0xd7>
  f7:	6d                   	ins    DWORD PTR es:[edi],dx
  f8:	61                   	popa   
  f9:	74 72                	je     16d <INT_SIZE_DATA+0x12d>
  fb:	69 78 20 6d 65 6d 6f 	imul   edi,DWORD PTR [eax+0x20],0x6f6d656d
 102:	72 79                	jb     17d <INT_SIZE_DATA+0x13d>
 104:	3a 20                	cmp    ah,BYTE PTR [eax]
 106:	25 70 0a 00 00       	and    eax,0xa70
 10b:	00 5b 44             	add    BYTE PTR [ebx+0x44],bl
 10e:	45                   	inc    ebp
 10f:	42                   	inc    edx
 110:	55                   	push   ebp
 111:	47                   	inc    edi
 112:	5d                   	pop    ebp
 113:	20 73 69             	and    BYTE PTR [ebx+0x69],dh
 116:	7a 65                	jp     17d <INT_SIZE_DATA+0x13d>
 118:	20 6f 66             	and    BYTE PTR [edi+0x66],ch
 11b:	20 6b 65             	and    BYTE PTR [ebx+0x65],ch
 11e:	79 20                	jns    140 <INT_SIZE_DATA+0x100>
 120:	6d                   	ins    DWORD PTR es:[edi],dx
 121:	61                   	popa   
 122:	74 72                	je     196 <INT_SIZE_DATA+0x156>
 124:	69 78 20 6d 65 6d 6f 	imul   edi,DWORD PTR [eax+0x20],0x6f6d656d
 12b:	72 79                	jb     1a6 <INT_SIZE_DATA+0x166>
 12d:	20 62 79             	and    BYTE PTR [edx+0x79],ah
 130:	74 65                	je     197 <INT_SIZE_DATA+0x157>
 132:	3a 20                	cmp    ah,BYTE PTR [eax]
 134:	25 75 0a 00 5b       	and    eax,0x5b000a75
 139:	44                   	inc    esp
 13a:	45                   	inc    ebp
 13b:	42                   	inc    edx
 13c:	55                   	push   ebp
 13d:	47                   	inc    edi
 13e:	5d                   	pop    ebp
 13f:	20 6d 61             	and    BYTE PTR [ebp+0x61],ch
 142:	6b 65 20 63          	imul   esp,DWORD PTR [ebp+0x20],0x63
 146:	72 79                	jb     1c1 <INT_SIZE_DATA+0x181>
 148:	70 74                	jo     1be <INT_SIZE_DATA+0x17e>
 14a:	20 6b 65             	and    BYTE PTR [ebx+0x65],ch
 14d:	79 20                	jns    16f <INT_SIZE_DATA+0x12f>
 14f:	63 6f 75             	arpl   WORD PTR [edi+0x75],bp
 152:	6e                   	outs   dx,BYTE PTR ds:[esi]
 153:	74 20                	je     175 <INT_SIZE_DATA+0x135>
 155:	69 74 65 72 61 74 69 	imul   esi,DWORD PTR [ebp+eiz*2+0x72],0x6f697461
 15c:	6f 
 15d:	6e                   	outs   dx,BYTE PTR ds:[esi]
 15e:	3a 20                	cmp    ah,BYTE PTR [eax]
 160:	25 75 0a 00 5b       	and    eax,0x5b000a75
 165:	44                   	inc    esp
 166:	45                   	inc    ebp
 167:	42                   	inc    edx
 168:	55                   	push   ebp
 169:	47                   	inc    edi
 16a:	5d                   	pop    ebp
 16b:	20 6d 61             	and    BYTE PTR [ebp+0x61],ch
 16e:	6b 65 20 63          	imul   esp,DWORD PTR [ebp+0x20],0x63
 172:	72 79                	jb     1ed <INT_SIZE_DATA+0x1ad>
 174:	70 74                	jo     1ea <INT_SIZE_DATA+0x1aa>
 176:	20 6b 65             	and    BYTE PTR [ebx+0x65],ch
 179:	79 20                	jns    19b <INT_SIZE_DATA+0x15b>
 17b:	74 69                	je     1e6 <INT_SIZE_DATA+0x1a6>
 17d:	6d                   	ins    DWORD PTR es:[edi],dx
 17e:	65 3a 20             	cmp    ah,BYTE PTR gs:[eax]
 181:	25 34 2e 34 66       	and    eax,0x66342e34
 186:	20 73 65             	and    BYTE PTR [ebx+0x65],dh
 189:	63 6f 6e             	arpl   WORD PTR [edi+0x6e],bp
 18c:	64 73 0a             	fs jae 199 <INT_SIZE_DATA+0x159>
 18f:	00 5b 44             	add    BYTE PTR [ebx+0x44],bl
 192:	45                   	inc    ebp
 193:	42                   	inc    edx
 194:	55                   	push   ebp
 195:	47                   	inc    edi
 196:	5d                   	pop    ebp
 197:	20 68 61             	and    BYTE PTR [eax+0x61],ch
 19a:	73 68                	jae    204 <INT_SIZE_DATA+0x1c4>
 19c:	20 6d 61             	and    BYTE PTR [ebp+0x61],ch
 19f:	74 72                	je     213 <INT_SIZE_DATA+0x1d3>
 1a1:	69 78 20 66 6f 72 20 	imul   edi,DWORD PTR [eax+0x20],0x20726f66
 1a8:	6b 65 79 20          	imul   esp,DWORD PTR [ebp+0x79],0x20
 1ac:	67 65 6e             	outs   dx,BYTE PTR gs:[si]
 1af:	65 72 61             	gs jb  213 <INT_SIZE_DATA+0x1d3>
 1b2:	74 69                	je     21d <INT_SIZE_DATA+0x1dd>
 1b4:	6f                   	outs   dx,DWORD PTR ds:[esi]
 1b5:	6e                   	outs   dx,BYTE PTR ds:[esi]
 1b6:	3a 00                	cmp    al,BYTE PTR [eax]
 1b8:	5b                   	pop    ebx
 1b9:	44                   	inc    esp
 1ba:	45                   	inc    ebp
 1bb:	42                   	inc    edx
 1bc:	55                   	push   ebp
 1bd:	47                   	inc    edi
 1be:	5d                   	pop    ebp
 1bf:	20 61 75             	and    BYTE PTR [ecx+0x75],ah
 1c2:	74 68                	je     22c <INT_SIZE_DATA+0x1ec>
 1c4:	65 6e                	outs   dx,BYTE PTR gs:[esi]
 1c6:	74 69                	je     231 <INT_SIZE_DATA+0x1f1>
 1c8:	66 69 63 61 74 69    	imul   sp,WORD PTR [ebx+0x61],0x6974
 1ce:	6f                   	outs   dx,DWORD PTR ds:[esi]
 1cf:	6e                   	outs   dx,BYTE PTR ds:[esi]
 1d0:	20 6b 65             	and    BYTE PTR [ebx+0x65],ch
 1d3:	79 20                	jns    1f5 <INT_SIZE_DATA+0x1b5>
 1d5:	27                   	daa    
 1d6:	55                   	push   ebp
 1d7:	27                   	daa    
 1d8:	3a 00                	cmp    al,BYTE PTR [eax]
 1da:	00 00                	add    BYTE PTR [eax],al
 1dc:	5b                   	pop    ebx
 1dd:	44                   	inc    esp
 1de:	45                   	inc    ebp
 1df:	42                   	inc    edx
 1e0:	55                   	push   ebp
 1e1:	47                   	inc    edi
 1e2:	5d                   	pop    ebp
 1e3:	20 61 75             	and    BYTE PTR [ecx+0x75],ah
 1e6:	74 68                	je     250 <INT_SIZE_DATA+0x210>
 1e8:	65 6e                	outs   dx,BYTE PTR gs:[esi]
 1ea:	74 69                	je     255 <INT_SIZE_DATA+0x215>
 1ec:	66 69 63 61 74 69    	imul   sp,WORD PTR [ebx+0x61],0x6974
 1f2:	6f                   	outs   dx,DWORD PTR ds:[esi]
 1f3:	6e                   	outs   dx,BYTE PTR ds:[esi]
 1f4:	20 6b 65             	and    BYTE PTR [ebx+0x65],ch
 1f7:	79 20                	jns    219 <INT_SIZE_DATA+0x1d9>
 1f9:	27                   	daa    
 1fa:	66 27                	data16 daa 
 1fc:	3a 00                	cmp    al,BYTE PTR [eax]
 1fe:	00 00                	add    BYTE PTR [eax],al
 200:	5b                   	pop    ebx
 201:	44                   	inc    esp
 202:	45                   	inc    ebp
 203:	42                   	inc    edx
 204:	55                   	push   ebp
 205:	47                   	inc    edi
 206:	5d                   	pop    ebp
 207:	20 62 79             	and    BYTE PTR [edx+0x79],ah
 20a:	20 67 65             	and    BYTE PTR [edi+0x65],ah
 20d:	6e                   	outs   dx,BYTE PTR ds:[esi]
 20e:	65 72 61             	gs jb  272 <INT_SIZE_DATA+0x232>
 211:	74 69                	je     27c <INT_SIZE_DATA+0x23c>
 213:	6f                   	outs   dx,DWORD PTR ds:[esi]
 214:	6e                   	outs   dx,BYTE PTR ds:[esi]
 215:	20 6e 65             	and    BYTE PTR [esi+0x65],ch
 218:	77 20                	ja     23a <INT_SIZE_DATA+0x1fa>
 21a:	63 72 79             	arpl   WORD PTR [edx+0x79],si
 21d:	70 74                	jo     293 <INT_SIZE_DATA+0x253>
 21f:	20 6b 65             	and    BYTE PTR [ebx+0x65],ch
 222:	79 3a                	jns    25e <INT_SIZE_DATA+0x21e>
	...
 23c:	5b                   	pop    ebx
 23d:	44                   	inc    esp
 23e:	45                   	inc    ebp
 23f:	42                   	inc    edx
 240:	55                   	push   ebp
 241:	47                   	inc    edi
 242:	5d                   	pop    ebp
 243:	20 73 69             	and    BYTE PTR [ebx+0x69],dh
 246:	7a 65                	jp     2ad <INT_SIZE_DATA+0x26d>
 248:	20 6f 66             	and    BYTE PTR [edi+0x66],ch
 24b:	20 66 69             	and    BYTE PTR [esi+0x69],ah
 24e:	6c                   	ins    BYTE PTR es:[edi],dx
 24f:	65 3a 20             	cmp    ah,BYTE PTR gs:[eax]
 252:	25 34 2e 32 66       	and    eax,0x66322e34
 257:	20 25 73 0a 00 5b    	and    BYTE PTR ds:0x5b000a73,ah
 25d:	44                   	inc    esp
 25e:	45                   	inc    ebp
 25f:	42                   	inc    edx
 260:	55                   	push   ebp
 261:	47                   	inc    edi
 262:	5d                   	pop    ebp
 263:	20 76 65             	and    BYTE PTR [esi+0x65],dh
 266:	63 74 6f 72          	arpl   WORD PTR [edi+ebp*2+0x72],si
 26a:	20 6d 65             	and    BYTE PTR [ebp+0x65],ch
 26d:	6d                   	ins    DWORD PTR es:[edi],dx
 26e:	6f                   	outs   dx,DWORD PTR ds:[esi]
 26f:	72 79                	jb     2ea <INT_SIZE_DATA+0x2aa>
 271:	20 61 6c             	and    BYTE PTR [ecx+0x6c],ah
 274:	6c                   	ins    BYTE PTR es:[edi],dx
 275:	6f                   	outs   dx,DWORD PTR ds:[esi]
 276:	63 61 74             	arpl   WORD PTR [ecx+0x74],sp
 279:	65 64 3a 20          	gs cmp ah,BYTE PTR fs:[eax]
 27d:	25 75 20 62 79       	and    eax,0x79622075
 282:	74 65                	je     2e9 <INT_SIZE_DATA+0x2a9>
 284:	0a 00                	or     al,BYTE PTR [eax]
 286:	00 00                	add    BYTE PTR [eax],al
 288:	5b                   	pop    ebx
 289:	44                   	inc    esp
 28a:	45                   	inc    ebp
 28b:	42                   	inc    edx
 28c:	55                   	push   ebp
 28d:	47                   	inc    edi
 28e:	5d                   	pop    ebp
 28f:	20 76 65             	and    BYTE PTR [esi+0x65],dh
 292:	63 74 6f 72          	arpl   WORD PTR [edi+ebp*2+0x72],si
 296:	20 6d 65             	and    BYTE PTR [ebp+0x65],ch
 299:	6d                   	ins    DWORD PTR es:[edi],dx
 29a:	6f                   	outs   dx,DWORD PTR ds:[esi]
 29b:	72 79                	jb     316 <INT_SIZE_DATA+0x2d6>
 29d:	20 70 6f             	and    BYTE PTR [eax+0x6f],dh
 2a0:	69 6e 74 65 72 3a 20 	imul   ebp,DWORD PTR [esi+0x74],0x203a7265
 2a7:	25 70 0a 00 00       	and    eax,0xa70
 2ac:	5b                   	pop    ebx
 2ad:	44                   	inc    esp
 2ae:	45                   	inc    ebp
 2af:	42                   	inc    edx
 2b0:	55                   	push   ebp
 2b1:	47                   	inc    edi
 2b2:	5d                   	pop    ebp
 2b3:	20 76 65             	and    BYTE PTR [esi+0x65],dh
 2b6:	63 74 6f 72          	arpl   WORD PTR [edi+ebp*2+0x72],si
 2ba:	20 67 65             	and    BYTE PTR [edi+0x65],ah
 2bd:	6e                   	outs   dx,BYTE PTR ds:[esi]
 2be:	65 72 61             	gs jb  322 <INT_SIZE_DATA+0x2e2>
 2c1:	74 6f                	je     332 <INT_SIZE_DATA+0x2f2>
 2c3:	72 20                	jb     2e5 <INT_SIZE_DATA+0x2a5>
 2c5:	77 72                	ja     339 <INT_SIZE_DATA+0x2f9>
 2c7:	69 74 65 20 64 61 74 	imul   esi,DWORD PTR [ebp+eiz*2+0x20],0x61746164
 2ce:	61 
 2cf:	20 69 6e             	and    BYTE PTR [ecx+0x6e],ch
 2d2:	20 70 6f             	and    BYTE PTR [eax+0x6f],dh
 2d5:	69 6e 74 65 72 3a 20 	imul   ebp,DWORD PTR [esi+0x74],0x203a7265
 2dc:	25 70 0a 00 5b       	and    eax,0x5b000a70
 2e1:	44                   	inc    esp
 2e2:	45                   	inc    ebp
 2e3:	42                   	inc    edx
 2e4:	55                   	push   ebp
 2e5:	47                   	inc    edi
 2e6:	5d                   	pop    ebp
 2e7:	20 76 65             	and    BYTE PTR [esi+0x65],dh
 2ea:	63 74 6f 72          	arpl   WORD PTR [edi+ebp*2+0x72],si
 2ee:	20 64 61 74          	and    BYTE PTR [ecx+eiz*2+0x74],ah
 2f2:	61                   	popa   
 2f3:	20 72 65             	and    BYTE PTR [edx+0x65],dh
 2f6:	61                   	popa   
 2f7:	64 20 66 72          	and    BYTE PTR fs:[esi+0x72],ah
 2fb:	6f                   	outs   dx,DWORD PTR ds:[esi]
 2fc:	6d                   	ins    DWORD PTR es:[edi],dx
 2fd:	20 66 69             	and    BYTE PTR [esi+0x69],ah
 300:	6c                   	ins    BYTE PTR es:[edi],dx
 301:	65 20 69 6e          	and    BYTE PTR gs:[ecx+0x6e],ch
 305:	20 70 6f             	and    BYTE PTR [eax+0x6f],dh
 308:	69 6e 74 65 72 3a 20 	imul   ebp,DWORD PTR [esi+0x74],0x203a7265
 30f:	25 70 0a 00 5b       	and    eax,0x5b000a70
 314:	44                   	inc    esp
 315:	45                   	inc    ebp
 316:	42                   	inc    edx
 317:	55                   	push   ebp
 318:	47                   	inc    edi
 319:	5d                   	pop    ebp
 31a:	20 76 65             	and    BYTE PTR [esi+0x65],dh
 31d:	63 74 6f 72          	arpl   WORD PTR [edi+ebp*2+0x72],si
 321:	20 72 65             	and    BYTE PTR [edx+0x65],dh
 324:	61                   	popa   
 325:	6c                   	ins    BYTE PTR es:[edi],dx
 326:	20 64 61 74          	and    BYTE PTR [ecx+eiz*2+0x74],ah
 32a:	61                   	popa   
 32b:	3a 00                	cmp    al,BYTE PTR [eax]
 32d:	00 00                	add    BYTE PTR [eax],al
 32f:	00 0d 20 3e 20 20    	add    BYTE PTR ds:0x20203e20,cl
 335:	25 73 20 5b 25       	and    eax,0x255b2073
 33a:	73 5d                	jae    399 <INT_SIZE_DATA+0x359>
 33c:	20 28                	and    BYTE PTR [eax],ch
 33e:	25 34 2e 32 66       	and    eax,0x66322e34
 343:	20 25 73 2f 25 34    	and    BYTE PTR ds:0x34252f73,ah
 349:	2e 32 66 20          	xor    ah,BYTE PTR cs:[esi+0x20]
 34d:	25 73 29 20 25       	and    eax,0x25202973
 352:	33 64 20 25          	xor    esp,DWORD PTR [eax+eiz*1+0x25]
 356:	25 20 20 00 00       	and    eax,0x2020
 35b:	00 5b 44             	add    BYTE PTR [ebx+0x44],bl
 35e:	45                   	inc    ebp
 35f:	42                   	inc    edx
 360:	55                   	push   ebp
 361:	47                   	inc    edi
 362:	5d                   	pop    ebp
 363:	20 72 65             	and    BYTE PTR [edx+0x65],dh
 366:	61                   	popa   
 367:	6c                   	ins    BYTE PTR es:[edi],dx
 368:	20 73 68             	and    BYTE PTR [ebx+0x68],dh
 36b:	61                   	popa   
 36c:	2d 32 2d 32 35       	sub    eax,0x35322d32
 371:	36 20 68 61          	and    BYTE PTR ss:[eax+0x61],ch
 375:	73 68                	jae    3df <INT_SIZE_DATA+0x39f>
 377:	20 73 75             	and    BYTE PTR [ebx+0x75],dh
 37a:	6d                   	ins    DWORD PTR es:[edi],dx
 37b:	20 66 69             	and    BYTE PTR [esi+0x69],ah
 37e:	6c                   	ins    BYTE PTR es:[edi],dx
 37f:	65 3a 20             	cmp    ah,BYTE PTR gs:[eax]
 382:	25 73 0a 00 00       	and    eax,0xa73
 387:	00 5b 21             	add    BYTE PTR [ebx+0x21],bl
 38a:	5d                   	pop    ebp
 38b:	20 57 41             	and    BYTE PTR [edi+0x41],dl
 38e:	52                   	push   edx
 38f:	4e                   	dec    esi
 390:	49                   	dec    ecx
 391:	4e                   	dec    esi
 392:	47                   	inc    edi
 393:	3a 20                	cmp    ah,BYTE PTR [eax]
 395:	43                   	inc    ebx
 396:	6f                   	outs   dx,DWORD PTR ds:[esi]
 397:	6e                   	outs   dx,BYTE PTR ds:[esi]
 398:	74 72                	je     40c <INT_SIZE_DATA+0x3cc>
 39a:	6f                   	outs   dx,DWORD PTR ds:[esi]
 39b:	6c                   	ins    BYTE PTR es:[edi],dx
 39c:	20 73 75             	and    BYTE PTR [ebx+0x75],dh
 39f:	6d                   	ins    DWORD PTR es:[edi],dx
 3a0:	20 66 69             	and    BYTE PTR [esi+0x69],ah
 3a3:	6c                   	ins    BYTE PTR es:[edi],dx
 3a4:	65 20 22             	and    BYTE PTR gs:[edx],ah
 3a7:	25 73 22 20 6e       	and    eax,0x6e202273
 3ac:	6f                   	outs   dx,DWORD PTR ds:[esi]
 3ad:	74 20                	je     3cf <INT_SIZE_DATA+0x38f>
 3af:	63 6f 72             	arpl   WORD PTR [edi+0x72],bp
 3b2:	72 65                	jb     419 <INT_SIZE_DATA+0x3d9>
 3b4:	63 74 21 0a          	arpl   WORD PTR [ecx+eiz*1+0xa],si
 3b8:	00 00                	add    BYTE PTR [eax],al
 3ba:	00 00                	add    BYTE PTR [eax],al
 3bc:	5b                   	pop    ebx
 3bd:	23 5d 20             	and    ebx,DWORD PTR [ebp+0x20]
 3c0:	43                   	inc    ebx
 3c1:	6f                   	outs   dx,DWORD PTR ds:[esi]
 3c2:	6e                   	outs   dx,BYTE PTR ds:[esi]
 3c3:	74 72                	je     437 <INT_SIZE_DATA+0x3f7>
 3c5:	6f                   	outs   dx,DWORD PTR ds:[esi]
 3c6:	6c                   	ins    BYTE PTR es:[edi],dx
 3c7:	20 73 75             	and    BYTE PTR [ebx+0x75],dh
 3ca:	6d                   	ins    DWORD PTR es:[edi],dx
 3cb:	20 66 69             	and    BYTE PTR [esi+0x69],ah
 3ce:	6c                   	ins    BYTE PTR es:[edi],dx
 3cf:	65 20 22             	and    BYTE PTR gs:[edx],ah
 3d2:	25 73 22 20 63       	and    eax,0x63202273
 3d7:	68 65 63 6b 2e       	push   0x2e6b6365
 3dc:	20 3a                	and    BYTE PTR [edx],bh
 3de:	29 0a                	sub    DWORD PTR [edx],ecx
 3e0:	00 00                	add    BYTE PTR [eax],al
 3e2:	00 00                	add    BYTE PTR [eax],al
 3e4:	5b                   	pop    ebx
 3e5:	44                   	inc    esp
 3e6:	45                   	inc    ebp
 3e7:	42                   	inc    edx
 3e8:	55                   	push   ebp
 3e9:	47                   	inc    edi
 3ea:	5d                   	pop    ebp
 3eb:	20 72 65             	and    BYTE PTR [edx+0x65],dh
 3ee:	61                   	popa   
 3ef:	6c                   	ins    BYTE PTR es:[edi],dx
 3f0:	20 68 6d             	and    BYTE PTR [eax+0x6d],ch
 3f3:	61                   	popa   
 3f4:	63 20                	arpl   WORD PTR [eax],sp
 3f6:	69 6e 70 75 74 20 66 	imul   ebp,DWORD PTR [esi+0x70],0x66207475
 3fd:	69 6c 65 6e 61 6d 65 	imul   ebp,DWORD PTR [ebp+eiz*2+0x6e],0x3a656d61
 404:	3a 
 405:	20 25 73 0a 00 00    	and    BYTE PTR ds:0xa73,ah
	...
 433:	00 2f                	add    BYTE PTR [edi],ch
 435:	64 65 76 2f          	fs gs jbe 468 <INT_SIZE_DATA+0x428>
 439:	75 72                	jne    4ad <INT_SIZE_DATA+0x46d>
 43b:	61                   	popa   
 43c:	6e                   	outs   dx,BYTE PTR ds:[esi]
 43d:	64 6f                	outs   dx,DWORD PTR fs:[esi]
 43f:	6d                   	ins    DWORD PTR es:[edi],dx
 440:	00 00                	add    BYTE PTR [eax],al
 442:	00 00                	add    BYTE PTR [eax],al
 444:	5b                   	pop    ebx
 445:	44                   	inc    esp
 446:	45                   	inc    ebp
 447:	42                   	inc    edx
 448:	55                   	push   ebp
 449:	47                   	inc    edi
 44a:	5d                   	pop    ebp
 44b:	20 64 61 74          	and    BYTE PTR [ecx+eiz*2+0x74],ah
 44f:	61                   	popa   
 450:	20 66 72             	and    BYTE PTR [esi+0x72],ah
 453:	6f                   	outs   dx,DWORD PTR ds:[esi]
 454:	6d                   	ins    DWORD PTR es:[edi],dx
 455:	20 64 65 76          	and    BYTE PTR [ebp+eiz*2+0x76],ah
 459:	69 63 65 20 22 2f 64 	imul   esp,DWORD PTR [ebx+0x65],0x642f2220
 460:	65 76 2f             	gs jbe 492 <INT_SIZE_DATA+0x452>
 463:	75 72                	jne    4d7 <INT_SIZE_DATA+0x497>
 465:	61                   	popa   
 466:	6e                   	outs   dx,BYTE PTR ds:[esi]
 467:	64 6f                	outs   dx,DWORD PTR fs:[esi]
 469:	6d                   	ins    DWORD PTR es:[edi],dx
 46a:	22 3a                	and    bh,BYTE PTR [edx]
 46c:	00 00                	add    BYTE PTR [eax],al
 46e:	00 00                	add    BYTE PTR [eax],al
 470:	5b                   	pop    ebx
 471:	21 5d 20             	and    DWORD PTR [ebp+0x20],ebx
 474:	44                   	inc    esp
 475:	65 76 69             	gs jbe 4e1 <INT_SIZE_DATA+0x4a1>
 478:	63 65 20             	arpl   WORD PTR [ebp+0x20],sp
 47b:	22 2f                	and    ch,BYTE PTR [edi]
 47d:	64 65 76 2f          	fs gs jbe 4b0 <INT_SIZE_DATA+0x470>
 481:	75 72                	jne    4f5 <INT_SIZE_DATA+0x4b5>
 483:	61                   	popa   
 484:	6e                   	outs   dx,BYTE PTR ds:[esi]
 485:	64 6f                	outs   dx,DWORD PTR fs:[esi]
 487:	6d                   	ins    DWORD PTR es:[edi],dx
 488:	22 20                	and    ah,BYTE PTR [eax]
 48a:	6e                   	outs   dx,BYTE PTR ds:[esi]
 48b:	6f                   	outs   dx,DWORD PTR ds:[esi]
 48c:	74 20                	je     4ae <INT_SIZE_DATA+0x46e>
 48e:	6f                   	outs   dx,DWORD PTR ds:[esi]
 48f:	70 65                	jo     4f6 <INT_SIZE_DATA+0x4b6>
 491:	6e                   	outs   dx,BYTE PTR ds:[esi]
 492:	6e                   	outs   dx,BYTE PTR ds:[esi]
 493:	65 64 21 0a          	gs and DWORD PTR fs:[edx],ecx
	...
 4ab:	00 5b 23             	add    BYTE PTR [ebx+0x23],bl
 4ae:	5d                   	pop    ebp
 4af:	20 25 73 20 66 69    	and    BYTE PTR ds:0x69662073,ah
 4b5:	6c                   	ins    BYTE PTR es:[edi],dx
 4b6:	65 20 22             	and    BYTE PTR gs:[edx],ah
 4b9:	25 73 22 20 63       	and    eax,0x63202273
 4be:	6f                   	outs   dx,DWORD PTR ds:[esi]
 4bf:	6d                   	ins    DWORD PTR es:[edi],dx
 4c0:	70 6c                	jo     52e <INT_SIZE_DATA+0x4ee>
 4c2:	65 74 65             	gs je  52a <INT_SIZE_DATA+0x4ea>
 4c5:	2e 0a 00             	or     al,BYTE PTR cs:[eax]
 4c8:	5b                   	pop    ebx
 4c9:	21 5d 20             	and    DWORD PTR [ebp+0x20],ebx
 4cc:	46                   	inc    esi
 4cd:	69 6c 65 20 66 6f 72 	imul   ebp,DWORD PTR [ebp+eiz*2+0x20],0x20726f66
 4d4:	20 
 4d5:	25 73 20 22 25       	and    eax,0x25222073
 4da:	73 22                	jae    4fe <INT_SIZE_DATA+0x4be>
 4dc:	20 6e 6f             	and    BYTE PTR [esi+0x6f],ch
 4df:	74 20                	je     501 <INT_SIZE_DATA+0x4c1>
 4e1:	6f                   	outs   dx,DWORD PTR ds:[esi]
 4e2:	70 65                	jo     549 <INT_SIZE_DATA+0x509>
 4e4:	6e                   	outs   dx,BYTE PTR ds:[esi]
 4e5:	65 64 2e 0a 00       	gs fs or al,BYTE PTR cs:[eax]
 4ea:	00 00                	add    BYTE PTR [eax],al
 4ec:	5b                   	pop    ebx
 4ed:	21 5d 20             	and    DWORD PTR [ebp+0x20],ebx
 4f0:	4f                   	dec    edi
 4f1:	75 74                	jne    567 <INT_SIZE_DATA+0x527>
 4f3:	70 75                	jo     56a <INT_SIZE_DATA+0x52a>
 4f5:	74 20                	je     517 <INT_SIZE_DATA+0x4d7>
 4f7:	66 69 6c 65 20 22 25 	imul   bp,WORD PTR [ebp+eiz*2+0x20],0x2522
 4fe:	73 22                	jae    522 <INT_SIZE_DATA+0x4e2>
 500:	20 6e 6f             	and    BYTE PTR [esi+0x6f],ch
 503:	74 20                	je     525 <INT_SIZE_DATA+0x4e5>
 505:	6f                   	outs   dx,DWORD PTR ds:[esi]
 506:	70 65                	jo     56d <INT_SIZE_DATA+0x52d>
 508:	6e                   	outs   dx,BYTE PTR ds:[esi]
 509:	65 64 2e 0a 00       	gs fs or al,BYTE PTR cs:[eax]
 50e:	00 00                	add    BYTE PTR [eax],al
 510:	5b                   	pop    ebx
 511:	21 5d 20             	and    DWORD PTR [ebp+0x20],ebx
 514:	53                   	push   ebx
 515:	69 7a 65 20 6f 66 20 	imul   edi,DWORD PTR [edx+0x65],0x20666f20
 51c:	69 6e 70 75 74 20 66 	imul   ebp,DWORD PTR [esi+0x70],0x66207475
 523:	69 6c 65 20 22 25 73 	imul   ebp,DWORD PTR [ebp+eiz*2+0x20],0x22732522
 52a:	22 
 52b:	20 30                	and    BYTE PTR [eax],dh
 52d:	20 6f 72             	and    BYTE PTR [edi+0x72],ch
 530:	20 6d 6f             	and    BYTE PTR [ebp+0x6f],ch
 533:	72 65                	jb     59a <INT_SIZE_DATA+0x55a>
 535:	20 34 20             	and    BYTE PTR [eax+eiz*1],dh
 538:	45                   	inc    ebp
 539:	69 42 2e 0a 00 00 00 	imul   eax,DWORD PTR [edx+0x2e],0xa
 540:	5b                   	pop    ebx
 541:	21 5d 20             	and    DWORD PTR [ebp+0x20],ebx
 544:	45                   	inc    ebp
 545:	72 72                	jb     5b9 <INT_SIZE_DATA+0x579>
 547:	6f                   	outs   dx,DWORD PTR ds:[esi]
 548:	72 20                	jb     56a <INT_SIZE_DATA+0x52a>
 54a:	77 72                	ja     5be <INT_SIZE_DATA+0x57e>
 54c:	69 74 65 20 69 6e 20 	imul   esi,DWORD PTR [ebp+eiz*2+0x20],0x66206e69
 553:	66 
 554:	69 6c 65 20 22 25 73 	imul   ebp,DWORD PTR [ebp+eiz*2+0x20],0x22732522
 55b:	22 
 55c:	20 2e                	and    BYTE PTR [esi],ch
 55e:	0a 00                	or     al,BYTE PTR [eax]
 560:	5b                   	pop    ebx
 561:	21 5d 20             	and    DWORD PTR [ebp+0x20],ebx
 564:	45                   	inc    ebp
 565:	72 72                	jb     5d9 <INT_SIZE_DATA+0x599>
 567:	6f                   	outs   dx,DWORD PTR ds:[esi]
 568:	72 20                	jb     58a <INT_SIZE_DATA+0x54a>
 56a:	72 65                	jb     5d1 <INT_SIZE_DATA+0x591>
 56c:	61                   	popa   
 56d:	64 20 66 6f          	and    BYTE PTR fs:[esi+0x6f],ah
 571:	72 6d                	jb     5e0 <INT_SIZE_DATA+0x5a0>
 573:	20 66 69             	and    BYTE PTR [esi+0x69],ah
 576:	6c                   	ins    BYTE PTR es:[edi],dx
 577:	65 20 22             	and    BYTE PTR gs:[edx],ah
 57a:	25 73 22 20 2e       	and    eax,0x2e202273
 57f:	0a 00                	or     al,BYTE PTR [eax]
 581:	00 00                	add    BYTE PTR [eax],al
 583:	00 5b 21             	add    BYTE PTR [ebx+0x21],bl
 586:	5d                   	pop    ebp
 587:	20 45 72             	and    BYTE PTR [ebp+0x72],al
 58a:	72 6f                	jb     5fb <INT_SIZE_DATA+0x5bb>
 58c:	72 20                	jb     5ae <INT_SIZE_DATA+0x56e>
 58e:	63 6c 6f 73          	arpl   WORD PTR [edi+ebp*2+0x73],bp
 592:	65 20 69 6e          	and    BYTE PTR gs:[ecx+0x6e],ch
 596:	70 75                	jo     60d <INT_SIZE_DATA+0x5cd>
 598:	74 20                	je     5ba <INT_SIZE_DATA+0x57a>
 59a:	73 74                	jae    610 <INT_SIZE_DATA+0x5d0>
 59c:	72 65                	jb     603 <INT_SIZE_DATA+0x5c3>
 59e:	61                   	popa   
 59f:	6d                   	ins    DWORD PTR es:[edi],dx
 5a0:	2e 0a 00             	or     al,BYTE PTR cs:[eax]
 5a3:	00 5b 21             	add    BYTE PTR [ebx+0x21],bl
 5a6:	5d                   	pop    ebp
 5a7:	20 45 72             	and    BYTE PTR [ebp+0x72],al
 5aa:	72 6f                	jb     61b <INT_SIZE_DATA+0x5db>
 5ac:	72 20                	jb     5ce <INT_SIZE_DATA+0x58e>
 5ae:	63 6c 6f 73          	arpl   WORD PTR [edi+ebp*2+0x73],bp
 5b2:	65 20 6f 75          	and    BYTE PTR gs:[edi+0x75],ch
 5b6:	74 70                	je     628 <INT_SIZE_DATA+0x5e8>
 5b8:	75 74                	jne    62e <INT_SIZE_DATA+0x5ee>
 5ba:	20 73 74             	and    BYTE PTR [ebx+0x74],dh
 5bd:	72 65                	jb     624 <INT_SIZE_DATA+0x5e4>
 5bf:	61                   	popa   
 5c0:	6d                   	ins    DWORD PTR es:[edi],dx
 5c1:	2e 0a 00             	or     al,BYTE PTR cs:[eax]
 5c4:	5b                   	pop    ebx
 5c5:	21 5d 20             	and    DWORD PTR [ebp+0x20],ebx
 5c8:	53                   	push   ebx
 5c9:	69 7a 65 20 6f 66 20 	imul   edi,DWORD PTR [edx+0x65],0x20666f20
 5d0:	66 69 6c 65 20 66 6f 	imul   bp,WORD PTR [ebp+eiz*2+0x20],0x6f66
 5d7:	72 20                	jb     5f9 <INT_SIZE_DATA+0x5b9>
 5d9:	64 65 63 72 79       	fs arpl WORD PTR gs:[edx+0x79],si
 5de:	70 74                	jo     654 <INT_SIZE_DATA+0x614>
 5e0:	20 22                	and    BYTE PTR [edx],ah
 5e2:	25 73 22 20 69       	and    eax,0x69202273
 5e7:	6e                   	outs   dx,BYTE PTR ds:[esi]
 5e8:	63 6f 72             	arpl   WORD PTR [edi+0x72],bp
 5eb:	72 65                	jb     652 <INT_SIZE_DATA+0x612>
 5ed:	63 74 2e 0a          	arpl   WORD PTR [esi+ebp*1+0xa],si
 5f1:	00 00                	add    BYTE PTR [eax],al
 5f3:	00 5b 21             	add    BYTE PTR [ebx+0x21],bl
 5f6:	5d                   	pop    ebp
 5f7:	20 43 61             	and    BYTE PTR [ebx+0x61],al
 5fa:	6e                   	outs   dx,BYTE PTR ds:[esi]
 5fb:	6e                   	outs   dx,BYTE PTR ds:[esi]
 5fc:	6f                   	outs   dx,DWORD PTR ds:[esi]
 5fd:	74 20                	je     61f <INT_SIZE_DATA+0x5df>
 5ff:	61                   	popa   
 600:	6c                   	ins    BYTE PTR es:[edi],dx
 601:	6c                   	ins    BYTE PTR es:[edi],dx
 602:	6f                   	outs   dx,DWORD PTR ds:[esi]
 603:	63 61 74             	arpl   WORD PTR [ecx+0x74],sp
 606:	65 20 6d 65          	and    BYTE PTR gs:[ebp+0x65],ch
 60a:	6d                   	ins    DWORD PTR es:[edi],dx
 60b:	6f                   	outs   dx,DWORD PTR ds:[esi]
 60c:	72 79                	jb     687 <INT_SIZE_DATA+0x647>
 60e:	20 66 6f             	and    BYTE PTR [esi+0x6f],ah
 611:	72 20                	jb     633 <INT_SIZE_DATA+0x5f3>
 613:	72 65                	jb     67a <INT_SIZE_DATA+0x63a>
 615:	2d 6b 65 79 69       	sub    eax,0x6979656b
 61a:	6e                   	outs   dx,BYTE PTR ds:[esi]
 61b:	67 2e 0a 00          	or     al,BYTE PTR cs:[bx+si]
	...
 647:	00 5b 24             	add    BYTE PTR [ebx+0x24],bl
 64a:	5d                   	pop    ebp
 64b:	20 45 6e             	and    BYTE PTR [ebp+0x6e],al
 64e:	74 65                	je     6b5 <INT_SIZE_DATA+0x675>
 650:	72 20                	jb     672 <INT_SIZE_DATA+0x632>
 652:	70 61                	jo     6b5 <INT_SIZE_DATA+0x675>
 654:	73 73                	jae    6c9 <INT_SIZE_DATA+0x689>
 656:	77 6f                	ja     6c7 <INT_SIZE_DATA+0x687>
 658:	72 64                	jb     6be <INT_SIZE_DATA+0x67e>
 65a:	20 6f 72             	and    BYTE PTR [edi+0x72],ch
 65d:	20 6e 61             	and    BYTE PTR [esi+0x61],ch
 660:	6d                   	ins    DWORD PTR es:[edi],dx
 661:	65 20 6b 65          	and    BYTE PTR gs:[ebx+0x65],ch
 665:	79 66                	jns    6cd <INT_SIZE_DATA+0x68d>
 667:	69 6c 65 3a 00 5b 58 	imul   ebp,DWORD PTR [ebp+eiz*2+0x3a],0x5d585b00
 66e:	5d 
 66f:	20 50 61             	and    BYTE PTR [eax+0x61],dl
 672:	73 73                	jae    6e7 <INT_SIZE_DATA+0x6a7>
 674:	77 6f                	ja     6e5 <INT_SIZE_DATA+0x6a5>
 676:	72 64                	jb     6dc <INT_SIZE_DATA+0x69c>
 678:	20 6e 6f             	and    BYTE PTR [esi+0x6f],ch
 67b:	74 20                	je     69d <INT_SIZE_DATA+0x65d>
 67d:	72 65                	jb     6e4 <INT_SIZE_DATA+0x6a4>
 67f:	61                   	popa   
 680:	64 20 66 72          	and    BYTE PTR fs:[esi+0x72],ah
 684:	6f                   	outs   dx,DWORD PTR ds:[esi]
 685:	6d                   	ins    DWORD PTR es:[edi],dx
 686:	20 63 6f             	and    BYTE PTR [ebx+0x6f],ah
 689:	6d                   	ins    DWORD PTR es:[edi],dx
 68a:	6d                   	ins    DWORD PTR es:[edi],dx
 68b:	61                   	popa   
 68c:	6e                   	outs   dx,BYTE PTR ds:[esi]
 68d:	64 20 6c 69 6e       	and    BYTE PTR fs:[ecx+ebp*2+0x6e],ch
 692:	65 2e 0a 00          	gs or  al,BYTE PTR cs:[eax]
 696:	5b                   	pop    ebx
 697:	58                   	pop    eax
 698:	5d                   	pop    ebp
 699:	20 4e 6f             	and    BYTE PTR [esi+0x6f],cl
 69c:	74 20                	je     6be <INT_SIZE_DATA+0x67e>
 69e:	74 65                	je     705 <INT_SIZE_DATA+0x6c5>
 6a0:	72 6d                	jb     70f <INT_SIZE_DATA+0x6cf>
 6a2:	69 6e 61 6c 21 0a 00 	imul   ebp,DWORD PTR [esi+0x61],0xa216c
 6a9:	00 00                	add    BYTE PTR [eax],al
 6ab:	00 5b 21             	add    BYTE PTR [ebx+0x21],bl
 6ae:	5d                   	pop    ebp
 6af:	20 57 61             	and    BYTE PTR [edi+0x61],dl
 6b2:	72 6e                	jb     722 <INT_SIZE_DATA+0x6e2>
 6b4:	69 6e 67 3a 20 61 72 	imul   ebp,DWORD PTR [esi+0x67],0x7261203a
 6bb:	67 75 6d             	addr16 jne 72b <INT_SIZE_DATA+0x6eb>
 6be:	65 6e                	outs   dx,BYTE PTR gs:[esi]
 6c0:	74 20                	je     6e2 <INT_SIZE_DATA+0x6a2>
 6c2:	22 25 64 22 20 6c    	and    ah,BYTE PTR ds:0x6c202264
 6c8:	65 6e                	outs   dx,BYTE PTR gs:[esi]
 6ca:	67 74 68             	addr16 je 735 <INT_SIZE_DATA+0x6f5>
 6cd:	20 6d 6f             	and    BYTE PTR [ebp+0x6f],ch
 6d0:	72 65                	jb     737 <INT_SIZE_DATA+0x6f7>
 6d2:	20 22                	and    BYTE PTR [edx],ah
 6d4:	25 64 22 21 0a       	and    eax,0xa212264
 6d9:	00 00                	add    BYTE PTR [eax],al
 6db:	00 5b 21             	add    BYTE PTR [ebx+0x21],bl
 6de:	5d                   	pop    ebp
 6df:	20 45 72             	and    BYTE PTR [ebp+0x72],al
 6e2:	72 6f                	jb     753 <INT_SIZE_DATA+0x713>
 6e4:	72 3a                	jb     720 <INT_SIZE_DATA+0x6e0>
 6e6:	20 63 6f             	and    BYTE PTR [ebx+0x6f],ah
 6e9:	75 6e                	jne    759 <INT_SIZE_DATA+0x719>
 6eb:	74 20                	je     70d <INT_SIZE_DATA+0x6cd>
 6ed:	61                   	popa   
 6ee:	72 67                	jb     757 <INT_SIZE_DATA+0x717>
 6f0:	75 6d                	jne    75f <INT_SIZE_DATA+0x71f>
 6f2:	65 6e                	outs   dx,BYTE PTR gs:[esi]
 6f4:	74 73                	je     769 <INT_SIZE_DATA+0x729>
 6f6:	20 25 64 3b 20 6e    	and    BYTE PTR ds:0x6e203b64,ah
 6fc:	65 63 65 73          	arpl   WORD PTR gs:[ebp+0x73],sp
 700:	73 61                	jae    763 <INT_SIZE_DATA+0x723>
 702:	72 79                	jb     77d <INT_SIZE_DATA+0x73d>
 704:	20 74 6f 20          	and    BYTE PTR [edi+ebp*2+0x20],dh
 708:	32 20                	xor    ah,BYTE PTR [eax]
 70a:	64 6f                	outs   dx,DWORD PTR fs:[esi]
 70c:	20 37                	and    BYTE PTR [edi],dh
 70e:	20 73 74             	and    BYTE PTR [ebx+0x74],dh
 711:	72 69                	jb     77c <INT_SIZE_DATA+0x73c>
 713:	6e                   	outs   dx,BYTE PTR ds:[esi]
 714:	67 73 2e             	addr16 jae 745 <INT_SIZE_DATA+0x705>
 717:	0a 00                	or     al,BYTE PTR [eax]
 719:	2d 68 00 2d 2d       	sub    eax,0x2d2d0068
 71e:	68 65 6c 70 00       	push   0x706c65
 723:	00 54 68 69          	add    BYTE PTR [eax+ebp*2+0x69],dl
 727:	73 20                	jae    749 <INT_SIZE_DATA+0x709>
 729:	69 73 20 73 6f 66 74 	imul   esi,DWORD PTR [ebx+0x20],0x74666f73
 730:	77 61                	ja     793 <INT_SIZE_DATA+0x753>
 732:	72 65                	jb     799 <INT_SIZE_DATA+0x759>
 734:	20 66 6f             	and    BYTE PTR [esi+0x6f],ah
 737:	72 20                	jb     759 <INT_SIZE_DATA+0x719>
 739:	65 6e                	outs   dx,BYTE PTR gs:[esi]
 73b:	63 72 79             	arpl   WORD PTR [edx+0x79],si
 73e:	70 74                	jo     7b4 <INT_SIZE_DATA+0x774>
 740:	2f                   	das    
 741:	64 65 63 72 79       	fs arpl WORD PTR gs:[edx+0x79],si
 746:	70 74                	jo     7bc <INT_SIZE_DATA+0x77c>
 748:	20 66 69             	and    BYTE PTR [esi+0x69],ah
 74b:	6c                   	ins    BYTE PTR es:[edi],dx
 74c:	65 73 2e             	gs jae 77d <INT_SIZE_DATA+0x73d>
 74f:	0a 00                	or     al,BYTE PTR [eax]
 751:	00 00                	add    BYTE PTR [eax],al
 753:	00 41 6c             	add    BYTE PTR [ecx+0x6c],al
 756:	67 6f                	outs   dx,DWORD PTR ds:[si]
 758:	72 69                	jb     7c3 <INT_SIZE_DATA+0x783>
 75a:	74 6d                	je     7c9 <INT_SIZE_DATA+0x789>
 75c:	73 3a                	jae    798 <INT_SIZE_DATA+0x758>
 75e:	0a 09                	or     cl,BYTE PTR [ecx]
 760:	2d 72 2f 2d 2d       	sub    eax,0x2d2d2f72
 765:	61                   	popa   
 766:	65 73 0a             	gs jae 773 <INT_SIZE_DATA+0x733>
 769:	09 2d 73 2f 2d 2d    	or     DWORD PTR ds:0x2d2d2f73,ebp
 76f:	73 65                	jae    7d6 <INT_SIZE_DATA+0x796>
 771:	72 70                	jb     7e3 <INT_SIZE_DATA+0x7a3>
 773:	65 6e                	outs   dx,BYTE PTR gs:[esi]
 775:	74 0a                	je     781 <INT_SIZE_DATA+0x741>
 777:	09 2d 77 2f 2d 2d    	or     DWORD PTR ds:0x2d2d2f77,ebp
 77d:	74 77                	je     7f6 <INT_SIZE_DATA+0x7b6>
 77f:	6f                   	outs   dx,DWORD PTR ds:[esi]
 780:	66 69 73 68 0a 09    	imul   si,WORD PTR [ebx+0x68],0x90a
 786:	2d 62 2f 2d 2d       	sub    eax,0x2d2d2f62
 78b:	62 6c 6f 77          	bound  ebp,QWORD PTR [edi+ebp*2+0x77]
 78f:	66 69 73 68 0a 09    	imul   si,WORD PTR [ebx+0x68],0x90a
 795:	2d 74 2f 2d 2d       	sub    eax,0x2d2d2f74
 79a:	74 68                	je     804 <INT_SIZE_DATA+0x7c4>
 79c:	72 65                	jb     803 <INT_SIZE_DATA+0x7c3>
 79e:	65 66 69 73 68 00 4f 	imul   si,WORD PTR gs:[ebx+0x68],0x4f00
 7a5:	70 65                	jo     80c <INT_SIZE_DATA+0x7cc>
 7a7:	72 61                	jb     80a <INT_SIZE_DATA+0x7ca>
 7a9:	74 69                	je     814 <INT_SIZE_DATA+0x7d4>
 7ab:	6f                   	outs   dx,DWORD PTR ds:[esi]
 7ac:	6e                   	outs   dx,BYTE PTR ds:[esi]
 7ad:	73 3a                	jae    7e9 <INT_SIZE_DATA+0x7a9>
 7af:	0a 09                	or     cl,BYTE PTR [ecx]
 7b1:	2d 65 2f 2d 2d       	sub    eax,0x2d2d2f65
 7b6:	65 6e                	outs   dx,BYTE PTR gs:[esi]
 7b8:	63 72 79             	arpl   WORD PTR [edx+0x79],si
 7bb:	70 74                	jo     831 <INT_SIZE_DATA+0x7f1>
 7bd:	0a 09                	or     cl,BYTE PTR [ecx]
 7bf:	2d 64 2f 2d 2d       	sub    eax,0x2d2d2f64
 7c4:	64 65 63 72 79       	fs arpl WORD PTR gs:[edx+0x79],si
 7c9:	70 74                	jo     83f <INT_SIZE_DATA+0x7ff>
 7cb:	00 4c 65 6e          	add    BYTE PTR [ebp+eiz*2+0x6e],cl
 7cf:	67 74 68             	addr16 je 83a <INT_SIZE_DATA+0x7fa>
 7d2:	73 20                	jae    7f4 <INT_SIZE_DATA+0x7b4>
 7d4:	6b 65 79 3a          	imul   esp,DWORD PTR [ebp+0x79],0x3a
 7d8:	0a 09                	or     cl,BYTE PTR [ecx]
 7da:	2d 61 2f 2d 2d       	sub    eax,0x2d2d2f61
 7df:	31 32                	xor    DWORD PTR [edx],esi
 7e1:	38 2f                	cmp    BYTE PTR [edi],ch
 7e3:	2d 2d 32 35 36       	sub    eax,0x3635322d
 7e8:	0a 09                	or     cl,BYTE PTR [ecx]
 7ea:	2d 62 2f 2d 2d       	sub    eax,0x2d2d2f62
 7ef:	31 39                	xor    DWORD PTR [ecx],edi
 7f1:	32 2f                	xor    ch,BYTE PTR [edi]
 7f3:	2d 2d 35 31 32       	sub    eax,0x3231352d
 7f8:	0a 09                	or     cl,BYTE PTR [ecx]
 7fa:	2d 63 2f 2d 2d       	sub    eax,0x2d2d2f63
 7ff:	32 35 36 2f 2d 2d    	xor    dh,BYTE PTR ds:0x2d2d2f36
 805:	31 30                	xor    DWORD PTR [eax],esi
 807:	32 34 0a             	xor    dh,BYTE PTR [edx+ecx*1]
 80a:	00 00                	add    BYTE PTR [eax],al
 80c:	45                   	inc    ebp
 80d:	6e                   	outs   dx,BYTE PTR ds:[esi]
 80e:	74 65                	je     875 <INT_SIZE_DATA+0x835>
 810:	72 3a                	jb     84c <INT_SIZE_DATA+0x80c>
 812:	20 25 73 20 5b 61    	and    BYTE PTR ds:0x615b2073,ah
 818:	6c                   	ins    BYTE PTR es:[edi],dx
 819:	67 6f                	outs   dx,DWORD PTR ds:[si]
 81b:	72 69                	jb     886 <INT_SIZE_DATA+0x846>
 81d:	74 6d                	je     88c <INT_SIZE_DATA+0x84c>
 81f:	5d                   	pop    ebp
 820:	20 5b 6f             	and    BYTE PTR [ebx+0x6f],bl
 823:	70 65                	jo     88a <INT_SIZE_DATA+0x84a>
 825:	72 61                	jb     888 <INT_SIZE_DATA+0x848>
 827:	74 69                	je     892 <INT_SIZE_DATA+0x852>
 829:	6f                   	outs   dx,DWORD PTR ds:[esi]
 82a:	6e                   	outs   dx,BYTE PTR ds:[esi]
 82b:	5d                   	pop    ebp
 82c:	20 5b 6b             	and    BYTE PTR [ebx+0x6b],bl
 82f:	65 79 20             	gs jns 852 <INT_SIZE_DATA+0x812>
 832:	6c                   	ins    BYTE PTR es:[edi],dx
 833:	65 6e                	outs   dx,BYTE PTR gs:[esi]
 835:	67 74 68             	addr16 je 8a0 <INT_SIZE_DATA+0x860>
 838:	5d                   	pop    ebp
 839:	20 5b 69             	and    BYTE PTR [ebx+0x69],bl
 83c:	6e                   	outs   dx,BYTE PTR ds:[esi]
 83d:	70 75                	jo     8b4 <INT_SIZE_DATA+0x874>
 83f:	74 20                	je     861 <INT_SIZE_DATA+0x821>
 841:	66 69 6c 65 6e 61 6d 	imul   bp,WORD PTR [ebp+eiz*2+0x6e],0x6d61
 848:	65 5d                	gs pop ebp
 84a:	20 5b 6f             	and    BYTE PTR [ebx+0x6f],bl
 84d:	75 74                	jne    8c3 <INT_SIZE_DATA+0x883>
 84f:	70 75                	jo     8c6 <INT_SIZE_DATA+0x886>
 851:	74 20                	je     873 <INT_SIZE_DATA+0x833>
 853:	66 69 6c 65 6e 61 6d 	imul   bp,WORD PTR [ebp+eiz*2+0x6e],0x6d61
 85a:	65 5d                	gs pop ebp
 85c:	0a 00                	or     al,BYTE PTR [eax]
 85e:	00 00                	add    BYTE PTR [eax],al
 860:	5b                   	pop    ebx
 861:	21 5d 20             	and    DWORD PTR [ebp+0x20],ebx
 864:	49                   	dec    ecx
 865:	6e                   	outs   dx,BYTE PTR ds:[esi]
 866:	63 6f 72             	arpl   WORD PTR [edi+0x72],bp
 869:	72 65                	jb     8d0 <INT_SIZE_DATA+0x890>
 86b:	63 74 20 70          	arpl   WORD PTR [eax+eiz*1+0x70],si
 86f:	61                   	popa   
 870:	72 61                	jb     8d3 <INT_SIZE_DATA+0x893>
 872:	6d                   	ins    DWORD PTR es:[edi],dx
 873:	65 74 65             	gs je  8db <INT_SIZE_DATA+0x89b>
 876:	72 20                	jb     898 <INT_SIZE_DATA+0x858>
 878:	22 25 73 22 21 20    	and    ah,BYTE PTR ds:0x20212273
 87e:	4f                   	dec    edi
 87f:	6e                   	outs   dx,BYTE PTR ds:[esi]
 880:	6c                   	ins    BYTE PTR es:[edi],dx
 881:	79 20                	jns    8a3 <INT_SIZE_DATA+0x863>
 883:	22 2d 68 22 20 6f    	and    ch,BYTE PTR ds:0x6f202268
 889:	72 20                	jb     8ab <INT_SIZE_DATA+0x86b>
 88b:	22 2d 2d 68 65 6c    	and    ch,BYTE PTR ds:0x6c65682d
 891:	70 22                	jo     8b5 <INT_SIZE_DATA+0x875>
 893:	2e 0a 00             	or     al,BYTE PTR cs:[eax]
 896:	31 37                	xor    DWORD PTR [edi],esi
 898:	3a 34 36             	cmp    dh,BYTE PTR [esi+esi*1]
 89b:	3a 35 39 00 4a 75    	cmp    dh,BYTE PTR ds:0x754a0039
 8a1:	6c                   	ins    BYTE PTR es:[edi],dx
 8a2:	20 33                	and    BYTE PTR [ebx],dh
 8a4:	31 20                	xor    DWORD PTR [eax],esp
 8a6:	32 30                	xor    dh,BYTE PTR [eax]
 8a8:	32 34 00             	xor    dh,BYTE PTR [eax+eax*1]
 8ab:	00 5b 44             	add    BYTE PTR [ebx+0x44],bl
 8ae:	45                   	inc    ebp
 8af:	42                   	inc    edx
 8b0:	55                   	push   ebp
 8b1:	47                   	inc    edi
 8b2:	5d                   	pop    ebp
 8b3:	20 63 6f             	and    BYTE PTR [ebx+0x6f],ah
 8b6:	6d                   	ins    DWORD PTR es:[edi],dx
 8b7:	70 69                	jo     922 <INT_SIZE_DATA+0x8e2>
 8b9:	6c                   	ins    BYTE PTR es:[edi],dx
 8ba:	65 20 64 61 74       	and    BYTE PTR gs:[ecx+eiz*2+0x74],ah
 8bf:	65 20 61 6e          	and    BYTE PTR gs:[ecx+0x6e],ah
 8c3:	64 20 74 69 6d       	and    BYTE PTR fs:[ecx+ebp*2+0x6d],dh
 8c8:	65 3a 20             	cmp    ah,BYTE PTR gs:[eax]
 8cb:	20 20                	and    BYTE PTR [eax],ah
 8cd:	25 73 2c 20 25       	and    eax,0x25202c73
 8d2:	73 0a                	jae    8de <INT_SIZE_DATA+0x89e>
 8d4:	00 00                	add    BYTE PTR [eax],al
 8d6:	00 00                	add    BYTE PTR [eax],al
 8d8:	5b                   	pop    ebx
 8d9:	44                   	inc    esp
 8da:	45                   	inc    ebp
 8db:	42                   	inc    edx
 8dc:	55                   	push   ebp
 8dd:	47                   	inc    edi
 8de:	5d                   	pop    ebp
 8df:	20 67 6c             	and    BYTE PTR [edi+0x6c],ah
 8e2:	6f                   	outs   dx,DWORD PTR ds:[esi]
 8e3:	62 61 6c             	bound  esp,QWORD PTR [ecx+0x6c]
 8e6:	20 6d 65             	and    BYTE PTR [ebp+0x65],ch
 8e9:	6d                   	ins    DWORD PTR es:[edi],dx
 8ea:	6f                   	outs   dx,DWORD PTR ds:[esi]
 8eb:	72 79                	jb     966 <INT_SIZE_DATA+0x926>
 8ed:	20 61 6c             	and    BYTE PTR [ecx+0x6c],ah
 8f0:	6c                   	ins    BYTE PTR es:[edi],dx
 8f1:	6f                   	outs   dx,DWORD PTR ds:[esi]
 8f2:	63 61 74             	arpl   WORD PTR [ecx+0x74],sp
 8f5:	65 64 3a 20          	gs cmp ah,BYTE PTR fs:[eax]
 8f9:	25 75 20 62 79       	and    eax,0x79622075
 8fe:	74 65                	je     965 <INT_SIZE_DATA+0x925>
 900:	0a 00                	or     al,BYTE PTR [eax]
 902:	00 00                	add    BYTE PTR [eax],al
 904:	5b                   	pop    ebx
 905:	44                   	inc    esp
 906:	45                   	inc    ebp
 907:	42                   	inc    edx
 908:	55                   	push   ebp
 909:	47                   	inc    edi
 90a:	5d                   	pop    ebp
 90b:	20 67 6c             	and    BYTE PTR [edi+0x6c],ah
 90e:	6f                   	outs   dx,DWORD PTR ds:[esi]
 90f:	62 61 6c             	bound  esp,QWORD PTR [ecx+0x6c]
 912:	20 6d 65             	and    BYTE PTR [ebp+0x65],ch
 915:	6d                   	ins    DWORD PTR es:[edi],dx
 916:	6f                   	outs   dx,DWORD PTR ds:[esi]
 917:	72 79                	jb     992 <INT_SIZE_DATA+0x952>
 919:	20 70 6f             	and    BYTE PTR [eax+0x6f],dh
 91c:	69 6e 74 65 72 3a 20 	imul   ebp,DWORD PTR [esi+0x74],0x203a7265
 923:	20 20                	and    BYTE PTR [eax],ah
 925:	25 70 0a 00 00       	and    eax,0xa70
 92a:	00 00                	add    BYTE PTR [eax],al
 92c:	5b                   	pop    ebx
 92d:	44                   	inc    esp
 92e:	45                   	inc    ebp
 92f:	42                   	inc    edx
 930:	55                   	push   ebp
 931:	47                   	inc    edi
 932:	5d                   	pop    ebp
 933:	20 73 69             	and    BYTE PTR [ebx+0x69],dh
 936:	7a 65                	jp     99d <INT_SIZE_DATA+0x95d>
 938:	20 73 74             	and    BYTE PTR [ebx+0x74],dh
 93b:	72 75                	jb     9b2 <INT_SIZE_DATA+0x972>
 93d:	63 74 20 66          	arpl   WORD PTR [eax+eiz*1+0x66],si
 941:	6f                   	outs   dx,DWORD PTR ds:[esi]
 942:	72 20                	jb     964 <INT_SIZE_DATA+0x924>
 944:	73 68                	jae    9ae <INT_SIZE_DATA+0x96e>
 946:	61                   	popa   
 947:	32 35 36 73 75 6d    	xor    dh,BYTE PTR ds:0x6d757336
 94d:	20 66 75             	and    BYTE PTR [esi+0x75],ah
 950:	6e                   	outs   dx,BYTE PTR ds:[esi]
 951:	63 74 69 6f          	arpl   WORD PTR [ecx+ebp*2+0x6f],si
 955:	6e                   	outs   dx,BYTE PTR ds:[esi]
 956:	3a 20                	cmp    ah,BYTE PTR [eax]
 958:	25 75 20 62 79       	and    eax,0x79622075
 95d:	74 65                	je     9c4 <INT_SIZE_DATA+0x984>
 95f:	0a 00                	or     al,BYTE PTR [eax]
 961:	00 00                	add    BYTE PTR [eax],al
 963:	00 5b 44             	add    BYTE PTR [ebx+0x44],bl
 966:	45                   	inc    ebp
 967:	42                   	inc    edx
 968:	55                   	push   ebp
 969:	47                   	inc    edi
 96a:	5d                   	pop    ebp
 96b:	20 73 68             	and    BYTE PTR [ebx+0x68],dh
 96e:	61                   	popa   
 96f:	32 35 36 73 75 6d    	xor    dh,BYTE PTR ds:0x6d757336
 975:	20 73 74             	and    BYTE PTR [ebx+0x74],dh
 978:	72 75                	jb     9ef <INT_SIZE_DATA+0x9af>
 97a:	63 74 20 63          	arpl   WORD PTR [eax+eiz*1+0x63],si
 97e:	72 65                	jb     9e5 <INT_SIZE_DATA+0x9a5>
 980:	61                   	popa   
 981:	74 65                	je     9e8 <INT_SIZE_DATA+0x9a8>
 983:	20 69 6e             	and    BYTE PTR [ecx+0x6e],ch
 986:	20 70 6f             	and    BYTE PTR [eax+0x6f],dh
 989:	69 6e 74 65 72 3a 20 	imul   ebp,DWORD PTR [esi+0x74],0x203a7265
 990:	25 70 0a 00 5b       	and    eax,0x5b000a70
 995:	44                   	inc    esp
 996:	45                   	inc    ebp
 997:	42                   	inc    edx
 998:	55                   	push   ebp
 999:	47                   	inc    edi
 99a:	5d                   	pop    ebp
 99b:	20 6d 61             	and    BYTE PTR [ebp+0x61],ch
 99e:	78 69                	js     a09 <INT_SIZE_DATA+0x9c9>
 9a0:	6d                   	ins    DWORD PTR es:[edi],dx
 9a1:	61                   	popa   
 9a2:	6c                   	ins    BYTE PTR es:[edi],dx
 9a3:	20 6c 65 6e          	and    BYTE PTR [ebp+eiz*2+0x6e],ch
 9a7:	67 74 68             	addr16 je a12 <INT_SIZE_DATA+0x9d2>
 9aa:	20 70 61             	and    BYTE PTR [eax+0x61],dh
 9ad:	73 73                	jae    a22 <INT_SIZE_DATA+0x9e2>
 9af:	77 6f                	ja     a20 <INT_SIZE_DATA+0x9e0>
 9b1:	72 64                	jb     a17 <INT_SIZE_DATA+0x9d7>
 9b3:	20 6f 72             	and    BYTE PTR [edi+0x72],ch
 9b6:	20 6e 61             	and    BYTE PTR [esi+0x61],ch
 9b9:	6d                   	ins    DWORD PTR es:[edi],dx
 9ba:	65 20 6b 65          	and    BYTE PTR gs:[ebx+0x65],ch
 9be:	79 66                	jns    a26 <INT_SIZE_DATA+0x9e6>
 9c0:	69 6c 65 3a 20 25 75 	imul   ebp,DWORD PTR [ebp+eiz*2+0x3a],0x20752520
 9c7:	20 
 9c8:	62 79 74             	bound  edi,QWORD PTR [ecx+0x74]
 9cb:	65 0a 00             	or     al,BYTE PTR gs:[eax]
 9ce:	00 00                	add    BYTE PTR [eax],al
 9d0:	5b                   	pop    ebx
 9d1:	44                   	inc    esp
 9d2:	45                   	inc    ebp
 9d3:	42                   	inc    edx
 9d4:	55                   	push   ebp
 9d5:	47                   	inc    edi
 9d6:	5d                   	pop    ebp
 9d7:	20 70 6f             	and    BYTE PTR [eax+0x6f],dh
 9da:	69 6e 74 65 72 20 6f 	imul   ebp,DWORD PTR [esi+0x74],0x6f207265
 9e1:	66 20 6d 65          	data16 and BYTE PTR [ebp+0x65],ch
 9e5:	6d                   	ins    DWORD PTR es:[edi],dx
 9e6:	6f                   	outs   dx,DWORD PTR ds:[esi]
 9e7:	72 79                	jb     a62 <INT_SIZE_DATA+0xa22>
 9e9:	20 66 6f             	and    BYTE PTR [esi+0x6f],ah
 9ec:	72 20                	jb     a0e <INT_SIZE_DATA+0x9ce>
 9ee:	70 61                	jo     a51 <INT_SIZE_DATA+0xa11>
 9f0:	73 73                	jae    a65 <INT_SIZE_DATA+0xa25>
 9f2:	77 6f                	ja     a63 <INT_SIZE_DATA+0xa23>
 9f4:	72 64                	jb     a5a <INT_SIZE_DATA+0xa1a>
 9f6:	20 6f 72             	and    BYTE PTR [edi+0x72],ch
 9f9:	20 6e 61             	and    BYTE PTR [esi+0x61],ch
 9fc:	6d                   	ins    DWORD PTR es:[edi],dx
 9fd:	65 20 6b 65          	and    BYTE PTR gs:[ebx+0x65],ch
 a01:	79 66                	jns    a69 <INT_SIZE_DATA+0xa29>
 a03:	69 6c 65 3a 20 25 70 	imul   ebp,DWORD PTR [ebp+eiz*2+0x3a],0xa702520
 a0a:	0a 
 a0b:	00 2d 62 00 2d 2d    	add    BYTE PTR ds:0x2d2d0062,ch
 a11:	62 6c 6f 77          	bound  ebp,QWORD PTR [edi+ebp*2+0x77]
 a15:	66 69 73 68 00 2d    	imul   si,WORD PTR [ebx+0x68],0x2d00
 a1b:	74 00                	je     a1d <INT_SIZE_DATA+0x9dd>
 a1d:	2d 2d 74 68 72       	sub    eax,0x7268742d
 a22:	65 65 66 69 73 68 00 	gs imul si,WORD PTR gs:[ebx+0x68],0x2d00
 a29:	2d 
 a2a:	72 00                	jb     a2c <INT_SIZE_DATA+0x9ec>
 a2c:	2d 2d 61 65 73       	sub    eax,0x7365612d
 a31:	00 2d 73 00 2d 2d    	add    BYTE PTR ds:0x2d2d0073,ch
 a37:	73 65                	jae    a9e <INT_SIZE_DATA+0xa5e>
 a39:	72 70                	jb     aab <INT_SIZE_DATA+0xa6b>
 a3b:	65 6e                	outs   dx,BYTE PTR gs:[esi]
 a3d:	74 00                	je     a3f <INT_SIZE_DATA+0x9ff>
 a3f:	2d 77 00 2d 2d       	sub    eax,0x2d2d0077
 a44:	74 77                	je     abd <INT_SIZE_DATA+0xa7d>
 a46:	6f                   	outs   dx,DWORD PTR ds:[esi]
 a47:	66 69 73 68 00 5b    	imul   si,WORD PTR [ebx+0x68],0x5b00
 a4d:	21 5d 20             	and    DWORD PTR [ebp+0x20],ebx
 a50:	4e                   	dec    esi
 a51:	61                   	popa   
 a52:	6d                   	ins    DWORD PTR es:[edi],dx
 a53:	65 20 63 69          	and    BYTE PTR gs:[ebx+0x69],ah
 a57:	70 68                	jo     ac1 <INT_SIZE_DATA+0xa81>
 a59:	65 72 20             	gs jb  a7c <INT_SIZE_DATA+0xa3c>
 a5c:	22 25 73 22 20 69    	and    ah,BYTE PTR ds:0x69202273
 a62:	6e                   	outs   dx,BYTE PTR ds:[esi]
 a63:	63 6f 72             	arpl   WORD PTR [edi+0x72],bp
 a66:	72 65                	jb     acd <INT_SIZE_DATA+0xa8d>
 a68:	63 74 2e 0a          	arpl   WORD PTR [esi+ebp*1+0xa],si
 a6c:	00 2d 65 00 2d 2d    	add    BYTE PTR ds:0x2d2d0065,ch
 a72:	65 6e                	outs   dx,BYTE PTR gs:[esi]
 a74:	63 72 79             	arpl   WORD PTR [edx+0x79],si
 a77:	70 74                	jo     aed <INT_SIZE_DATA+0xaad>
 a79:	00 2d 64 00 2d 2d    	add    BYTE PTR ds:0x2d2d0064,ch
 a7f:	64 65 63 72 79       	fs arpl WORD PTR gs:[edx+0x79],si
 a84:	70 74                	jo     afa <INT_SIZE_DATA+0xaba>
 a86:	00 00                	add    BYTE PTR [eax],al
 a88:	5b                   	pop    ebx
 a89:	21 5d 20             	and    DWORD PTR [ebp+0x20],ebx
 a8c:	4f                   	dec    edi
 a8d:	70 65                	jo     af4 <INT_SIZE_DATA+0xab4>
 a8f:	72 61                	jb     af2 <INT_SIZE_DATA+0xab2>
 a91:	74 69                	je     afc <INT_SIZE_DATA+0xabc>
 a93:	6f                   	outs   dx,DWORD PTR ds:[esi]
 a94:	6e                   	outs   dx,BYTE PTR ds:[esi]
 a95:	20 22                	and    BYTE PTR [edx],ah
 a97:	25 73 22 20 69       	and    eax,0x69202273
 a9c:	6e                   	outs   dx,BYTE PTR ds:[esi]
 a9d:	63 6f 72             	arpl   WORD PTR [edi+0x72],bp
 aa0:	72 65                	jb     b07 <INT_SIZE_DATA+0xac7>
 aa2:	63 74 2e 0a          	arpl   WORD PTR [esi+ebp*1+0xa],si
 aa6:	00 2d 61 00 2d 2d    	add    BYTE PTR ds:0x2d2d0061,ch
 aac:	31 32                	xor    DWORD PTR [edx],esi
 aae:	38 00                	cmp    BYTE PTR [eax],al
 ab0:	2d 2d 31 39 32       	sub    eax,0x3239312d
 ab5:	00 2d 63 00 2d 2d    	add    BYTE PTR ds:0x2d2d0063,ch
 abb:	32 35 36 00 00 5b    	xor    dh,BYTE PTR ds:0x5b000036
 ac1:	21 5d 20             	and    DWORD PTR [ebp+0x20],ebx
 ac4:	4b                   	dec    ebx
 ac5:	65 79 20             	gs jns ae8 <INT_SIZE_DATA+0xaa8>
 ac8:	6c                   	ins    BYTE PTR es:[edi],dx
 ac9:	65 6e                	outs   dx,BYTE PTR gs:[esi]
 acb:	67 74 68             	addr16 je b36 <INT_SIZE_DATA+0xaf6>
 ace:	20 22                	and    BYTE PTR [edx],ah
 ad0:	25 73 22 20 69       	and    eax,0x69202273
 ad5:	6e                   	outs   dx,BYTE PTR ds:[esi]
 ad6:	63 6f 72             	arpl   WORD PTR [edi+0x72],bp
 ad9:	72 65                	jb     b40 <INT_SIZE_DATA+0xb00>
 adb:	63 74 2e 0a          	arpl   WORD PTR [esi+ebp*1+0xa],si
 adf:	00 2d 2d 35 31 32    	add    BYTE PTR ds:0x3231352d,ch
 ae5:	00 2d 2d 31 30 32    	add    BYTE PTR ds:0x3230312d,ch
 aeb:	34 00                	xor    al,0x0
 aed:	00 00                	add    BYTE PTR [eax],al
 aef:	00 5b 21             	add    BYTE PTR [ebx+0x21],bl
 af2:	5d                   	pop    ebp
 af3:	20 4e 61             	and    BYTE PTR [esi+0x61],cl
 af6:	6d                   	ins    DWORD PTR es:[edi],dx
 af7:	65 73 20             	gs jae b1a <INT_SIZE_DATA+0xada>
 afa:	69 6e 70 75 74 20 61 	imul   ebp,DWORD PTR [esi+0x70],0x61207475
 b01:	6e                   	outs   dx,BYTE PTR ds:[esi]
 b02:	64 20 6f 75          	and    BYTE PTR fs:[edi+0x75],ch
 b06:	74 70                	je     b78 <INT_SIZE_DATA+0xb38>
 b08:	75 74                	jne    b7e <INT_SIZE_DATA+0xb3e>
 b0a:	20 66 69             	and    BYTE PTR [esi+0x69],ah
 b0d:	6c                   	ins    BYTE PTR es:[edi],dx
 b0e:	65 73 20             	gs jae b31 <INT_SIZE_DATA+0xaf1>
 b11:	65 71 75             	gs jno b89 <INT_SIZE_DATA+0xb49>
 b14:	61                   	popa   
 b15:	6c                   	ins    BYTE PTR es:[edi],dx
 b16:	2e 0a 00             	or     al,BYTE PTR cs:[eax]
 b19:	00 00                	add    BYTE PTR [eax],al
 b1b:	00 5b 21             	add    BYTE PTR [ebx+0x21],bl
 b1e:	5d                   	pop    ebp
 b1f:	20 4e 61             	and    BYTE PTR [esi+0x61],cl
 b22:	6d                   	ins    DWORD PTR es:[edi],dx
 b23:	65 73 20             	gs jae b46 <INT_SIZE_DATA+0xb06>
 b26:	6b 65 79 66          	imul   esp,DWORD PTR [ebp+0x79],0x66
 b2a:	69 6c 65 20 61 6e 64 	imul   ebp,DWORD PTR [ebp+eiz*2+0x20],0x20646e61
 b31:	20 
 b32:	6f                   	outs   dx,DWORD PTR ds:[esi]
 b33:	75 74                	jne    ba9 <INT_SIZE_DATA+0xb69>
 b35:	70 75                	jo     bac <INT_SIZE_DATA+0xb6c>
 b37:	74 20                	je     b59 <INT_SIZE_DATA+0xb19>
 b39:	66 69 6c 65 73 20 65 	imul   bp,WORD PTR [ebp+eiz*2+0x73],0x6520
 b40:	71 75                	jno    bb7 <INT_SIZE_DATA+0xb77>
 b42:	61                   	popa   
 b43:	6c                   	ins    BYTE PTR es:[edi],dx
 b44:	2e 0a 00             	or     al,BYTE PTR cs:[eax]
 b47:	00 5b 21             	add    BYTE PTR [ebx+0x21],bl
 b4a:	5d                   	pop    ebp
 b4b:	20 4e 61             	and    BYTE PTR [esi+0x61],cl
 b4e:	6d                   	ins    DWORD PTR es:[edi],dx
 b4f:	65 73 20             	gs jae b72 <INT_SIZE_DATA+0xb32>
 b52:	6b 65 79 66          	imul   esp,DWORD PTR [ebp+0x79],0x66
 b56:	69 6c 65 20 61 6e 64 	imul   ebp,DWORD PTR [ebp+eiz*2+0x20],0x20646e61
 b5d:	20 
 b5e:	69 6e 70 75 74 20 66 	imul   ebp,DWORD PTR [esi+0x70],0x66207475
 b65:	69 6c 65 73 20 65 71 	imul   ebp,DWORD PTR [ebp+eiz*2+0x73],0x75716520
 b6c:	75 
 b6d:	61                   	popa   
 b6e:	6c                   	ins    BYTE PTR es:[edi],dx
 b6f:	2e 0a 00             	or     al,BYTE PTR cs:[eax]
 b72:	00 00                	add    BYTE PTR [eax],al
 b74:	5b                   	pop    ebx
 b75:	44                   	inc    esp
 b76:	45                   	inc    ebp
 b77:	42                   	inc    edx
 b78:	55                   	push   ebp
 b79:	47                   	inc    edi
 b7a:	5d                   	pop    ebp
 b7b:	20 69 6e             	and    BYTE PTR [ecx+0x6e],ch
 b7e:	70 75                	jo     bf5 <INT_SIZE_DATA+0xbb5>
 b80:	74 20                	je     ba2 <INT_SIZE_DATA+0xb62>
 b82:	66 69 6c 65 6e 61 6d 	imul   bp,WORD PTR [ebp+eiz*2+0x6e],0x6d61
 b89:	65 3a 20             	cmp    ah,BYTE PTR gs:[eax]
 b8c:	20 20                	and    BYTE PTR [eax],ah
 b8e:	20 20                	and    BYTE PTR [eax],ah
 b90:	20 25 73 0a 00 00    	and    BYTE PTR ds:0xa73,ah
 b96:	00 00                	add    BYTE PTR [eax],al
 b98:	5b                   	pop    ebx
 b99:	44                   	inc    esp
 b9a:	45                   	inc    ebp
 b9b:	42                   	inc    edx
 b9c:	55                   	push   ebp
 b9d:	47                   	inc    edi
 b9e:	5d                   	pop    ebp
 b9f:	20 6f 75             	and    BYTE PTR [edi+0x75],ch
 ba2:	74 70                	je     c14 <INT_SIZE_DATA+0xbd4>
 ba4:	75 74                	jne    c1a <INT_SIZE_DATA+0xbda>
 ba6:	20 66 69             	and    BYTE PTR [esi+0x69],ah
 ba9:	6c                   	ins    BYTE PTR es:[edi],dx
 baa:	65 6e                	outs   dx,BYTE PTR gs:[esi]
 bac:	61                   	popa   
 bad:	6d                   	ins    DWORD PTR es:[edi],dx
 bae:	65 3a 20             	cmp    ah,BYTE PTR gs:[eax]
 bb1:	20 20                	and    BYTE PTR [eax],ah
 bb3:	20 20                	and    BYTE PTR [eax],ah
 bb5:	25 73 0a 00 00       	and    eax,0xa73
 bba:	00 00                	add    BYTE PTR [eax],al
 bbc:	5b                   	pop    ebx
 bbd:	44                   	inc    esp
 bbe:	45                   	inc    ebp
 bbf:	42                   	inc    edx
 bc0:	55                   	push   ebp
 bc1:	47                   	inc    edi
 bc2:	5d                   	pop    ebp
 bc3:	20 6b 65             	and    BYTE PTR [ebx+0x65],ch
 bc6:	79 66                	jns    c2e <INT_SIZE_DATA+0xbee>
 bc8:	69 6c 65 20 6f 72 20 	imul   ebp,DWORD PTR [ebp+eiz*2+0x20],0x7020726f
 bcf:	70 
 bd0:	61                   	popa   
 bd1:	73 73                	jae    c46 <INT_SIZE_DATA+0xc06>
 bd3:	77 6f                	ja     c44 <INT_SIZE_DATA+0xc04>
 bd5:	72 64                	jb     c3b <INT_SIZE_DATA+0xbfb>
 bd7:	3a 20                	cmp    ah,BYTE PTR [eax]
 bd9:	25 73 0a 00 5b       	and    eax,0x5b000a73
 bde:	44                   	inc    esp
 bdf:	45                   	inc    ebp
 be0:	42                   	inc    edx
 be1:	55                   	push   ebp
 be2:	47                   	inc    edi
 be3:	5d                   	pop    ebp
 be4:	20 63 69             	and    BYTE PTR [ebx+0x69],ah
 be7:	70 68                	jo     c51 <INT_SIZE_DATA+0xc11>
 be9:	65 72 3a             	gs jb  c26 <INT_SIZE_DATA+0xbe6>
 bec:	20 25 73 0a 00 00    	and    BYTE PTR ds:0xa73,ah
 bf2:	00 00                	add    BYTE PTR [eax],al
 bf4:	5b                   	pop    ebx
 bf5:	44                   	inc    esp
 bf6:	45                   	inc    ebp
 bf7:	42                   	inc    edx
 bf8:	55                   	push   ebp
 bf9:	47                   	inc    edi
 bfa:	5d                   	pop    ebp
 bfb:	20 62 6c             	and    BYTE PTR [edx+0x6c],ah
 bfe:	6f                   	outs   dx,DWORD PTR ds:[esi]
 bff:	63 6b 20             	arpl   WORD PTR [ebx+0x20],bp
 c02:	63 69 70             	arpl   WORD PTR [ecx+0x70],bp
 c05:	68 65 72 20 6d       	push   0x6d207265
 c0a:	6f                   	outs   dx,DWORD PTR ds:[esi]
 c0b:	64 65 20 6f 66       	fs and BYTE PTR gs:[edi+0x66],ch
 c10:	20 6f 70             	and    BYTE PTR [edi+0x70],ch
 c13:	65 72 61             	gs jb  c77 <INT_SIZE_DATA+0xc37>
 c16:	74 69                	je     c81 <INT_SIZE_DATA+0xc41>
 c18:	6f                   	outs   dx,DWORD PTR ds:[esi]
 c19:	6e                   	outs   dx,BYTE PTR ds:[esi]
 c1a:	3a 20                	cmp    ah,BYTE PTR [eax]
 c1c:	43                   	inc    ebx
 c1d:	46                   	inc    esi
 c1e:	42                   	inc    edx
 c1f:	00 5b 44             	add    BYTE PTR [ebx+0x44],bl
 c22:	45                   	inc    ebp
 c23:	42                   	inc    edx
 c24:	55                   	push   ebp
 c25:	47                   	inc    edi
 c26:	5d                   	pop    ebp
 c27:	20 6b 65             	and    BYTE PTR [ebx+0x65],ch
 c2a:	79 20                	jns    c4c <INT_SIZE_DATA+0xc0c>
 c2c:	6c                   	ins    BYTE PTR es:[edi],dx
 c2d:	65 6e                	outs   dx,BYTE PTR gs:[esi]
 c2f:	67 74 68             	addr16 je c9a <INT_SIZE_DATA+0xc5a>
 c32:	3a 20                	cmp    ah,BYTE PTR [eax]
 c34:	25 75 20 62 69       	and    eax,0x69622075
 c39:	73 74                	jae    caf <INT_SIZE_DATA+0xc6f>
 c3b:	0a 00                	or     al,BYTE PTR [eax]
 c3d:	5b                   	pop    ebx
 c3e:	44                   	inc    esp
 c3f:	45                   	inc    ebp
 c40:	42                   	inc    edx
 c41:	55                   	push   ebp
 c42:	47                   	inc    edi
 c43:	5d                   	pop    ebp
 c44:	20 6f 70             	and    BYTE PTR [edi+0x70],ch
 c47:	65 72 61             	gs jb  cab <INT_SIZE_DATA+0xc6b>
 c4a:	74 69                	je     cb5 <INT_SIZE_DATA+0xc75>
 c4c:	6f                   	outs   dx,DWORD PTR ds:[esi]
 c4d:	6e                   	outs   dx,BYTE PTR ds:[esi]
 c4e:	3a 20                	cmp    ah,BYTE PTR [eax]
 c50:	25 73 0a 00 5b       	and    eax,0x5b000a73
 c55:	44                   	inc    esp
 c56:	45                   	inc    ebp
 c57:	42                   	inc    edx
 c58:	55                   	push   ebp
 c59:	47                   	inc    edi
 c5a:	5d                   	pop    ebp
 c5b:	20 74 65 6d          	and    BYTE PTR [ebp+eiz*2+0x6d],dh
 c5f:	70 20                	jo     c81 <INT_SIZE_DATA+0xc41>
 c61:	6d                   	ins    DWORD PTR es:[edi],dx
 c62:	65 6d                	gs ins DWORD PTR es:[edi],dx
 c64:	6f                   	outs   dx,DWORD PTR ds:[esi]
 c65:	72 79                	jb     ce0 <INT_SIZE_DATA+0xca0>
 c67:	20 61 6c             	and    BYTE PTR [ecx+0x6c],ah
 c6a:	6c                   	ins    BYTE PTR es:[edi],dx
 c6b:	6f                   	outs   dx,DWORD PTR ds:[esi]
 c6c:	63 61 74             	arpl   WORD PTR [ecx+0x74],sp
 c6f:	65 64 3a 20          	gs cmp ah,BYTE PTR fs:[eax]
 c73:	25 75 20 62 79       	and    eax,0x79622075
 c78:	74 65                	je     cdf <INT_SIZE_DATA+0xc9f>
 c7a:	0a 00                	or     al,BYTE PTR [eax]
 c7c:	5b                   	pop    ebx
 c7d:	44                   	inc    esp
 c7e:	45                   	inc    ebp
 c7f:	42                   	inc    edx
 c80:	55                   	push   ebp
 c81:	47                   	inc    edi
 c82:	5d                   	pop    ebp
 c83:	20 74 65 6d          	and    BYTE PTR [ebp+eiz*2+0x6d],dh
 c87:	70 20                	jo     ca9 <INT_SIZE_DATA+0xc69>
 c89:	6d                   	ins    DWORD PTR es:[edi],dx
 c8a:	65 6d                	gs ins DWORD PTR es:[edi],dx
 c8c:	6f                   	outs   dx,DWORD PTR ds:[esi]
 c8d:	72 79                	jb     d08 <INT_SIZE_DATA+0xcc8>
 c8f:	20 70 6f             	and    BYTE PTR [eax+0x6f],dh
 c92:	69 6e 74 65 72 3a 20 	imul   ebp,DWORD PTR [esi+0x74],0x203a7265
 c99:	25 70 0a 00 00       	and    eax,0xa70
 c9e:	00 00                	add    BYTE PTR [eax],al
 ca0:	5b                   	pop    ebx
 ca1:	23 5d 20             	and    ebx,DWORD PTR [ebp+0x20]
 ca4:	43                   	inc    ebx
 ca5:	72 79                	jb     d20 <INT_SIZE_DATA+0xce0>
 ca7:	70 74                	jo     d1d <INT_SIZE_DATA+0xcdd>
 ca9:	20 6b 65             	and    BYTE PTR [ebx+0x65],ch
 cac:	79 20                	jns    cce <INT_SIZE_DATA+0xc8e>
 cae:	72 65                	jb     d15 <INT_SIZE_DATA+0xcd5>
 cb0:	61                   	popa   
 cb1:	64 20 66 72          	and    BYTE PTR fs:[esi+0x72],ah
 cb5:	6f                   	outs   dx,DWORD PTR ds:[esi]
 cb6:	6d                   	ins    DWORD PTR es:[edi],dx
 cb7:	20 66 69             	and    BYTE PTR [esi+0x69],ah
 cba:	6c                   	ins    BYTE PTR es:[edi],dx
 cbb:	65 20 22             	and    BYTE PTR gs:[edx],ah
 cbe:	25 73 22 2e 0a       	and    eax,0xa2e2273
 cc3:	00 5b 21             	add    BYTE PTR [ebx+0x21],bl
 cc6:	5d                   	pop    ebp
 cc7:	20 44 61 74          	and    BYTE PTR [ecx+eiz*2+0x74],al
 ccb:	61                   	popa   
 ccc:	20 69 6e             	and    BYTE PTR [ecx+0x6e],ch
 ccf:	20 6b 65             	and    BYTE PTR [ebx+0x65],ch
 cd2:	79 20                	jns    cf4 <INT_SIZE_DATA+0xcb4>
 cd4:	66 69 6c 65 20 25 64 	imul   bp,WORD PTR [ebp+eiz*2+0x20],0x6425
 cdb:	20 62 79             	and    BYTE PTR [edx+0x79],ah
 cde:	74 65                	je     d45 <INT_SIZE_DATA+0xd05>
 ce0:	3b 20                	cmp    esp,DWORD PTR [eax]
 ce2:	6e                   	outs   dx,BYTE PTR ds:[esi]
 ce3:	65 63 65 73          	arpl   WORD PTR gs:[ebp+0x73],sp
 ce7:	73 61                	jae    d4a <INT_SIZE_DATA+0xd0a>
 ce9:	72 79                	jb     d64 <INT_SIZE_DATA+0xd24>
 ceb:	20 25 64 20 62 79    	and    BYTE PTR ds:0x79622064,ah
 cf1:	74 65                	je     d58 <INT_SIZE_DATA+0xd18>
 cf3:	2e 0a 00             	or     al,BYTE PTR cs:[eax]
 cf6:	00 00                	add    BYTE PTR [eax],al
 cf8:	5b                   	pop    ebx
 cf9:	23 5d 20             	and    ebx,DWORD PTR [ebp+0x20]
 cfc:	43                   	inc    ebx
 cfd:	72 79                	jb     d78 <INT_SIZE_DATA+0xd38>
 cff:	70 74                	jo     d75 <INT_SIZE_DATA+0xd35>
 d01:	20 6b 65             	and    BYTE PTR [ebx+0x65],ch
 d04:	79 20                	jns    d26 <INT_SIZE_DATA+0xce6>
 d06:	72 65                	jb     d6d <INT_SIZE_DATA+0xd2d>
 d08:	61                   	popa   
 d09:	64 20 66 72          	and    BYTE PTR fs:[esi+0x72],ah
 d0d:	6f                   	outs   dx,DWORD PTR ds:[esi]
 d0e:	6d                   	ins    DWORD PTR es:[edi],dx
 d0f:	20 63 6f             	and    BYTE PTR [ebx+0x6f],ah
 d12:	6d                   	ins    DWORD PTR es:[edi],dx
 d13:	6d                   	ins    DWORD PTR es:[edi],dx
 d14:	61                   	popa   
 d15:	6e                   	outs   dx,BYTE PTR ds:[esi]
 d16:	64 20 6c 69 6e       	and    BYTE PTR fs:[ecx+ebp*2+0x6e],ch
 d1b:	65 2e 00 00          	gs add BYTE PTR cs:[eax],al
 d1f:	00 5b 21             	add    BYTE PTR [ebx+0x21],bl
 d22:	5d                   	pop    ebp
 d23:	20 44 61 74          	and    BYTE PTR [ecx+eiz*2+0x74],al
 d27:	61                   	popa   
 d28:	20 69 6e             	and    BYTE PTR [ecx+0x6e],ch
 d2b:	20 73 74             	and    BYTE PTR [ebx+0x74],dh
 d2e:	72 69                	jb     d99 <INT_SIZE_DATA+0xd59>
 d30:	6e                   	outs   dx,BYTE PTR ds:[esi]
 d31:	67 20 6b 65          	and    BYTE PTR [bp+di+0x65],ch
 d35:	79 20                	jns    d57 <INT_SIZE_DATA+0xd17>
 d37:	25 64 20 62 79       	and    eax,0x79622064
 d3c:	74 65                	je     da3 <INT_SIZE_DATA+0xd63>
 d3e:	3b 20                	cmp    esp,DWORD PTR [eax]
 d40:	6e                   	outs   dx,BYTE PTR ds:[esi]
 d41:	65 63 65 73          	arpl   WORD PTR gs:[ebp+0x73],sp
 d45:	73 61                	jae    da8 <INT_SIZE_DATA+0xd68>
 d47:	72 79                	jb     dc2 <INT_SIZE_DATA+0xd82>
 d49:	20 38                	and    BYTE PTR [eax],bh
 d4b:	2e 2e 32 35 36 20 62 	cs xor dh,BYTE PTR cs:0x79622036
 d52:	79 
 d53:	74 65                	je     dba <INT_SIZE_DATA+0xd7a>
 d55:	2e 0a 00             	or     al,BYTE PTR cs:[eax]
 d58:	5b                   	pop    ebx
 d59:	23 5d 20             	and    ebx,DWORD PTR [ebp+0x20]
 d5c:	4b                   	dec    ebx
 d5d:	65 79 20             	gs jns d80 <INT_SIZE_DATA+0xd40>
 d60:	6c                   	ins    BYTE PTR es:[edi],dx
 d61:	65 6e                	outs   dx,BYTE PTR gs:[esi]
 d63:	67 74 68             	addr16 je dce <INT_SIZE_DATA+0xd8e>
 d66:	20 25 64 2d 62 69    	and    BYTE PTR ds:0x69622d64,ah
 d6c:	74 73                	je     de1 <INT_SIZE_DATA+0xda1>
 d6e:	20 69 6e             	and    BYTE PTR [ecx+0x6e],ch
 d71:	69 74 69 61 6c 69 7a 	imul   esi,DWORD PTR [ecx+ebp*2+0x61],0x657a696c
 d78:	65 
 d79:	64 2e 0a 00          	fs or  al,BYTE PTR cs:[eax]
 d7d:	00 00                	add    BYTE PTR [eax],al
 d7f:	00 5b 44             	add    BYTE PTR [ebx+0x44],bl
 d82:	45                   	inc    ebp
 d83:	42                   	inc    edx
 d84:	55                   	push   ebp
 d85:	47                   	inc    edi
 d86:	5d                   	pop    ebp
 d87:	20 6b 65             	and    BYTE PTR [ebx+0x65],ch
 d8a:	79 20                	jns    dac <INT_SIZE_DATA+0xd6c>
 d8c:	6f                   	outs   dx,DWORD PTR ds:[esi]
 d8d:	72 20                	jb     daf <INT_SIZE_DATA+0xd6f>
 d8f:	70 61                	jo     df2 <INT_SIZE_DATA+0xdb2>
 d91:	73 73                	jae    e06 <INT_SIZE_DATA+0xdc6>
 d93:	77 6f                	ja     e04 <INT_SIZE_DATA+0xdc4>
 d95:	72 64                	jb     dfb <INT_SIZE_DATA+0xdbb>
 d97:	20 6c 65 6e          	and    BYTE PTR [ebp+eiz*2+0x6e],ch
 d9b:	67 74 68             	addr16 je e06 <INT_SIZE_DATA+0xdc6>
 d9e:	3a 20                	cmp    ah,BYTE PTR [eax]
 da0:	25 64 20 62 79       	and    eax,0x79622064
 da5:	74 65                	je     e0c <INT_SIZE_DATA+0xdcc>
 da7:	0a 00                	or     al,BYTE PTR [eax]
 da9:	00 00                	add    BYTE PTR [eax],al
 dab:	00 5b 44             	add    BYTE PTR [ebx+0x44],bl
 dae:	45                   	inc    ebp
 daf:	42                   	inc    edx
 db0:	55                   	push   ebp
 db1:	47                   	inc    edi
 db2:	5d                   	pop    ebp
 db3:	20 6b 65             	and    BYTE PTR [ebx+0x65],ch
 db6:	79 20                	jns    dd8 <INT_SIZE_DATA+0xd98>
 db8:	67 65 6e             	outs   dx,BYTE PTR gs:[si]
 dbb:	65 72 61             	gs jb  e1f <INT_SIZE_DATA+0xddf>
 dbe:	74 6f                	je     e2f <INT_SIZE_DATA+0xdef>
 dc0:	72 20                	jb     de2 <INT_SIZE_DATA+0xda2>
 dc2:	77 72                	ja     e36 <INT_SIZE_DATA+0xdf6>
 dc4:	69 74 65 20 64 61 74 	imul   esi,DWORD PTR [ebp+eiz*2+0x20],0x61746164
 dcb:	61 
 dcc:	20 69 6e             	and    BYTE PTR [ecx+0x6e],ch
 dcf:	20 70 6f             	and    BYTE PTR [eax+0x6f],dh
 dd2:	69 6e 74 65 72 3a 20 	imul   ebp,DWORD PTR [esi+0x74],0x203a7265
 dd9:	25 70 0a 00 5b       	and    eax,0x5b000a70
 dde:	44                   	inc    esp
 ddf:	45                   	inc    ebp
 de0:	42                   	inc    edx
 de1:	55                   	push   ebp
 de2:	47                   	inc    edi
 de3:	5d                   	pop    ebp
 de4:	20 72 65             	and    BYTE PTR [edx+0x65],dh
 de7:	61                   	popa   
 de8:	6c                   	ins    BYTE PTR es:[edi],dx
 de9:	20 63 72             	and    BYTE PTR [ebx+0x72],ah
 dec:	79 70                	jns    e5e <INT_SIZE_DATA+0xe1e>
 dee:	74 20                	je     e10 <INT_SIZE_DATA+0xdd0>
 df0:	6b 65 79 20          	imul   esp,DWORD PTR [ebp+0x79],0x20
 df4:	64 61                	fs popa 
 df6:	74 61                	je     e59 <INT_SIZE_DATA+0xe19>
 df8:	3a 00                	cmp    al,BYTE PTR [eax]
 dfa:	5b                   	pop    ebx
 dfb:	44                   	inc    esp
 dfc:	45                   	inc    ebp
 dfd:	42                   	inc    edx
 dfe:	55                   	push   ebp
 dff:	47                   	inc    edi
 e00:	5d                   	pop    ebp
 e01:	20 73 74             	and    BYTE PTR [ebx+0x74],dh
 e04:	61                   	popa   
 e05:	63 6b 5f             	arpl   WORD PTR [ebx+0x5f],bp
 e08:	74 72                	je     e7c <INT_SIZE_DATA+0xe3c>
 e0a:	61                   	popa   
 e0b:	73 68                	jae    e75 <INT_SIZE_DATA+0xe35>
 e0d:	3a 20                	cmp    ah,BYTE PTR [eax]
 e0f:	25 30 32 78 0a       	and    eax,0xa783230
 e14:	00 5b 23             	add    BYTE PTR [ebx+0x23],bl
 e17:	5d                   	pop    ebp
 e18:	20 41 6c             	and    BYTE PTR [ecx+0x6c],al
 e1b:	67 6f                	outs   dx,DWORD PTR ds:[si]
 e1d:	72 69                	jb     e88 <INT_SIZE_DATA+0xe48>
 e1f:	74 6d                	je     e8e <INT_SIZE_DATA+0xe4e>
 e21:	20 25 73 20 69 6e    	and    BYTE PTR ds:0x6e692073,ah
 e27:	69 74 69 61 6c 69 7a 	imul   esi,DWORD PTR [ecx+ebp*2+0x61],0x657a696c
 e2e:	65 
 e2f:	64 2e 0a 00          	fs or  al,BYTE PTR cs:[eax]
 e33:	00 5b 44             	add    BYTE PTR [ebx+0x44],bl
 e36:	45                   	inc    ebp
 e37:	42                   	inc    edx
 e38:	55                   	push   ebp
 e39:	47                   	inc    edi
 e3a:	5d                   	pop    ebp
 e3b:	20 61 6c             	and    BYTE PTR [ecx+0x6c],ah
 e3e:	6c                   	ins    BYTE PTR es:[edi],dx
 e3f:	6f                   	outs   dx,DWORD PTR ds:[esi]
 e40:	63 61 74             	arpl   WORD PTR [ecx+0x74],sp
 e43:	65 20 62 79          	and    BYTE PTR gs:[edx+0x79],ah
 e47:	74 65                	je     eae <INT_SIZE_DATA+0xe6e>
 e49:	20 66 6f             	and    BYTE PTR [esi+0x6f],ah
 e4c:	72 20                	jb     e6e <INT_SIZE_DATA+0xe2e>
 e4e:	63 69 70             	arpl   WORD PTR [ecx+0x70],bp
 e51:	68 65 72 20 73       	push   0x73207265
 e56:	74 72                	je     eca <INT_SIZE_DATA+0xe8a>
 e58:	75 63                	jne    ebd <INT_SIZE_DATA+0xe7d>
 e5a:	74 3a                	je     e96 <INT_SIZE_DATA+0xe56>
 e5c:	20 25 75 0a 00 00    	and    BYTE PTR ds:0xa75,ah
 e62:	00 00                	add    BYTE PTR [eax],al
 e64:	5b                   	pop    ebx
 e65:	44                   	inc    esp
 e66:	45                   	inc    ebp
 e67:	42                   	inc    edx
 e68:	55                   	push   ebp
 e69:	47                   	inc    edi
 e6a:	5d                   	pop    ebp
 e6b:	20 72 65             	and    BYTE PTR [edx+0x65],dh
 e6e:	61                   	popa   
 e6f:	6c                   	ins    BYTE PTR es:[edi],dx
 e70:	20 64 61 74          	and    BYTE PTR [ecx+eiz*2+0x74],ah
 e74:	61                   	popa   
 e75:	20 63 69             	and    BYTE PTR [ebx+0x69],ah
 e78:	70 68                	jo     ee2 <.L80+0x11>
 e7a:	65 72 20             	gs jb  e9d <INT_SIZE_DATA+0xe5d>
 e7d:	73 74                	jae    ef3 <.L80+0x22>
 e7f:	72 75                	jb     ef6 <.L80+0x25>
 e81:	63 74 3a 00          	arpl   WORD PTR [edx+edi*1+0x0],si
 e85:	00 00                	add    BYTE PTR [eax],al
 e87:	00 5b 23             	add    BYTE PTR [ebx+0x23],bl
 e8a:	5d                   	pop    ebp
 e8b:	20 4f 70             	and    BYTE PTR [edi+0x70],cl
 e8e:	65 72 61             	gs jb  ef2 <.L80+0x21>
 e91:	74 69                	je     efc <.L78+0x4>
 e93:	6f                   	outs   dx,DWORD PTR ds:[esi]
 e94:	6e                   	outs   dx,BYTE PTR ds:[esi]
 e95:	20 25 73 20 66 69    	and    BYTE PTR ds:0x69662073,ah
 e9b:	6c                   	ins    BYTE PTR es:[edi],dx
 e9c:	65 20 22             	and    BYTE PTR gs:[edx],ah
 e9f:	25 73 22 20 73       	and    eax,0x73202273
 ea4:	74 61                	je     f07 <.L78+0xf>
 ea6:	72 74                	jb     f1c <.L76>
 ea8:	65 64 2e 0a 00       	gs fs or al,BYTE PTR cs:[eax]
	...
 ec9:	00 00                	add    BYTE PTR [eax],al
 ecb:	00 80 84 2e 41 00    	add    BYTE PTR [eax+0x412e84],al
 ed1:	00 00                	add    BYTE PTR [eax],al
 ed3:	00 00                	add    BYTE PTR [eax],al
 ed5:	00 59 40             	add    BYTE PTR [ecx+0x40],bl
 ed8:	9a 99 99 99 99 99 b9 	call   0xb999:0x99999999
 edf:	3f                   	aas    

Дизассемблирование раздела .data.rel.local:

00000000 <PARAM_READ_BYTE>:
   0:	00 00                	add    BYTE PTR [eax],al
	...

00000004 <PARAM_WRITE_BYTE>:
   4:	03 00                	add    eax,DWORD PTR [eax]
	...

00000008 <PROGRAMM_NAME>:
   8:	08 00                	or     BYTE PTR [eax],al
	...

0000000c <CHAR_SIZE_DATA>:
   c:	70 00                	jo     e <CHAR_SIZE_DATA+0x2>
   e:	00 00                	add    BYTE PTR [eax],al
  10:	73 00                	jae    12 <CHAR_SIZE_DATA+0x6>
  12:	00 00                	add    BYTE PTR [eax],al
  14:	77 00                	ja     16 <CHAR_SIZE_DATA+0xa>
  16:	00 00                	add    BYTE PTR [eax],al
  18:	7b 00                	jnp    1a <CHAR_SIZE_DATA+0xe>
  1a:	00 00                	add    BYTE PTR [eax],al
  1c:	7f 00                	jg     1e <CHAR_SIZE_DATA+0x12>
  1e:	00 00                	add    BYTE PTR [eax],al
  20:	83 00 00             	add    DWORD PTR [eax],0x0
  23:	00 87 00 00 00     	add    BYTE PTR [edi-0x75000000],al

00000028 <OPERATION_NAME>:
  28:	8b 00                	mov    eax,DWORD PTR [eax]
  2a:	00 00                	add    BYTE PTR [eax],al
  2c:	93                   	xchg   ebx,eax
  2d:	00 00                	add    BYTE PTR [eax],al
	...

00000030 <ALGORITM_NAME>:
  30:	9b                   	fwait
  31:	00 00                	add    BYTE PTR [eax],al
  33:	00 9f 00 00 00 a7    	add    BYTE PTR [edi-0x59000000],bl
  39:	00 00                	add    BYTE PTR [eax],al
  3b:	00 af 00 00 00 b8    	add    BYTE PTR [edi-0x48000000],ch
  41:	00 00                	add    BYTE PTR [eax],al
	...

Дизассемблирование раздела .text.__x86.get_pc_thunk.ax:

00000000 <__x86.get_pc_thunk.ax>:
   0:	8b 04 24             	mov    eax,DWORD PTR [esp]
   3:	c3                   	ret    

Дизассемблирование раздела .text.__x86.get_pc_thunk.cx:

00000000 <__x86.get_pc_thunk.cx>:
   0:	8b 0c 24             	mov    ecx,DWORD PTR [esp]
   3:	c3                   	ret    

Дизассемблирование раздела .text.__x86.get_pc_thunk.bx:

00000000 <__x86.get_pc_thunk.bx>:
   0:	8b 1c 24             	mov    ebx,DWORD PTR [esp]
   3:	c3                   	ret    

Дизассемблирование раздела .comment:

00000000 <.comment>:
   0:	00 47 43             	add    BYTE PTR [edi+0x43],al
   3:	43                   	inc    ebx
   4:	3a 20                	cmp    ah,BYTE PTR [eax]
   6:	28 44 65 62          	sub    BYTE PTR [ebp+eiz*2+0x62],al
   a:	69 61 6e 20 31 30 2e 	imul   esp,DWORD PTR [ecx+0x6e],0x2e303120
  11:	32 2e                	xor    ch,BYTE PTR [esi]
  13:	31 2d 36 29 20 31    	xor    DWORD PTR ds:0x31202936,ebp
  19:	30 2e                	xor    BYTE PTR [esi],ch
  1b:	32 2e                	xor    ch,BYTE PTR [esi]
  1d:	31 20                	xor    DWORD PTR [eax],esp
  1f:	32 30                	xor    dh,BYTE PTR [eax]
  21:	32 31                	xor    dh,BYTE PTR [ecx]
  23:	30 31                	xor    BYTE PTR [ecx],dh
  25:	31 30                	xor    DWORD PTR [eax],esi
	...

Дизассемблирование раздела .eh_frame:

00000000 <.eh_frame>:
   0:	14 00                	adc    al,0x0
   2:	00 00                	add    BYTE PTR [eax],al
   4:	00 00                	add    BYTE PTR [eax],al
   6:	00 00                	add    BYTE PTR [eax],al
   8:	01 7a 52             	add    DWORD PTR [edx+0x52],edi
   b:	00 01                	add    BYTE PTR [ecx],al
   d:	7c 08                	jl     17 <.eh_frame+0x17>
   f:	01 1b                	add    DWORD PTR [ebx],ebx
  11:	0c 04                	or     al,0x4
  13:	04 88                	add    al,0x88
  15:	01 00                	add    DWORD PTR [eax],eax
  17:	00 20                	add    BYTE PTR [eax],ah
  19:	00 00                	add    BYTE PTR [eax],al
  1b:	00 1c 00             	add    BYTE PTR [eax+eax*1],bl
  1e:	00 00                	add    BYTE PTR [eax],al
  20:	00 00                	add    BYTE PTR [eax],al
  22:	00 00                	add    BYTE PTR [eax],al
  24:	3d 01 00 00 00       	cmp    eax,0x1
  29:	41                   	inc    ecx
  2a:	0e                   	push   cs
  2b:	08 85 02 42 0d 05    	or     BYTE PTR [ebp+0x50d4202],al
  31:	44                   	inc    esp
  32:	83 03 03             	add    DWORD PTR [ebx],0x3
  35:	35 01 c5 c3 0c       	xor    eax,0xcc3c501
  3a:	04 04                	add    al,0x4
  3c:	1c 00                	sbb    al,0x0
  3e:	00 00                	add    BYTE PTR [eax],al
  40:	40                   	inc    eax
  41:	00 00                	add    BYTE PTR [eax],al
  43:	00 3d 01 00 00 3e    	add    BYTE PTR ds:0x3e000001,bh
  49:	01 00                	add    DWORD PTR [eax],eax
  4b:	00 00                	add    BYTE PTR [eax],al
  4d:	41                   	inc    ecx
  4e:	0e                   	push   cs
  4f:	08 85 02 42 0d 05    	or     BYTE PTR [ebp+0x50d4202],al
  55:	03 3a                	add    edi,DWORD PTR [edx]
  57:	01 c5                	add    ebp,eax
  59:	0c 04                	or     al,0x4
  5b:	04 1c                	add    al,0x1c
  5d:	00 00                	add    BYTE PTR [eax],al
  5f:	00 60 00             	add    BYTE PTR [eax+0x0],ah
  62:	00 00                	add    BYTE PTR [eax],al
  64:	7b 02                	jnp    68 <.eh_frame+0x68>
  66:	00 00                	add    BYTE PTR [eax],al
  68:	49                   	dec    ecx
  69:	00 00                	add    BYTE PTR [eax],al
  6b:	00 00                	add    BYTE PTR [eax],al
  6d:	41                   	inc    ecx
  6e:	0e                   	push   cs
  6f:	08 85 02 42 0d 05    	or     BYTE PTR [ebp+0x50d4202],al
  75:	02 45 c5             	add    al,BYTE PTR [ebp-0x3b]
  78:	0c 04                	or     al,0x4
  7a:	04 00                	add    al,0x0
  7c:	20 00                	and    BYTE PTR [eax],al
  7e:	00 00                	add    BYTE PTR [eax],al
  80:	80 00 00             	add    BYTE PTR [eax],0x0
  83:	00 c4                	add    ah,al
  85:	02 00                	add    al,BYTE PTR [eax]
  87:	00 31                	add    BYTE PTR [ecx],dh
  89:	03 00                	add    eax,DWORD PTR [eax]
  8b:	00 00                	add    BYTE PTR [eax],al
  8d:	41                   	inc    ecx
  8e:	0e                   	push   cs
  8f:	08 85 02 42 0d 05    	or     BYTE PTR [ebp+0x50d4202],al
  95:	44                   	inc    esp
  96:	83 03 03             	add    DWORD PTR [ebx],0x3
  99:	29 03                	sub    DWORD PTR [ebx],eax
  9b:	c5 c3 0c             	(bad)
  9e:	04 04                	add    al,0x4
  a0:	20 00                	and    BYTE PTR [eax],al
  a2:	00 00                	add    BYTE PTR [eax],al
  a4:	a4                   	movs   BYTE PTR es:[edi],BYTE PTR ds:[esi]
  a5:	00 00                	add    BYTE PTR [eax],al
  a7:	00 f5                	add    ch,dh
  a9:	05 00 00 9a 01       	add    eax,0x19a0000
  ae:	00 00                	add    BYTE PTR [eax],al
  b0:	00 41 0e             	add    BYTE PTR [ecx+0xe],al
  b3:	08 85 02 42 0d 05    	or     BYTE PTR [ebp+0x50d4202],al
  b9:	44                   	inc    esp
  ba:	83 03 03             	add    DWORD PTR [ebx],0x3
  bd:	92                   	xchg   edx,eax
  be:	01 c5                	add    ebp,eax
  c0:	c3                   	ret    
  c1:	0c 04                	or     al,0x4
  c3:	04 1c                	add    al,0x1c
  c5:	00 00                	add    BYTE PTR [eax],al
  c7:	00 c8                	add    al,cl
  c9:	00 00                	add    BYTE PTR [eax],al
  cb:	00 8f 07 00 00 19    	add    BYTE PTR [edi+0x19000007],cl
  d1:	00 00                	add    BYTE PTR [eax],al
  d3:	00 00                	add    BYTE PTR [eax],al
  d5:	41                   	inc    ecx
  d6:	0e                   	push   cs
  d7:	08 85 02 42 0d 05    	or     BYTE PTR [ebp+0x50d4202],al
  dd:	55                   	push   ebp
  de:	c5 0c 04             	lds    ecx,FWORD PTR [esp+eax*1]
  e1:	04 00                	add    al,0x0
  e3:	00 20                	add    BYTE PTR [eax],ah
  e5:	00 00                	add    BYTE PTR [eax],al
  e7:	00 e8                	add    al,ch
  e9:	00 00                	add    BYTE PTR [eax],al
  eb:	00 a8 07 00 00 85    	add    BYTE PTR [eax-0x7afffff9],ch
  f1:	00 00                	add    BYTE PTR [eax],al
  f3:	00 00                	add    BYTE PTR [eax],al
  f5:	41                   	inc    ecx
  f6:	0e                   	push   cs
  f7:	08 85 02 42 0d 05    	or     BYTE PTR [ebp+0x50d4202],al
  fd:	44                   	inc    esp
  fe:	83 03 02             	add    DWORD PTR [ebx],0x2
 101:	7d c5                	jge    c8 <.eh_frame+0xc8>
 103:	c3                   	ret    
 104:	0c 04                	or     al,0x4
 106:	04 00                	add    al,0x0
 108:	20 00                	and    BYTE PTR [eax],al
 10a:	00 00                	add    BYTE PTR [eax],al
 10c:	0c 01                	or     al,0x1
 10e:	00 00                	add    BYTE PTR [eax],al
 110:	2d 08 00 00 39       	sub    eax,0x39000008
 115:	00 00                	add    BYTE PTR [eax],al
 117:	00 00                	add    BYTE PTR [eax],al
 119:	41                   	inc    ecx
 11a:	0e                   	push   cs
 11b:	08 85 02 42 0d 05    	or     BYTE PTR [ebp+0x50d4202],al
 121:	44                   	inc    esp
 122:	83 03 71             	add    DWORD PTR [ebx],0x71
 125:	c5 c3 0c             	(bad)
 128:	04 04                	add    al,0x4
 12a:	00 00                	add    BYTE PTR [eax],al
 12c:	20 00                	and    BYTE PTR [eax],al
 12e:	00 00                	add    BYTE PTR [eax],al
 130:	30 01                	xor    BYTE PTR [ecx],al
 132:	00 00                	add    BYTE PTR [eax],al
 134:	66 08 00             	data16 or BYTE PTR [eax],al
 137:	00 b4 02 00 00 00 41 	add    BYTE PTR [edx+eax*1+0x41000000],dh
 13e:	0e                   	push   cs
 13f:	08 85 02 42 0d 05    	or     BYTE PTR [ebp+0x50d4202],al
 145:	44                   	inc    esp
 146:	83 03 03             	add    DWORD PTR [ebx],0x3
 149:	ac                   	lods   al,BYTE PTR ds:[esi]
 14a:	02 c5                	add    al,ch
 14c:	c3                   	ret    
 14d:	0c 04                	or     al,0x4
 14f:	04 20                	add    al,0x20
 151:	00 00                	add    BYTE PTR [eax],al
 153:	00 54 01 00          	add    BYTE PTR [ecx+eax*1+0x0],dl
 157:	00 1a                	add    BYTE PTR [edx],bl
 159:	0b 00                	or     eax,DWORD PTR [eax]
 15b:	00 c2                	add    dl,al
 15d:	00 00                	add    BYTE PTR [eax],al
 15f:	00 00                	add    BYTE PTR [eax],al
 161:	41                   	inc    ecx
 162:	0e                   	push   cs
 163:	08 85 02 42 0d 05    	or     BYTE PTR [ebp+0x50d4202],al
 169:	44                   	inc    esp
 16a:	83 03 02             	add    DWORD PTR [ebx],0x2
 16d:	ba c5 c3 0c 04       	mov    edx,0x40cc3c5
 172:	04 00                	add    al,0x0
 174:	20 00                	and    BYTE PTR [eax],al
 176:	00 00                	add    BYTE PTR [eax],al
 178:	78 01                	js     17b <.eh_frame+0x17b>
 17a:	00 00                	add    BYTE PTR [eax],al
 17c:	dc 0b                	fmul   QWORD PTR [ebx]
 17e:	00 00                	add    BYTE PTR [eax],al
 180:	5c                   	pop    esp
 181:	00 00                	add    BYTE PTR [eax],al
 183:	00 00                	add    BYTE PTR [eax],al
 185:	41                   	inc    ecx
 186:	0e                   	push   cs
 187:	08 85 02 42 0d 05    	or     BYTE PTR [ebp+0x50d4202],al
 18d:	44                   	inc    esp
 18e:	83 03 02             	add    DWORD PTR [ebx],0x2
 191:	54                   	push   esp
 192:	c5 c3 0c             	(bad)
 195:	04 04                	add    al,0x4
 197:	00 20                	add    BYTE PTR [eax],ah
 199:	00 00                	add    BYTE PTR [eax],al
 19b:	00 9c 01 00 00 38 0c 	add    BYTE PTR [ecx+eax*1+0xc380000],bl
 1a2:	00 00                	add    BYTE PTR [eax],al
 1a4:	97                   	xchg   edi,eax
 1a5:	00 00                	add    BYTE PTR [eax],al
 1a7:	00 00                	add    BYTE PTR [eax],al
 1a9:	41                   	inc    ecx
 1aa:	0e                   	push   cs
 1ab:	08 85 02 42 0d 05    	or     BYTE PTR [ebp+0x50d4202],al
 1b1:	44                   	inc    esp
 1b2:	83 03 02             	add    DWORD PTR [ebx],0x2
 1b5:	8f c5                	pop    ebp
 1b7:	c3                   	ret    
 1b8:	0c 04                	or     al,0x4
 1ba:	04 00                	add    al,0x0
 1bc:	28 00                	sub    BYTE PTR [eax],al
 1be:	00 00                	add    BYTE PTR [eax],al
 1c0:	c0 01 00             	rol    BYTE PTR [ecx],0x0
 1c3:	00 cf                	add    bh,cl
 1c5:	0c 00                	or     al,0x0
 1c7:	00 85 02 00 00 00    	add    BYTE PTR [ebp+0x2],al
 1cd:	41                   	inc    ecx
 1ce:	0e                   	push   cs
 1cf:	08 85 02 42 0d 05    	or     BYTE PTR [ebp+0x50d4202],al
 1d5:	48                   	dec    eax
 1d6:	86 03                	xchg   BYTE PTR [ebx],al
 1d8:	83 04 03 77          	add    DWORD PTR [ebx+eax*1],0x77
 1dc:	02 c3                	add    al,bl
 1de:	41                   	inc    ecx
 1df:	c6 41 c5 0c          	mov    BYTE PTR [ecx-0x3b],0xc
 1e3:	04 04                	add    al,0x4
 1e5:	00 00                	add    BYTE PTR [eax],al
 1e7:	00 2c 00             	add    BYTE PTR [eax+eax*1],ch
 1ea:	00 00                	add    BYTE PTR [eax],al
 1ec:	ec                   	in     al,dx
 1ed:	01 00                	add    DWORD PTR [eax],eax
 1ef:	00 54 0f 00          	add    BYTE PTR [edi+ecx*1+0x0],dl
 1f3:	00 6f 09             	add    BYTE PTR [edi+0x9],ch
 1f6:	00 00                	add    BYTE PTR [eax],al
 1f8:	00 41 0e             	add    BYTE PTR [ecx+0xe],al
 1fb:	08 85 02 42 0d 05    	or     BYTE PTR [ebp+0x50d4202],al
 201:	46                   	inc    esi
 202:	87 03                	xchg   DWORD PTR [ebx],eax
 204:	86 04 83             	xchg   BYTE PTR [ebx+eax*4],al
 207:	05 03 62 09 c3       	add    eax,0xc3096203
 20c:	41                   	inc    ecx
 20d:	c6 41 c7 41          	mov    BYTE PTR [ecx-0x39],0x41
 211:	c5 0c 04             	lds    ecx,FWORD PTR [esp+eax*1]
 214:	04 00                	add    al,0x0
 216:	00 00                	add    BYTE PTR [eax],al
 218:	28 00                	sub    BYTE PTR [eax],al
 21a:	00 00                	add    BYTE PTR [eax],al
 21c:	1c 02                	sbb    al,0x2
 21e:	00 00                	add    BYTE PTR [eax],al
 220:	c3                   	ret    
 221:	18 00                	sbb    BYTE PTR [eax],al
 223:	00 6c 01 00          	add    BYTE PTR [ecx+eax*1+0x0],ch
 227:	00 00                	add    BYTE PTR [eax],al
 229:	41                   	inc    ecx
 22a:	0e                   	push   cs
 22b:	08 85 02 42 0d 05    	or     BYTE PTR [ebp+0x50d4202],al
 231:	45                   	inc    ebp
 232:	86 03                	xchg   BYTE PTR [ebx],al
 234:	83 04 03 61          	add    DWORD PTR [ebx+eax*1],0x61
 238:	01 c3                	add    ebx,eax
 23a:	41                   	inc    ecx
 23b:	c6 41 c5 0c          	mov    BYTE PTR [ecx-0x3b],0xc
 23f:	04 04                	add    al,0x4
 241:	00 00                	add    BYTE PTR [eax],al
 243:	00 24 00             	add    BYTE PTR [eax+eax*1],ah
 246:	00 00                	add    BYTE PTR [eax],al
 248:	48                   	dec    eax
 249:	02 00                	add    al,BYTE PTR [eax]
 24b:	00 2f                	add    BYTE PTR [edi],ch
 24d:	1a 00                	sbb    al,BYTE PTR [eax]
 24f:	00 00                	add    BYTE PTR [eax],al
 251:	01 00                	add    DWORD PTR [eax],eax
 253:	00 00                	add    BYTE PTR [eax],al
 255:	41                   	inc    ecx
 256:	0e                   	push   cs
 257:	08 85 02 42 0d 05    	or     BYTE PTR [ebp+0x50d4202],al
 25d:	45                   	inc    ebp
 25e:	86 03                	xchg   BYTE PTR [ebx],al
 260:	83 04 02 f5          	add    DWORD PTR [edx+eax*1],0xfffffff5
 264:	c3                   	ret    
 265:	41                   	inc    ecx
 266:	c6 41 c5 0c          	mov    BYTE PTR [ecx-0x3b],0xc
 26a:	04 04                	add    al,0x4
 26c:	28 00                	sub    BYTE PTR [eax],al
 26e:	00 00                	add    BYTE PTR [eax],al
 270:	70 02                	jo     274 <.eh_frame+0x274>
 272:	00 00                	add    BYTE PTR [eax],al
 274:	2f                   	das    
 275:	1b 00                	sbb    eax,DWORD PTR [eax]
 277:	00 55 01             	add    BYTE PTR [ebp+0x1],dl
 27a:	00 00                	add    BYTE PTR [eax],al
 27c:	00 41 0e             	add    BYTE PTR [ecx+0xe],al
 27f:	08 85 02 42 0d 05    	or     BYTE PTR [ebp+0x50d4202],al
 285:	45                   	inc    ebp
 286:	86 03                	xchg   BYTE PTR [ebx],al
 288:	83 04 03 4a          	add    DWORD PTR [ebx+eax*1],0x4a
 28c:	01 c3                	add    ebx,eax
 28e:	41                   	inc    ecx
 28f:	c6 41 c5 0c          	mov    BYTE PTR [ecx-0x3b],0xc
 293:	04 04                	add    al,0x4
 295:	00 00                	add    BYTE PTR [eax],al
 297:	00 28                	add    BYTE PTR [eax],ch
 299:	00 00                	add    BYTE PTR [eax],al
 29b:	00 9c 02 00 00 84 1c 	add    BYTE PTR [edx+eax*1+0x1c840000],bl
 2a2:	00 00                	add    BYTE PTR [eax],al
 2a4:	bd 01 00 00 00       	mov    ebp,0x1
 2a9:	41                   	inc    ecx
 2aa:	0e                   	push   cs
 2ab:	08 85 02 42 0d 05    	or     BYTE PTR [ebp+0x50d4202],al
 2b1:	42                   	inc    edx
 2b2:	86 03                	xchg   BYTE PTR [ebx],al
 2b4:	83 04 03 b5          	add    DWORD PTR [ebx+eax*1],0xffffffb5
 2b8:	01 c3                	add    ebx,eax
 2ba:	41                   	inc    ecx
 2bb:	c6 41 c5 0c          	mov    BYTE PTR [ecx-0x3b],0xc
 2bf:	04 04                	add    al,0x4
 2c1:	00 00                	add    BYTE PTR [eax],al
 2c3:	00 20                	add    BYTE PTR [eax],ah
 2c5:	00 00                	add    BYTE PTR [eax],al
 2c7:	00 c8                	add    al,cl
 2c9:	02 00                	add    al,BYTE PTR [eax]
 2cb:	00 41 1e             	add    BYTE PTR [ecx+0x1e],al
 2ce:	00 00                	add    BYTE PTR [eax],al
 2d0:	96                   	xchg   esi,eax
 2d1:	01 00                	add    DWORD PTR [eax],eax
 2d3:	00 00                	add    BYTE PTR [eax],al
 2d5:	41                   	inc    ecx
 2d6:	0e                   	push   cs
 2d7:	08 85 02 42 0d 05    	or     BYTE PTR [ebp+0x50d4202],al
 2dd:	47                   	inc    edi
 2de:	83 03 03             	add    DWORD PTR [ebx],0x3
 2e1:	8b 01                	mov    eax,DWORD PTR [ecx]
 2e3:	c5 c3 0c             	(bad)
 2e6:	04 04                	add    al,0x4
 2e8:	28 00                	sub    BYTE PTR [eax],al
 2ea:	00 00                	add    BYTE PTR [eax],al
 2ec:	ec                   	in     al,dx
 2ed:	02 00                	add    al,BYTE PTR [eax]
 2ef:	00 d7                	add    bh,dl
 2f1:	1f                   	pop    ds
 2f2:	00 00                	add    BYTE PTR [eax],al
 2f4:	73 01                	jae    2f7 <.eh_frame+0x2f7>
 2f6:	00 00                	add    BYTE PTR [eax],al
 2f8:	00 41 0e             	add    BYTE PTR [ecx+0xe],al
 2fb:	08 85 02 42 0d 05    	or     BYTE PTR [ebp+0x50d4202],al
 301:	42                   	inc    edx
 302:	86 03                	xchg   BYTE PTR [ebx],al
 304:	83 04 03 6b          	add    DWORD PTR [ebx+eax*1],0x6b
 308:	01 c3                	add    ebx,eax
 30a:	41                   	inc    ecx
 30b:	c6 41 c5 0c          	mov    BYTE PTR [ecx-0x3b],0xc
 30f:	04 04                	add    al,0x4
 311:	00 00                	add    BYTE PTR [eax],al
 313:	00 40 00             	add    BYTE PTR [eax+0x0],al
 316:	00 00                	add    BYTE PTR [eax],al
 318:	18 03                	sbb    BYTE PTR [ebx],al
 31a:	00 00                	add    BYTE PTR [eax],al
 31c:	4a                   	dec    edx
 31d:	21 00                	and    DWORD PTR [eax],eax
 31f:	00 28                	add    BYTE PTR [eax],ch
 321:	10 00                	adc    BYTE PTR [eax],al
 323:	00 00                	add    BYTE PTR [eax],al
 325:	44                   	inc    esp
 326:	0c 01                	or     al,0x1
 328:	00 47 10             	add    BYTE PTR [edi+0x10],al
 32b:	05 02 75 00 46       	add    eax,0x46007502
 330:	0f 03 75 70          	lsl    esi,WORD PTR [ebp+0x70]
 334:	06                   	push   es
 335:	10 07                	adc    BYTE PTR [edi],al
 337:	02 75 7c             	add    dh,BYTE PTR [ebp+0x7c]
 33a:	10 06                	adc    BYTE PTR [esi],al
 33c:	02 75 78             	add    dh,BYTE PTR [ebp+0x78]
 33f:	10 03                	adc    BYTE PTR [ebx],al
 341:	02 75 74             	add    dh,BYTE PTR [ebp+0x74]
 344:	03 0f                	add    ecx,DWORD PTR [edi]
 346:	10 c1                	adc    cl,al
 348:	0c 01                	or     al,0x1
 34a:	00 41 c3             	add    BYTE PTR [ecx-0x3d],al
 34d:	41                   	inc    ecx
 34e:	c6 41 c7 41          	mov    BYTE PTR [ecx-0x39],0x41
 352:	c5 43 0c             	lds    eax,FWORD PTR [ebx+0xc]
 355:	04 04                	add    al,0x4
 357:	00 10                	add    BYTE PTR [eax],dl
 359:	00 00                	add    BYTE PTR [eax],al
 35b:	00 5c 03 00          	add    BYTE PTR [ebx+eax*1+0x0],bl
 35f:	00 00                	add    BYTE PTR [eax],al
 361:	00 00                	add    BYTE PTR [eax],al
 363:	00 04 00             	add    BYTE PTR [eax+eax*1],al
 366:	00 00                	add    BYTE PTR [eax],al
 368:	00 00                	add    BYTE PTR [eax],al
 36a:	00 00                	add    BYTE PTR [eax],al
 36c:	10 00                	adc    BYTE PTR [eax],al
 36e:	00 00                	add    BYTE PTR [eax],al
 370:	70 03                	jo     375 <.eh_frame+0x375>
 372:	00 00                	add    BYTE PTR [eax],al
 374:	00 00                	add    BYTE PTR [eax],al
 376:	00 00                	add    BYTE PTR [eax],al
 378:	04 00                	add    al,0x0
 37a:	00 00                	add    BYTE PTR [eax],al
 37c:	00 00                	add    BYTE PTR [eax],al
 37e:	00 00                	add    BYTE PTR [eax],al
 380:	10 00                	adc    BYTE PTR [eax],al
 382:	00 00                	add    BYTE PTR [eax],al
 384:	84 03                	test   BYTE PTR [ebx],al
 386:	00 00                	add    BYTE PTR [eax],al
 388:	00 00                	add    BYTE PTR [eax],al
 38a:	00 00                	add    BYTE PTR [eax],al
 38c:	04 00                	add    al,0x0
 38e:	00 00                	add    BYTE PTR [eax],al
 390:	00 00                	add    BYTE PTR [eax],al
	...
