
crycon_linux.o:     формат файла elf32-i386


Дизассемблирование раздела .text:

00000000 <vector_init>:
       0:	55                   	push   ebp
       1:	89 e5                	mov    ebp,esp
       3:	53                   	push   ebx
       4:	57                   	push   edi
       5:	56                   	push   esi
       6:	83 ec 2c             	sub    esp,0x2c
       9:	8b 45 0c             	mov    eax,DWORD PTR [ebp+0xc]
       c:	8b 4d 08             	mov    ecx,DWORD PTR [ebp+0x8]
       f:	8d 15 00 00 00 00    	lea    edx,ds:0x0
      15:	89 14 24             	mov    DWORD PTR [esp],edx
      18:	8d 15 00 00 00 00    	lea    edx,ds:0x0
      1e:	89 54 24 04          	mov    DWORD PTR [esp+0x4],edx
      22:	89 45 e8             	mov    DWORD PTR [ebp-0x18],eax
      25:	89 4d e4             	mov    DWORD PTR [ebp-0x1c],ecx
      28:	e8 fc ff ff ff       	call   29 <vector_init+0x29>
      2d:	89 45 ec             	mov    DWORD PTR [ebp-0x14],eax
      30:	83 7d ec 00          	cmp    DWORD PTR [ebp-0x14],0x0
      34:	0f 84 34 00 00 00    	je     6e <vector_init+0x6e>
      3a:	8b 45 08             	mov    eax,DWORD PTR [ebp+0x8]
      3d:	8b 4d 0c             	mov    ecx,DWORD PTR [ebp+0xc]
      40:	8b 55 ec             	mov    edx,DWORD PTR [ebp-0x14]
      43:	89 04 24             	mov    DWORD PTR [esp],eax
      46:	c7 44 24 04 01 00 00 	mov    DWORD PTR [esp+0x4],0x1
      4d:	00 
      4e:	89 4c 24 08          	mov    DWORD PTR [esp+0x8],ecx
      52:	89 54 24 0c          	mov    DWORD PTR [esp+0xc],edx
      56:	e8 fc ff ff ff       	call   57 <vector_init+0x57>
      5b:	8b 4d ec             	mov    ecx,DWORD PTR [ebp-0x14]
      5e:	89 0c 24             	mov    DWORD PTR [esp],ecx
      61:	89 45 e0             	mov    DWORD PTR [ebp-0x20],eax
      64:	e8 fc ff ff ff       	call   65 <vector_init+0x65>
      69:	e9 17 00 00 00       	jmp    85 <vector_init+0x85>
      6e:	a1 00 00 00 00       	mov    eax,ds:0x0
      73:	89 04 24             	mov    DWORD PTR [esp],eax
      76:	8d 05 00 00 00 00    	lea    eax,ds:0x0
      7c:	89 44 24 04          	mov    DWORD PTR [esp+0x4],eax
      80:	e8 fc ff ff ff       	call   81 <vector_init+0x81>
      85:	c7 45 f0 00 00 00 00 	mov    DWORD PTR [ebp-0x10],0x0
      8c:	8b 45 f0             	mov    eax,DWORD PTR [ebp-0x10]
      8f:	3b 45 0c             	cmp    eax,DWORD PTR [ebp+0xc]
      92:	0f 83 47 00 00 00    	jae    df <vector_init+0xdf>
      98:	31 c0                	xor    eax,eax
      9a:	8b 4d f0             	mov    ecx,DWORD PTR [ebp-0x10]
      9d:	0f b6 d1             	movzx  edx,cl
      a0:	c7 04 24 00 00 00 00 	mov    DWORD PTR [esp],0x0
      a7:	c7 44 24 04 ff 00 00 	mov    DWORD PTR [esp+0x4],0xff
      ae:	00 
      af:	89 45 dc             	mov    DWORD PTR [ebp-0x24],eax
      b2:	89 55 d8             	mov    DWORD PTR [ebp-0x28],edx
      b5:	e8 fc ff ff ff       	call   b6 <vector_init+0xb6>
      ba:	0f b6 d0             	movzx  edx,al
      bd:	8b 75 d8             	mov    esi,DWORD PTR [ebp-0x28]
      c0:	31 d6                	xor    esi,edx
      c2:	8b 55 08             	mov    edx,DWORD PTR [ebp+0x8]
      c5:	8b 7d f0             	mov    edi,DWORD PTR [ebp-0x10]
      c8:	0f b6 1c 3a          	movzx  ebx,BYTE PTR [edx+edi*1]
      cc:	31 f3                	xor    ebx,esi
      ce:	88 1c 3a             	mov    BYTE PTR [edx+edi*1],bl
      d1:	8b 45 f0             	mov    eax,DWORD PTR [ebp-0x10]
      d4:	83 c0 01             	add    eax,0x1
      d7:	89 45 f0             	mov    DWORD PTR [ebp-0x10],eax
      da:	e9 ad ff ff ff       	jmp    8c <vector_init+0x8c>
      df:	8b 45 08             	mov    eax,DWORD PTR [ebp+0x8]
      e2:	8b 4d 0c             	mov    ecx,DWORD PTR [ebp+0xc]
      e5:	89 04 24             	mov    DWORD PTR [esp],eax
      e8:	89 4c 24 04          	mov    DWORD PTR [esp+0x4],ecx
      ec:	e8 0f 00 00 00       	call   100 <random_vector_init>
      f1:	83 c4 2c             	add    esp,0x2c
      f4:	5e                   	pop    esi
      f5:	5f                   	pop    edi
      f6:	5b                   	pop    ebx
      f7:	5d                   	pop    ebp
      f8:	c3                   	ret    
      f9:	90                   	nop
      fa:	90                   	nop
      fb:	90                   	nop
      fc:	90                   	nop
      fd:	90                   	nop
      fe:	90                   	nop
      ff:	90                   	nop

00000100 <random_vector_init>:
     100:	55                   	push   ebp
     101:	89 e5                	mov    ebp,esp
     103:	53                   	push   ebx
     104:	57                   	push   edi
     105:	56                   	push   esi
     106:	83 ec 3c             	sub    esp,0x3c
     109:	8b 45 0c             	mov    eax,DWORD PTR [ebp+0xc]
     10c:	8b 4d 08             	mov    ecx,DWORD PTR [ebp+0x8]
     10f:	c7 45 ec 08 01 00 00 	mov    DWORD PTR [ebp-0x14],0x108
     116:	8b 55 0c             	mov    edx,DWORD PTR [ebp+0xc]
     119:	89 55 e8             	mov    DWORD PTR [ebp-0x18],edx
     11c:	c7 45 e4 00 00 00 00 	mov    DWORD PTR [ebp-0x1c],0x0
     123:	c7 45 e0 00 00 00 00 	mov    DWORD PTR [ebp-0x20],0x0
     12a:	8b 55 e8             	mov    edx,DWORD PTR [ebp-0x18]
     12d:	89 14 24             	mov    DWORD PTR [esp],edx
     130:	89 45 dc             	mov    DWORD PTR [ebp-0x24],eax
     133:	89 4d d8             	mov    DWORD PTR [ebp-0x28],ecx
     136:	e8 fc ff ff ff       	call   137 <random_vector_init+0x37>
     13b:	89 45 e4             	mov    DWORD PTR [ebp-0x1c],eax
     13e:	8b 45 ec             	mov    eax,DWORD PTR [ebp-0x14]
     141:	89 04 24             	mov    DWORD PTR [esp],eax
     144:	e8 fc ff ff ff       	call   145 <random_vector_init+0x45>
     149:	89 45 e0             	mov    DWORD PTR [ebp-0x20],eax
     14c:	83 7d e0 00          	cmp    DWORD PTR [ebp-0x20],0x0
     150:	0f 84 0a 00 00 00    	je     160 <random_vector_init+0x60>
     156:	83 7d e4 00          	cmp    DWORD PTR [ebp-0x1c],0x0
     15a:	0f 85 39 00 00 00    	jne    199 <random_vector_init+0x99>
     160:	8b 45 e4             	mov    eax,DWORD PTR [ebp-0x1c]
     163:	89 04 24             	mov    DWORD PTR [esp],eax
     166:	e8 fc ff ff ff       	call   167 <random_vector_init+0x67>
     16b:	8b 45 e0             	mov    eax,DWORD PTR [ebp-0x20]
     16e:	89 04 24             	mov    DWORD PTR [esp],eax
     171:	e8 fc ff ff ff       	call   172 <random_vector_init+0x72>
     176:	a1 00 00 00 00       	mov    eax,ds:0x0
     17b:	89 04 24             	mov    DWORD PTR [esp],eax
     17e:	8d 05 00 00 00 00    	lea    eax,ds:0x0
     184:	89 44 24 04          	mov    DWORD PTR [esp+0x4],eax
     188:	e8 fc ff ff ff       	call   189 <random_vector_init+0x89>
     18d:	c7 04 24 01 00 00 00 	mov    DWORD PTR [esp],0x1
     194:	e8 fc ff ff ff       	call   195 <random_vector_init+0x95>
     199:	c7 45 f0 00 00 00 00 	mov    DWORD PTR [ebp-0x10],0x0
     1a0:	8b 45 f0             	mov    eax,DWORD PTR [ebp-0x10]
     1a3:	3b 45 e8             	cmp    eax,DWORD PTR [ebp-0x18]
     1a6:	0f 83 3b 00 00 00    	jae    1e7 <random_vector_init+0xe7>
     1ac:	31 c0                	xor    eax,eax
     1ae:	c7 04 24 00 00 00 00 	mov    DWORD PTR [esp],0x0
     1b5:	c7 44 24 04 ff 00 00 	mov    DWORD PTR [esp+0x4],0xff
     1bc:	00 
     1bd:	89 45 d4             	mov    DWORD PTR [ebp-0x2c],eax
     1c0:	e8 fc ff ff ff       	call   1c1 <random_vector_init+0xc1>
     1c5:	0f b6 c8             	movzx  ecx,al
     1c8:	8b 55 e4             	mov    edx,DWORD PTR [ebp-0x1c]
     1cb:	8b 75 f0             	mov    esi,DWORD PTR [ebp-0x10]
     1ce:	0f b6 3c 32          	movzx  edi,BYTE PTR [edx+esi*1]
     1d2:	89 fb                	mov    ebx,edi
     1d4:	31 cb                	xor    ebx,ecx
     1d6:	88 1c 32             	mov    BYTE PTR [edx+esi*1],bl
     1d9:	8b 45 f0             	mov    eax,DWORD PTR [ebp-0x10]
     1dc:	83 c0 01             	add    eax,0x1
     1df:	89 45 f0             	mov    DWORD PTR [ebp-0x10],eax
     1e2:	e9 b9 ff ff ff       	jmp    1a0 <random_vector_init+0xa0>
     1e7:	8b 45 e0             	mov    eax,DWORD PTR [ebp-0x20]
     1ea:	8b 4d 08             	mov    ecx,DWORD PTR [ebp+0x8]
     1ed:	8b 55 0c             	mov    edx,DWORD PTR [ebp+0xc]
     1f0:	89 04 24             	mov    DWORD PTR [esp],eax
     1f3:	89 4c 24 04          	mov    DWORD PTR [esp+0x4],ecx
     1f7:	89 54 24 08          	mov    DWORD PTR [esp+0x8],edx
     1fb:	e8 fc ff ff ff       	call   1fc <random_vector_init+0xfc>
     200:	8b 45 e0             	mov    eax,DWORD PTR [ebp-0x20]
     203:	8b 4d e4             	mov    ecx,DWORD PTR [ebp-0x1c]
     206:	8b 55 08             	mov    edx,DWORD PTR [ebp+0x8]
     209:	8b 75 0c             	mov    esi,DWORD PTR [ebp+0xc]
     20c:	89 04 24             	mov    DWORD PTR [esp],eax
     20f:	89 4c 24 04          	mov    DWORD PTR [esp+0x4],ecx
     213:	89 54 24 08          	mov    DWORD PTR [esp+0x8],edx
     217:	89 74 24 0c          	mov    DWORD PTR [esp+0xc],esi
     21b:	e8 fc ff ff ff       	call   21c <random_vector_init+0x11c>
     220:	31 c0                	xor    eax,eax
     222:	8b 4d e4             	mov    ecx,DWORD PTR [ebp-0x1c]
     225:	8b 55 e8             	mov    edx,DWORD PTR [ebp-0x18]
     228:	89 0c 24             	mov    DWORD PTR [esp],ecx
     22b:	c7 44 24 04 00 00 00 	mov    DWORD PTR [esp+0x4],0x0
     232:	00 
     233:	89 54 24 08          	mov    DWORD PTR [esp+0x8],edx
     237:	89 45 d0             	mov    DWORD PTR [ebp-0x30],eax
     23a:	e8 fc ff ff ff       	call   23b <random_vector_init+0x13b>
     23f:	31 c0                	xor    eax,eax
     241:	8b 4d e0             	mov    ecx,DWORD PTR [ebp-0x20]
     244:	8b 55 ec             	mov    edx,DWORD PTR [ebp-0x14]
     247:	89 0c 24             	mov    DWORD PTR [esp],ecx
     24a:	c7 44 24 04 00 00 00 	mov    DWORD PTR [esp+0x4],0x0
     251:	00 
     252:	89 54 24 08          	mov    DWORD PTR [esp+0x8],edx
     256:	89 45 cc             	mov    DWORD PTR [ebp-0x34],eax
     259:	e8 fc ff ff ff       	call   25a <random_vector_init+0x15a>
     25e:	8b 45 e4             	mov    eax,DWORD PTR [ebp-0x1c]
     261:	89 04 24             	mov    DWORD PTR [esp],eax
     264:	e8 fc ff ff ff       	call   265 <random_vector_init+0x165>
     269:	8b 45 e0             	mov    eax,DWORD PTR [ebp-0x20]
     26c:	89 04 24             	mov    DWORD PTR [esp],eax
     26f:	e8 fc ff ff ff       	call   270 <random_vector_init+0x170>
     274:	c7 45 e4 00 00 00 00 	mov    DWORD PTR [ebp-0x1c],0x0
     27b:	c7 45 e0 00 00 00 00 	mov    DWORD PTR [ebp-0x20],0x0
     282:	c7 45 e8 00 00 00 00 	mov    DWORD PTR [ebp-0x18],0x0
     289:	c7 45 ec 00 00 00 00 	mov    DWORD PTR [ebp-0x14],0x0
     290:	83 c4 3c             	add    esp,0x3c
     293:	5e                   	pop    esi
     294:	5f                   	pop    edi
     295:	5b                   	pop    ebx
     296:	5d                   	pop    ebp
     297:	c3                   	ret    
     298:	90                   	nop
     299:	90                   	nop
     29a:	90                   	nop
     29b:	90                   	nop
     29c:	90                   	nop
     29d:	90                   	nop
     29e:	90                   	nop
     29f:	90                   	nop

000002a0 <PRINT_OPERATION_STATUS>:
     2a0:	55                   	push   ebp
     2a1:	89 e5                	mov    ebp,esp
     2a3:	56                   	push   esi
     2a4:	83 ec 24             	sub    esp,0x24
     2a7:	8b 45 0c             	mov    eax,DWORD PTR [ebp+0xc]
     2aa:	8b 4d 08             	mov    ecx,DWORD PTR [ebp+0x8]
     2ad:	8b 55 0c             	mov    edx,DWORD PTR [ebp+0xc]
     2b0:	89 d6                	mov    esi,edx
     2b2:	83 ee 08             	sub    esi,0x8
     2b5:	89 55 f8             	mov    DWORD PTR [ebp-0x8],edx
     2b8:	0f 87 79 01 00 00    	ja     437 <PRINT_OPERATION_STATUS+0x197>
     2be:	8b 45 f8             	mov    eax,DWORD PTR [ebp-0x8]
     2c1:	8b 0c 85 00 00 00 00 	mov    ecx,DWORD PTR [eax*4+0x0]
     2c8:	ff e1                	jmp    ecx
     2ca:	8b 45 08             	mov    eax,DWORD PTR [ebp+0x8]
     2cd:	8b 80 44 00 00 01    	mov    eax,DWORD PTR [eax+0x1000044]
     2d3:	89 04 24             	mov    DWORD PTR [esp],eax
     2d6:	e8 65 01 00 00       	call   440 <operation_variant>
     2db:	8b 04 85 0c 00 00 00 	mov    eax,DWORD PTR [eax*4+0xc]
     2e2:	8b 4d 08             	mov    ecx,DWORD PTR [ebp+0x8]
     2e5:	8b 09                	mov    ecx,DWORD PTR [ecx]
     2e7:	8d 15 00 00 00 00    	lea    edx,ds:0x0
     2ed:	89 14 24             	mov    DWORD PTR [esp],edx
     2f0:	89 44 24 04          	mov    DWORD PTR [esp+0x4],eax
     2f4:	89 4c 24 08          	mov    DWORD PTR [esp+0x8],ecx
     2f8:	e8 fc ff ff ff       	call   2f9 <PRINT_OPERATION_STATUS+0x59>
     2fd:	e9 35 01 00 00       	jmp    437 <PRINT_OPERATION_STATUS+0x197>
     302:	a1 00 00 00 00       	mov    eax,ds:0x0
     307:	8b 4d 08             	mov    ecx,DWORD PTR [ebp+0x8]
     30a:	8b 89 44 00 00 01    	mov    ecx,DWORD PTR [ecx+0x1000044]
     310:	89 0c 24             	mov    DWORD PTR [esp],ecx
     313:	89 45 f4             	mov    DWORD PTR [ebp-0xc],eax
     316:	e8 25 01 00 00       	call   440 <operation_variant>
     31b:	8b 04 85 0c 00 00 00 	mov    eax,DWORD PTR [eax*4+0xc]
     322:	8b 4d 08             	mov    ecx,DWORD PTR [ebp+0x8]
     325:	8b 09                	mov    ecx,DWORD PTR [ecx]
     327:	8b 55 f4             	mov    edx,DWORD PTR [ebp-0xc]
     32a:	89 14 24             	mov    DWORD PTR [esp],edx
     32d:	8d 15 00 00 00 00    	lea    edx,ds:0x0
     333:	89 54 24 04          	mov    DWORD PTR [esp+0x4],edx
     337:	89 44 24 08          	mov    DWORD PTR [esp+0x8],eax
     33b:	89 4c 24 0c          	mov    DWORD PTR [esp+0xc],ecx
     33f:	e8 fc ff ff ff       	call   340 <PRINT_OPERATION_STATUS+0xa0>
     344:	e9 ee 00 00 00       	jmp    437 <PRINT_OPERATION_STATUS+0x197>
     349:	a1 00 00 00 00       	mov    eax,ds:0x0
     34e:	8b 4d 08             	mov    ecx,DWORD PTR [ebp+0x8]
     351:	8b 49 04             	mov    ecx,DWORD PTR [ecx+0x4]
     354:	89 04 24             	mov    DWORD PTR [esp],eax
     357:	8d 05 00 00 00 00    	lea    eax,ds:0x0
     35d:	89 44 24 04          	mov    DWORD PTR [esp+0x4],eax
     361:	89 4c 24 08          	mov    DWORD PTR [esp+0x8],ecx
     365:	e8 fc ff ff ff       	call   366 <PRINT_OPERATION_STATUS+0xc6>
     36a:	e9 c8 00 00 00       	jmp    437 <PRINT_OPERATION_STATUS+0x197>
     36f:	a1 00 00 00 00       	mov    eax,ds:0x0
     374:	8b 4d 08             	mov    ecx,DWORD PTR [ebp+0x8]
     377:	8b 09                	mov    ecx,DWORD PTR [ecx]
     379:	89 04 24             	mov    DWORD PTR [esp],eax
     37c:	8d 05 00 00 00 00    	lea    eax,ds:0x0
     382:	89 44 24 04          	mov    DWORD PTR [esp+0x4],eax
     386:	89 4c 24 08          	mov    DWORD PTR [esp+0x8],ecx
     38a:	e8 fc ff ff ff       	call   38b <PRINT_OPERATION_STATUS+0xeb>
     38f:	e9 a3 00 00 00       	jmp    437 <PRINT_OPERATION_STATUS+0x197>
     394:	a1 00 00 00 00       	mov    eax,ds:0x0
     399:	8b 4d 08             	mov    ecx,DWORD PTR [ebp+0x8]
     39c:	8b 49 04             	mov    ecx,DWORD PTR [ecx+0x4]
     39f:	89 04 24             	mov    DWORD PTR [esp],eax
     3a2:	8d 05 00 00 00 00    	lea    eax,ds:0x0
     3a8:	89 44 24 04          	mov    DWORD PTR [esp+0x4],eax
     3ac:	89 4c 24 08          	mov    DWORD PTR [esp+0x8],ecx
     3b0:	e8 fc ff ff ff       	call   3b1 <PRINT_OPERATION_STATUS+0x111>
     3b5:	e9 7d 00 00 00       	jmp    437 <PRINT_OPERATION_STATUS+0x197>
     3ba:	a1 00 00 00 00       	mov    eax,ds:0x0
     3bf:	8b 4d 08             	mov    ecx,DWORD PTR [ebp+0x8]
     3c2:	8b 09                	mov    ecx,DWORD PTR [ecx]
     3c4:	89 04 24             	mov    DWORD PTR [esp],eax
     3c7:	8d 05 00 00 00 00    	lea    eax,ds:0x0
     3cd:	89 44 24 04          	mov    DWORD PTR [esp+0x4],eax
     3d1:	89 4c 24 08          	mov    DWORD PTR [esp+0x8],ecx
     3d5:	e8 fc ff ff ff       	call   3d6 <PRINT_OPERATION_STATUS+0x136>
     3da:	e9 58 00 00 00       	jmp    437 <PRINT_OPERATION_STATUS+0x197>
     3df:	a1 00 00 00 00       	mov    eax,ds:0x0
     3e4:	89 04 24             	mov    DWORD PTR [esp],eax
     3e7:	8d 05 00 00 00 00    	lea    eax,ds:0x0
     3ed:	89 44 24 04          	mov    DWORD PTR [esp+0x4],eax
     3f1:	e8 fc ff ff ff       	call   3f2 <PRINT_OPERATION_STATUS+0x152>
     3f6:	e9 3c 00 00 00       	jmp    437 <PRINT_OPERATION_STATUS+0x197>
     3fb:	a1 00 00 00 00       	mov    eax,ds:0x0
     400:	89 04 24             	mov    DWORD PTR [esp],eax
     403:	8d 05 00 00 00 00    	lea    eax,ds:0x0
     409:	89 44 24 04          	mov    DWORD PTR [esp+0x4],eax
     40d:	e8 fc ff ff ff       	call   40e <PRINT_OPERATION_STATUS+0x16e>
     412:	e9 20 00 00 00       	jmp    437 <PRINT_OPERATION_STATUS+0x197>
     417:	a1 00 00 00 00       	mov    eax,ds:0x0
     41c:	8b 4d 08             	mov    ecx,DWORD PTR [ebp+0x8]
     41f:	8b 09                	mov    ecx,DWORD PTR [ecx]
     421:	89 04 24             	mov    DWORD PTR [esp],eax
     424:	8d 05 00 00 00 00    	lea    eax,ds:0x0
     42a:	89 44 24 04          	mov    DWORD PTR [esp+0x4],eax
     42e:	89 4c 24 08          	mov    DWORD PTR [esp+0x8],ecx
     432:	e8 fc ff ff ff       	call   433 <PRINT_OPERATION_STATUS+0x193>
     437:	83 c4 24             	add    esp,0x24
     43a:	5e                   	pop    esi
     43b:	5d                   	pop    ebp
     43c:	c3                   	ret    
     43d:	90                   	nop
     43e:	90                   	nop
     43f:	90                   	nop

00000440 <operation_variant>:
     440:	55                   	push   ebp
     441:	89 e5                	mov    ebp,esp
     443:	50                   	push   eax
     444:	8b 45 08             	mov    eax,DWORD PTR [ebp+0x8]
     447:	31 c9                	xor    ecx,ecx
     449:	8b 55 08             	mov    edx,DWORD PTR [ebp+0x8]
     44c:	83 fa 00             	cmp    edx,0x0
     44f:	ba 01 00 00 00       	mov    edx,0x1
     454:	0f 45 ca             	cmovne ecx,edx
     457:	89 45 fc             	mov    DWORD PTR [ebp-0x4],eax
     45a:	89 c8                	mov    eax,ecx
     45c:	83 c4 04             	add    esp,0x4
     45f:	5d                   	pop    ebp
     460:	c3                   	ret    
     461:	90                   	nop
     462:	90                   	nop
     463:	90                   	nop
     464:	90                   	nop
     465:	90                   	nop
     466:	90                   	nop
     467:	90                   	nop
     468:	90                   	nop
     469:	90                   	nop
     46a:	90                   	nop
     46b:	90                   	nop
     46c:	90                   	nop
     46d:	90                   	nop
     46e:	90                   	nop
     46f:	90                   	nop

00000470 <password_read>:
     470:	55                   	push   ebp
     471:	89 e5                	mov    ebp,esp
     473:	57                   	push   edi
     474:	56                   	push   esi
     475:	81 ec d0 00 00 00    	sub    esp,0xd0
     47b:	8b 45 08             	mov    eax,DWORD PTR [ebp+0x8]
     47e:	31 c9                	xor    ecx,ecx
     480:	c7 04 24 00 00 00 00 	mov    DWORD PTR [esp],0x0
     487:	8d 55 b0             	lea    edx,[ebp-0x50]
     48a:	89 54 24 04          	mov    DWORD PTR [esp+0x4],edx
     48e:	89 85 6c ff ff ff    	mov    DWORD PTR [ebp-0x94],eax
     494:	89 8d 68 ff ff ff    	mov    DWORD PTR [ebp-0x98],ecx
     49a:	e8 fc ff ff ff       	call   49b <password_read+0x2b>
     49f:	31 c9                	xor    ecx,ecx
     4a1:	8d 95 70 ff ff ff    	lea    edx,[ebp-0x90]
     4a7:	8d 75 b0             	lea    esi,[ebp-0x50]
     4aa:	89 f7                	mov    edi,esi
     4ac:	89 14 24             	mov    DWORD PTR [esp],edx
     4af:	89 7c 24 04          	mov    DWORD PTR [esp+0x4],edi
     4b3:	c7 44 24 08 3c 00 00 	mov    DWORD PTR [esp+0x8],0x3c
     4ba:	00 
     4bb:	89 85 64 ff ff ff    	mov    DWORD PTR [ebp-0x9c],eax
     4c1:	89 8d 60 ff ff ff    	mov    DWORD PTR [ebp-0xa0],ecx
     4c7:	89 b5 5c ff ff ff    	mov    DWORD PTR [ebp-0xa4],esi
     4cd:	e8 fc ff ff ff       	call   4ce <password_read+0x5e>
     4d2:	8b 45 bc             	mov    eax,DWORD PTR [ebp-0x44]
     4d5:	83 e0 f7             	and    eax,0xfffffff7
     4d8:	89 45 bc             	mov    DWORD PTR [ebp-0x44],eax
     4db:	c7 04 24 00 00 00 00 	mov    DWORD PTR [esp],0x0
     4e2:	c7 44 24 04 00 00 00 	mov    DWORD PTR [esp+0x4],0x0
     4e9:	00 
     4ea:	8b 85 5c ff ff ff    	mov    eax,DWORD PTR [ebp-0xa4]
     4f0:	89 44 24 08          	mov    DWORD PTR [esp+0x8],eax
     4f4:	e8 fc ff ff ff       	call   4f5 <password_read+0x85>
     4f9:	31 c9                	xor    ecx,ecx
     4fb:	c7 04 24 00 00 00 00 	mov    DWORD PTR [esp],0x0
     502:	8d 55 b0             	lea    edx,[ebp-0x50]
     505:	89 54 24 04          	mov    DWORD PTR [esp+0x4],edx
     509:	89 85 58 ff ff ff    	mov    DWORD PTR [ebp-0xa8],eax
     50f:	89 8d 54 ff ff ff    	mov    DWORD PTR [ebp-0xac],ecx
     515:	e8 fc ff ff ff       	call   516 <password_read+0xa6>
     51a:	8b 0d 00 00 00 00    	mov    ecx,DWORD PTR ds:0x0
     520:	89 0c 24             	mov    DWORD PTR [esp],ecx
     523:	89 85 50 ff ff ff    	mov    DWORD PTR [ebp-0xb0],eax
     529:	e8 fc ff ff ff       	call   52a <password_read+0xba>
     52e:	8b 0d 00 00 00 00    	mov    ecx,DWORD PTR ds:0x0
     534:	89 0c 24             	mov    DWORD PTR [esp],ecx
     537:	89 85 4c ff ff ff    	mov    DWORD PTR [ebp-0xb4],eax
     53d:	e8 fc ff ff ff       	call   53e <password_read+0xce>
     542:	8d 0d 00 00 00 00    	lea    ecx,ds:0x0
     548:	89 0c 24             	mov    DWORD PTR [esp],ecx
     54b:	89 85 48 ff ff ff    	mov    DWORD PTR [ebp-0xb8],eax
     551:	e8 fc ff ff ff       	call   552 <password_read+0xe2>
     556:	8b 4d 08             	mov    ecx,DWORD PTR [ebp+0x8]
     559:	8b 49 08             	mov    ecx,DWORD PTR [ecx+0x8]
     55c:	8b 55 08             	mov    edx,DWORD PTR [ebp+0x8]
     55f:	8b 52 0c             	mov    edx,DWORD PTR [edx+0xc]
     562:	8b 35 00 00 00 00    	mov    esi,DWORD PTR ds:0x0
     568:	89 0c 24             	mov    DWORD PTR [esp],ecx
     56b:	89 54 24 04          	mov    DWORD PTR [esp+0x4],edx
     56f:	89 74 24 08          	mov    DWORD PTR [esp+0x8],esi
     573:	89 85 44 ff ff ff    	mov    DWORD PTR [ebp-0xbc],eax
     579:	e8 fc ff ff ff       	call   57a <password_read+0x10a>
     57e:	83 f8 00             	cmp    eax,0x0
     581:	0f 85 23 00 00 00    	jne    5aa <password_read+0x13a>
     587:	a1 00 00 00 00       	mov    eax,ds:0x0
     58c:	89 04 24             	mov    DWORD PTR [esp],eax
     58f:	8d 05 00 00 00 00    	lea    eax,ds:0x0
     595:	89 44 24 04          	mov    DWORD PTR [esp+0x4],eax
     599:	e8 fc ff ff ff       	call   59a <password_read+0x12a>
     59e:	c7 45 f4 03 00 00 00 	mov    DWORD PTR [ebp-0xc],0x3
     5a5:	e9 9e 00 00 00       	jmp    648 <password_read+0x1d8>
     5aa:	c7 45 f0 00 00 00 00 	mov    DWORD PTR [ebp-0x10],0x0
     5b1:	8b 45 f0             	mov    eax,DWORD PTR [ebp-0x10]
     5b4:	8b 4d 08             	mov    ecx,DWORD PTR [ebp+0x8]
     5b7:	3b 41 0c             	cmp    eax,DWORD PTR [ecx+0xc]
     5ba:	0f 83 3f 00 00 00    	jae    5ff <password_read+0x18f>
     5c0:	8b 45 08             	mov    eax,DWORD PTR [ebp+0x8]
     5c3:	8b 40 08             	mov    eax,DWORD PTR [eax+0x8]
     5c6:	8b 4d f0             	mov    ecx,DWORD PTR [ebp-0x10]
     5c9:	0f be 04 08          	movsx  eax,BYTE PTR [eax+ecx*1]
     5cd:	b9 0a 00 00 00       	mov    ecx,0xa
     5d2:	39 c1                	cmp    ecx,eax
     5d4:	0f 85 12 00 00 00    	jne    5ec <password_read+0x17c>
     5da:	8b 45 08             	mov    eax,DWORD PTR [ebp+0x8]
     5dd:	8b 40 08             	mov    eax,DWORD PTR [eax+0x8]
     5e0:	8b 4d f0             	mov    ecx,DWORD PTR [ebp-0x10]
     5e3:	c6 04 08 00          	mov    BYTE PTR [eax+ecx*1],0x0
     5e7:	e9 13 00 00 00       	jmp    5ff <password_read+0x18f>
     5ec:	e9 00 00 00 00       	jmp    5f1 <password_read+0x181>
     5f1:	8b 45 f0             	mov    eax,DWORD PTR [ebp-0x10]
     5f4:	83 c0 01             	add    eax,0x1
     5f7:	89 45 f0             	mov    DWORD PTR [ebp-0x10],eax
     5fa:	e9 b2 ff ff ff       	jmp    5b1 <password_read+0x141>
     5ff:	31 c0                	xor    eax,eax
     601:	c7 04 24 00 00 00 00 	mov    DWORD PTR [esp],0x0
     608:	c7 44 24 04 00 00 00 	mov    DWORD PTR [esp+0x4],0x0
     60f:	00 
     610:	8d 8d 70 ff ff ff    	lea    ecx,[ebp-0x90]
     616:	89 4c 24 08          	mov    DWORD PTR [esp+0x8],ecx
     61a:	89 85 40 ff ff ff    	mov    DWORD PTR [ebp-0xc0],eax
     620:	e8 fc ff ff ff       	call   621 <password_read+0x1b1>
     625:	8b 0d 00 00 00 00    	mov    ecx,DWORD PTR ds:0x0
     62b:	c7 04 24 0a 00 00 00 	mov    DWORD PTR [esp],0xa
     632:	89 4c 24 04          	mov    DWORD PTR [esp+0x4],ecx
     636:	89 85 3c ff ff ff    	mov    DWORD PTR [ebp-0xc4],eax
     63c:	e8 fc ff ff ff       	call   63d <password_read+0x1cd>
     641:	c7 45 f4 00 00 00 00 	mov    DWORD PTR [ebp-0xc],0x0
     648:	8b 45 f4             	mov    eax,DWORD PTR [ebp-0xc]
     64b:	81 c4 d0 00 00 00    	add    esp,0xd0
     651:	5e                   	pop    esi
     652:	5f                   	pop    edi
     653:	5d                   	pop    ebp
     654:	c3                   	ret    
     655:	90                   	nop
     656:	90                   	nop
     657:	90                   	nop
     658:	90                   	nop
     659:	90                   	nop
     65a:	90                   	nop
     65b:	90                   	nop
     65c:	90                   	nop
     65d:	90                   	nop
     65e:	90                   	nop
     65f:	90                   	nop

00000660 <INITIALIZED_GLOBAL_MEMORY>:
     660:	55                   	push   ebp
     661:	89 e5                	mov    ebp,esp
     663:	83 ec 28             	sub    esp,0x28
     666:	8b 45 0c             	mov    eax,DWORD PTR [ebp+0xc]
     669:	8b 4d 08             	mov    ecx,DWORD PTR [ebp+0x8]
     66c:	8b 55 0c             	mov    edx,DWORD PTR [ebp+0xc]
     66f:	89 14 24             	mov    DWORD PTR [esp],edx
     672:	89 45 f8             	mov    DWORD PTR [ebp-0x8],eax
     675:	89 4d f4             	mov    DWORD PTR [ebp-0xc],ecx
     678:	e8 fc ff ff ff       	call   679 <INITIALIZED_GLOBAL_MEMORY+0x19>
     67d:	31 c9                	xor    ecx,ecx
     67f:	8b 55 08             	mov    edx,DWORD PTR [ebp+0x8]
     682:	89 02                	mov    DWORD PTR [edx],eax
     684:	8b 45 08             	mov    eax,DWORD PTR [ebp+0x8]
     687:	3b 08                	cmp    ecx,DWORD PTR [eax]
     689:	0f 85 0c 00 00 00    	jne    69b <INITIALIZED_GLOBAL_MEMORY+0x3b>
     68f:	c7 45 fc 01 00 00 00 	mov    DWORD PTR [ebp-0x4],0x1
     696:	e9 5f 01 00 00       	jmp    7fa <INITIALIZED_GLOBAL_MEMORY+0x19a>
     69b:	31 c0                	xor    eax,eax
     69d:	8b 4d 08             	mov    ecx,DWORD PTR [ebp+0x8]
     6a0:	8b 09                	mov    ecx,DWORD PTR [ecx]
     6a2:	8b 55 0c             	mov    edx,DWORD PTR [ebp+0xc]
     6a5:	89 0c 24             	mov    DWORD PTR [esp],ecx
     6a8:	c7 44 24 04 00 00 00 	mov    DWORD PTR [esp+0x4],0x0
     6af:	00 
     6b0:	89 54 24 08          	mov    DWORD PTR [esp+0x8],edx
     6b4:	89 45 f0             	mov    DWORD PTR [ebp-0x10],eax
     6b7:	e8 fc ff ff ff       	call   6b8 <INITIALIZED_GLOBAL_MEMORY+0x58>
     6bc:	8b 45 08             	mov    eax,DWORD PTR [ebp+0x8]
     6bf:	8b 00                	mov    eax,DWORD PTR [eax]
     6c1:	c7 00 00 00 00 00    	mov    DWORD PTR [eax],0x0
     6c7:	8b 45 08             	mov    eax,DWORD PTR [ebp+0x8]
     6ca:	8b 00                	mov    eax,DWORD PTR [eax]
     6cc:	c7 40 04 00 00 00 00 	mov    DWORD PTR [eax+0x4],0x0
     6d3:	8b 45 08             	mov    eax,DWORD PTR [ebp+0x8]
     6d6:	8b 00                	mov    eax,DWORD PTR [eax]
     6d8:	c7 40 18 00 00 00 00 	mov    DWORD PTR [eax+0x18],0x0
     6df:	8b 45 08             	mov    eax,DWORD PTR [ebp+0x8]
     6e2:	8b 00                	mov    eax,DWORD PTR [eax]
     6e4:	c7 40 20 00 00 00 00 	mov    DWORD PTR [eax+0x20],0x0
     6eb:	8b 45 08             	mov    eax,DWORD PTR [ebp+0x8]
     6ee:	8b 00                	mov    eax,DWORD PTR [eax]
     6f0:	c7 80 44 00 00 01 00 	mov    DWORD PTR [eax+0x1000044],0x0
     6f7:	00 00 00 
     6fa:	8b 45 08             	mov    eax,DWORD PTR [ebp+0x8]
     6fd:	8b 00                	mov    eax,DWORD PTR [eax]
     6ff:	c7 80 48 00 00 01 00 	mov    DWORD PTR [eax+0x1000048],0x0
     706:	00 00 00 
     709:	8b 45 08             	mov    eax,DWORD PTR [ebp+0x8]
     70c:	8b 00                	mov    eax,DWORD PTR [eax]
     70e:	c7 40 1c 00 00 00 00 	mov    DWORD PTR [eax+0x1c],0x0
     715:	8b 45 08             	mov    eax,DWORD PTR [ebp+0x8]
     718:	8b 00                	mov    eax,DWORD PTR [eax]
     71a:	c7 40 24 00 00 00 00 	mov    DWORD PTR [eax+0x24],0x0
     721:	8b 45 08             	mov    eax,DWORD PTR [ebp+0x8]
     724:	8b 00                	mov    eax,DWORD PTR [eax]
     726:	c7 40 0c 00 08 00 00 	mov    DWORD PTR [eax+0xc],0x800
     72d:	8b 45 08             	mov    eax,DWORD PTR [ebp+0x8]
     730:	8b 00                	mov    eax,DWORD PTR [eax]
     732:	c7 40 14 8c 00 00 00 	mov    DWORD PTR [eax+0x14],0x8c
     739:	8b 45 08             	mov    eax,DWORD PTR [ebp+0x8]
     73c:	8b 00                	mov    eax,DWORD PTR [eax]
     73e:	8b 40 0c             	mov    eax,DWORD PTR [eax+0xc]
     741:	89 04 24             	mov    DWORD PTR [esp],eax
     744:	e8 fc ff ff ff       	call   745 <INITIALIZED_GLOBAL_MEMORY+0xe5>
     749:	31 c9                	xor    ecx,ecx
     74b:	8b 55 08             	mov    edx,DWORD PTR [ebp+0x8]
     74e:	8b 12                	mov    edx,DWORD PTR [edx]
     750:	89 42 08             	mov    DWORD PTR [edx+0x8],eax
     753:	8b 45 08             	mov    eax,DWORD PTR [ebp+0x8]
     756:	8b 00                	mov    eax,DWORD PTR [eax]
     758:	3b 48 08             	cmp    ecx,DWORD PTR [eax+0x8]
     75b:	0f 85 0c 00 00 00    	jne    76d <INITIALIZED_GLOBAL_MEMORY+0x10d>
     761:	c7 45 fc 02 00 00 00 	mov    DWORD PTR [ebp-0x4],0x2
     768:	e9 8d 00 00 00       	jmp    7fa <INITIALIZED_GLOBAL_MEMORY+0x19a>
     76d:	8b 45 08             	mov    eax,DWORD PTR [ebp+0x8]
     770:	8b 00                	mov    eax,DWORD PTR [eax]
     772:	8b 40 14             	mov    eax,DWORD PTR [eax+0x14]
     775:	89 04 24             	mov    DWORD PTR [esp],eax
     778:	e8 fc ff ff ff       	call   779 <INITIALIZED_GLOBAL_MEMORY+0x119>
     77d:	31 c9                	xor    ecx,ecx
     77f:	8b 55 08             	mov    edx,DWORD PTR [ebp+0x8]
     782:	8b 12                	mov    edx,DWORD PTR [edx]
     784:	89 42 10             	mov    DWORD PTR [edx+0x10],eax
     787:	8b 45 08             	mov    eax,DWORD PTR [ebp+0x8]
     78a:	8b 00                	mov    eax,DWORD PTR [eax]
     78c:	3b 48 10             	cmp    ecx,DWORD PTR [eax+0x10]
     78f:	0f 85 0c 00 00 00    	jne    7a1 <INITIALIZED_GLOBAL_MEMORY+0x141>
     795:	c7 45 fc 03 00 00 00 	mov    DWORD PTR [ebp-0x4],0x3
     79c:	e9 59 00 00 00       	jmp    7fa <INITIALIZED_GLOBAL_MEMORY+0x19a>
     7a1:	31 c0                	xor    eax,eax
     7a3:	8b 4d 08             	mov    ecx,DWORD PTR [ebp+0x8]
     7a6:	8b 09                	mov    ecx,DWORD PTR [ecx]
     7a8:	8b 49 08             	mov    ecx,DWORD PTR [ecx+0x8]
     7ab:	8b 55 08             	mov    edx,DWORD PTR [ebp+0x8]
     7ae:	8b 12                	mov    edx,DWORD PTR [edx]
     7b0:	8b 52 0c             	mov    edx,DWORD PTR [edx+0xc]
     7b3:	89 0c 24             	mov    DWORD PTR [esp],ecx
     7b6:	c7 44 24 04 00 00 00 	mov    DWORD PTR [esp+0x4],0x0
     7bd:	00 
     7be:	89 54 24 08          	mov    DWORD PTR [esp+0x8],edx
     7c2:	89 45 ec             	mov    DWORD PTR [ebp-0x14],eax
     7c5:	e8 fc ff ff ff       	call   7c6 <INITIALIZED_GLOBAL_MEMORY+0x166>
     7ca:	31 c0                	xor    eax,eax
     7cc:	8b 4d 08             	mov    ecx,DWORD PTR [ebp+0x8]
     7cf:	8b 09                	mov    ecx,DWORD PTR [ecx]
     7d1:	8b 49 10             	mov    ecx,DWORD PTR [ecx+0x10]
     7d4:	8b 55 08             	mov    edx,DWORD PTR [ebp+0x8]
     7d7:	8b 12                	mov    edx,DWORD PTR [edx]
     7d9:	8b 52 14             	mov    edx,DWORD PTR [edx+0x14]
     7dc:	89 0c 24             	mov    DWORD PTR [esp],ecx
     7df:	c7 44 24 04 00 00 00 	mov    DWORD PTR [esp+0x4],0x0
     7e6:	00 
     7e7:	89 54 24 08          	mov    DWORD PTR [esp+0x8],edx
     7eb:	89 45 e8             	mov    DWORD PTR [ebp-0x18],eax
     7ee:	e8 fc ff ff ff       	call   7ef <INITIALIZED_GLOBAL_MEMORY+0x18f>
     7f3:	c7 45 fc 00 00 00 00 	mov    DWORD PTR [ebp-0x4],0x0
     7fa:	8b 45 fc             	mov    eax,DWORD PTR [ebp-0x4]
     7fd:	83 c4 28             	add    esp,0x28
     800:	5d                   	pop    ebp
     801:	c3                   	ret    
     802:	90                   	nop
     803:	90                   	nop
     804:	90                   	nop
     805:	90                   	nop
     806:	90                   	nop
     807:	90                   	nop
     808:	90                   	nop
     809:	90                   	nop
     80a:	90                   	nop
     80b:	90                   	nop
     80c:	90                   	nop
     80d:	90                   	nop
     80e:	90                   	nop
     80f:	90                   	nop

00000810 <main>:
     810:	55                   	push   ebp
     811:	89 e5                	mov    ebp,esp
     813:	57                   	push   edi
     814:	56                   	push   esi
     815:	81 ec 80 00 00 00    	sub    esp,0x80
     81b:	8b 45 0c             	mov    eax,DWORD PTR [ebp+0xc]
     81e:	8b 4d 08             	mov    ecx,DWORD PTR [ebp+0x8]
     821:	31 d2                	xor    edx,edx
     823:	c7 45 f4 00 00 00 00 	mov    DWORD PTR [ebp-0xc],0x0
     82a:	c7 45 dc 00 00 00 00 	mov    DWORD PTR [ebp-0x24],0x0
     831:	c7 04 24 00 00 00 00 	mov    DWORD PTR [esp],0x0
     838:	89 45 d0             	mov    DWORD PTR [ebp-0x30],eax
     83b:	89 4d cc             	mov    DWORD PTR [ebp-0x34],ecx
     83e:	89 55 c8             	mov    DWORD PTR [ebp-0x38],edx
     841:	e8 fc ff ff ff       	call   842 <main+0x32>
     846:	83 f8 00             	cmp    eax,0x0
     849:	0f 85 23 00 00 00    	jne    872 <main+0x62>
     84f:	a1 00 00 00 00       	mov    eax,ds:0x0
     854:	89 04 24             	mov    DWORD PTR [esp],eax
     857:	8d 05 00 00 00 00    	lea    eax,ds:0x0
     85d:	89 44 24 04          	mov    DWORD PTR [esp+0x4],eax
     861:	e8 fc ff ff ff       	call   862 <main+0x52>
     866:	c7 45 f4 01 00 00 00 	mov    DWORD PTR [ebp-0xc],0x1
     86d:	e9 88 0e 00 00       	jmp    16fa <main+0xeea>
     872:	c7 45 e0 4c 00 00 01 	mov    DWORD PTR [ebp-0x20],0x100004c
     879:	8b 45 e0             	mov    eax,DWORD PTR [ebp-0x20]
     87c:	8d 4d d8             	lea    ecx,[ebp-0x28]
     87f:	89 0c 24             	mov    DWORD PTR [esp],ecx
     882:	89 44 24 04          	mov    DWORD PTR [esp+0x4],eax
     886:	e8 fc ff ff ff       	call   887 <main+0x77>
     88b:	89 45 e4             	mov    DWORD PTR [ebp-0x1c],eax
     88e:	83 7d e4 00          	cmp    DWORD PTR [ebp-0x1c],0x0
     892:	0f 84 34 00 00 00    	je     8cc <main+0xbc>
     898:	8b 45 d8             	mov    eax,DWORD PTR [ebp-0x28]
     89b:	8b 4d e0             	mov    ecx,DWORD PTR [ebp-0x20]
     89e:	89 04 24             	mov    DWORD PTR [esp],eax
     8a1:	89 4c 24 04          	mov    DWORD PTR [esp+0x4],ecx
     8a5:	e8 66 0e 00 00       	call   1710 <free_global_memory>
     8aa:	a1 00 00 00 00       	mov    eax,ds:0x0
     8af:	89 04 24             	mov    DWORD PTR [esp],eax
     8b2:	8d 05 00 00 00 00    	lea    eax,ds:0x0
     8b8:	89 44 24 04          	mov    DWORD PTR [esp+0x4],eax
     8bc:	e8 fc ff ff ff       	call   8bd <main+0xad>
     8c1:	8b 45 e4             	mov    eax,DWORD PTR [ebp-0x1c]
     8c4:	89 45 f4             	mov    DWORD PTR [ebp-0xc],eax
     8c7:	e9 2e 0e 00 00       	jmp    16fa <main+0xeea>
     8cc:	83 7d 08 01          	cmp    DWORD PTR [ebp+0x8],0x1
     8d0:	0f 8e 90 00 00 00    	jle    966 <main+0x156>
     8d6:	83 7d 08 07          	cmp    DWORD PTR [ebp+0x8],0x7
     8da:	0f 8d 86 00 00 00    	jge    966 <main+0x156>
     8e0:	c7 45 ec 01 00 00 00 	mov    DWORD PTR [ebp-0x14],0x1
     8e7:	8b 45 ec             	mov    eax,DWORD PTR [ebp-0x14]
     8ea:	8b 4d 08             	mov    ecx,DWORD PTR [ebp+0x8]
     8ed:	83 e9 01             	sub    ecx,0x1
     8f0:	39 c8                	cmp    eax,ecx
     8f2:	0f 8d 69 00 00 00    	jge    961 <main+0x151>
     8f8:	8b 45 0c             	mov    eax,DWORD PTR [ebp+0xc]
     8fb:	8b 4d ec             	mov    ecx,DWORD PTR [ebp-0x14]
     8fe:	8b 04 88             	mov    eax,DWORD PTR [eax+ecx*4]
     901:	89 04 24             	mov    DWORD PTR [esp],eax
     904:	c7 44 24 04 00 08 00 	mov    DWORD PTR [esp+0x4],0x800
     90b:	00 
     90c:	e8 fc ff ff ff       	call   90d <main+0xfd>
     911:	3d 00 08 00 00       	cmp    eax,0x800
     916:	0f 85 32 00 00 00    	jne    94e <main+0x13e>
     91c:	a1 00 00 00 00       	mov    eax,ds:0x0
     921:	8b 4d ec             	mov    ecx,DWORD PTR [ebp-0x14]
     924:	89 04 24             	mov    DWORD PTR [esp],eax
     927:	8d 05 00 00 00 00    	lea    eax,ds:0x0
     92d:	89 44 24 04          	mov    DWORD PTR [esp+0x4],eax
     931:	89 4c 24 08          	mov    DWORD PTR [esp+0x8],ecx
     935:	c7 44 24 0c 00 08 00 	mov    DWORD PTR [esp+0xc],0x800
     93c:	00 
     93d:	e8 fc ff ff ff       	call   93e <main+0x12e>
     942:	c7 45 f4 01 00 00 00 	mov    DWORD PTR [ebp-0xc],0x1
     949:	e9 ac 0d 00 00       	jmp    16fa <main+0xeea>
     94e:	e9 00 00 00 00       	jmp    953 <main+0x143>
     953:	8b 45 ec             	mov    eax,DWORD PTR [ebp-0x14]
     956:	83 c0 01             	add    eax,0x1
     959:	89 45 ec             	mov    DWORD PTR [ebp-0x14],eax
     95c:	e9 86 ff ff ff       	jmp    8e7 <main+0xd7>
     961:	e9 47 00 00 00       	jmp    9ad <main+0x19d>
     966:	b8 01 00 00 00       	mov    eax,0x1
     96b:	3b 45 08             	cmp    eax,DWORD PTR [ebp+0x8]
     96e:	0f 84 0a 00 00 00    	je     97e <main+0x16e>
     974:	83 7d 08 07          	cmp    DWORD PTR [ebp+0x8],0x7
     978:	0f 8c 2a 00 00 00    	jl     9a8 <main+0x198>
     97e:	a1 00 00 00 00       	mov    eax,ds:0x0
     983:	8b 4d 08             	mov    ecx,DWORD PTR [ebp+0x8]
     986:	89 04 24             	mov    DWORD PTR [esp],eax
     989:	8d 05 00 00 00 00    	lea    eax,ds:0x0
     98f:	89 44 24 04          	mov    DWORD PTR [esp+0x4],eax
     993:	89 4c 24 08          	mov    DWORD PTR [esp+0x8],ecx
     997:	e8 fc ff ff ff       	call   998 <main+0x188>
     99c:	c7 45 f4 00 00 00 00 	mov    DWORD PTR [ebp-0xc],0x0
     9a3:	e9 52 0d 00 00       	jmp    16fa <main+0xeea>
     9a8:	e9 00 00 00 00       	jmp    9ad <main+0x19d>
     9ad:	b8 02 00 00 00       	mov    eax,0x2
     9b2:	3b 45 08             	cmp    eax,DWORD PTR [ebp+0x8]
     9b5:	0f 85 ec 00 00 00    	jne    aa7 <main+0x297>
     9bb:	8b 45 0c             	mov    eax,DWORD PTR [ebp+0xc]
     9be:	8b 40 04             	mov    eax,DWORD PTR [eax+0x4]
     9c1:	89 e1                	mov    ecx,esp
     9c3:	89 01                	mov    DWORD PTR [ecx],eax
     9c5:	c7 41 04 00 00 00 00 	mov    DWORD PTR [ecx+0x4],0x0
     9cc:	e8 fc ff ff ff       	call   9cd <main+0x1bd>
     9d1:	83 f8 00             	cmp    eax,0x0
     9d4:	0f 84 1f 00 00 00    	je     9f9 <main+0x1e9>
     9da:	8b 45 0c             	mov    eax,DWORD PTR [ebp+0xc]
     9dd:	8b 40 04             	mov    eax,DWORD PTR [eax+0x4]
     9e0:	89 e1                	mov    ecx,esp
     9e2:	89 01                	mov    DWORD PTR [ecx],eax
     9e4:	c7 41 04 00 00 00 00 	mov    DWORD PTR [ecx+0x4],0x0
     9eb:	e8 fc ff ff ff       	call   9ec <main+0x1dc>
     9f0:	83 f8 00             	cmp    eax,0x0
     9f3:	0f 85 81 00 00 00    	jne    a7a <main+0x26a>
     9f9:	a1 00 00 00 00       	mov    eax,ds:0x0
     9fe:	8d 0d 00 00 00 00    	lea    ecx,ds:0x0
     a04:	89 0c 24             	mov    DWORD PTR [esp],ecx
     a07:	89 44 24 04          	mov    DWORD PTR [esp+0x4],eax
     a0b:	e8 fc ff ff ff       	call   a0c <main+0x1fc>
     a10:	8d 0d 00 00 00 00    	lea    ecx,ds:0x0
     a16:	89 0c 24             	mov    DWORD PTR [esp],ecx
     a19:	89 45 c4             	mov    DWORD PTR [ebp-0x3c],eax
     a1c:	e8 fc ff ff ff       	call   a1d <main+0x20d>
     a21:	8d 0d 00 00 00 00    	lea    ecx,ds:0x0
     a27:	89 0c 24             	mov    DWORD PTR [esp],ecx
     a2a:	89 45 c0             	mov    DWORD PTR [ebp-0x40],eax
     a2d:	e8 fc ff ff ff       	call   a2e <main+0x21e>
     a32:	8d 0d 00 00 00 00    	lea    ecx,ds:0x0
     a38:	89 0c 24             	mov    DWORD PTR [esp],ecx
     a3b:	89 45 bc             	mov    DWORD PTR [ebp-0x44],eax
     a3e:	e8 fc ff ff ff       	call   a3f <main+0x22f>
     a43:	8d 0d 00 00 00 00    	lea    ecx,ds:0x0
     a49:	89 0c 24             	mov    DWORD PTR [esp],ecx
     a4c:	89 45 b8             	mov    DWORD PTR [ebp-0x48],eax
     a4f:	e8 fc ff ff ff       	call   a50 <main+0x240>
     a54:	8b 4d 0c             	mov    ecx,DWORD PTR [ebp+0xc]
     a57:	8b 09                	mov    ecx,DWORD PTR [ecx]
     a59:	8d 15 00 00 00 00    	lea    edx,ds:0x0
     a5f:	89 14 24             	mov    DWORD PTR [esp],edx
     a62:	89 4c 24 04          	mov    DWORD PTR [esp+0x4],ecx
     a66:	89 45 b4             	mov    DWORD PTR [ebp-0x4c],eax
     a69:	e8 fc ff ff ff       	call   a6a <main+0x25a>
     a6e:	c7 45 f4 00 00 00 00 	mov    DWORD PTR [ebp-0xc],0x0
     a75:	e9 80 0c 00 00       	jmp    16fa <main+0xeea>
     a7a:	a1 00 00 00 00       	mov    eax,ds:0x0
     a7f:	8b 4d 0c             	mov    ecx,DWORD PTR [ebp+0xc]
     a82:	8b 49 04             	mov    ecx,DWORD PTR [ecx+0x4]
     a85:	89 04 24             	mov    DWORD PTR [esp],eax
     a88:	8d 05 00 00 00 00    	lea    eax,ds:0x0
     a8e:	89 44 24 04          	mov    DWORD PTR [esp+0x4],eax
     a92:	89 4c 24 08          	mov    DWORD PTR [esp+0x8],ecx
     a96:	e8 fc ff ff ff       	call   a97 <main+0x287>
     a9b:	c7 45 f4 01 00 00 00 	mov    DWORD PTR [ebp-0xc],0x1
     aa2:	e9 53 0c 00 00       	jmp    16fa <main+0xeea>
     aa7:	83 7d 08 04          	cmp    DWORD PTR [ebp+0x8],0x4
     aab:	0f 8d 2a 00 00 00    	jge    adb <main+0x2cb>
     ab1:	a1 00 00 00 00       	mov    eax,ds:0x0
     ab6:	8b 4d 08             	mov    ecx,DWORD PTR [ebp+0x8]
     ab9:	89 04 24             	mov    DWORD PTR [esp],eax
     abc:	8d 05 00 00 00 00    	lea    eax,ds:0x0
     ac2:	89 44 24 04          	mov    DWORD PTR [esp+0x4],eax
     ac6:	89 4c 24 08          	mov    DWORD PTR [esp+0x8],ecx
     aca:	e8 fc ff ff ff       	call   acb <main+0x2bb>
     acf:	c7 45 f4 00 00 00 00 	mov    DWORD PTR [ebp-0xc],0x0
     ad6:	e9 1f 0c 00 00       	jmp    16fa <main+0xeea>
     adb:	8b 45 0c             	mov    eax,DWORD PTR [ebp+0xc]
     ade:	8b 4d 08             	mov    ecx,DWORD PTR [ebp+0x8]
     ae1:	83 e9 01             	sub    ecx,0x1
     ae4:	8b 04 88             	mov    eax,DWORD PTR [eax+ecx*4]
     ae7:	8b 4d d8             	mov    ecx,DWORD PTR [ebp-0x28]
     aea:	89 41 04             	mov    DWORD PTR [ecx+0x4],eax
     aed:	8b 45 0c             	mov    eax,DWORD PTR [ebp+0xc]
     af0:	8b 4d 08             	mov    ecx,DWORD PTR [ebp+0x8]
     af3:	83 e9 02             	sub    ecx,0x2
     af6:	8b 04 88             	mov    eax,DWORD PTR [eax+ecx*4]
     af9:	8b 4d d8             	mov    ecx,DWORD PTR [ebp-0x28]
     afc:	89 01                	mov    DWORD PTR [ecx],eax
     afe:	8b 45 0c             	mov    eax,DWORD PTR [ebp+0xc]
     b01:	8b 40 04             	mov    eax,DWORD PTR [eax+0x4]
     b04:	89 e1                	mov    ecx,esp
     b06:	89 01                	mov    DWORD PTR [ecx],eax
     b08:	c7 41 04 00 00 00 00 	mov    DWORD PTR [ecx+0x4],0x0
     b0f:	e8 fc ff ff ff       	call   b10 <main+0x300>
     b14:	83 f8 00             	cmp    eax,0x0
     b17:	0f 84 1f 00 00 00    	je     b3c <main+0x32c>
     b1d:	8b 45 0c             	mov    eax,DWORD PTR [ebp+0xc]
     b20:	8b 40 04             	mov    eax,DWORD PTR [eax+0x4]
     b23:	89 e1                	mov    ecx,esp
     b25:	89 01                	mov    DWORD PTR [ecx],eax
     b27:	c7 41 04 00 00 00 00 	mov    DWORD PTR [ecx+0x4],0x0
     b2e:	e8 fc ff ff ff       	call   b2f <main+0x31f>
     b33:	83 f8 00             	cmp    eax,0x0
     b36:	0f 85 12 00 00 00    	jne    b4e <main+0x33e>
     b3c:	8b 45 d8             	mov    eax,DWORD PTR [ebp-0x28]
     b3f:	c7 80 48 00 00 01 03 	mov    DWORD PTR [eax+0x1000048],0x3
     b46:	00 00 00 
     b49:	e9 93 01 00 00       	jmp    ce1 <main+0x4d1>
     b4e:	8b 45 0c             	mov    eax,DWORD PTR [ebp+0xc]
     b51:	8b 40 04             	mov    eax,DWORD PTR [eax+0x4]
     b54:	89 e1                	mov    ecx,esp
     b56:	89 01                	mov    DWORD PTR [ecx],eax
     b58:	c7 41 04 00 00 00 00 	mov    DWORD PTR [ecx+0x4],0x0
     b5f:	e8 fc ff ff ff       	call   b60 <main+0x350>
     b64:	83 f8 00             	cmp    eax,0x0
     b67:	0f 84 1f 00 00 00    	je     b8c <main+0x37c>
     b6d:	8b 45 0c             	mov    eax,DWORD PTR [ebp+0xc]
     b70:	8b 40 04             	mov    eax,DWORD PTR [eax+0x4]
     b73:	89 e1                	mov    ecx,esp
     b75:	89 01                	mov    DWORD PTR [ecx],eax
     b77:	c7 41 04 00 00 00 00 	mov    DWORD PTR [ecx+0x4],0x0
     b7e:	e8 fc ff ff ff       	call   b7f <main+0x36f>
     b83:	83 f8 00             	cmp    eax,0x0
     b86:	0f 85 12 00 00 00    	jne    b9e <main+0x38e>
     b8c:	8b 45 d8             	mov    eax,DWORD PTR [ebp-0x28]
     b8f:	c7 80 48 00 00 01 04 	mov    DWORD PTR [eax+0x1000048],0x4
     b96:	00 00 00 
     b99:	e9 3e 01 00 00       	jmp    cdc <main+0x4cc>
     b9e:	8b 45 0c             	mov    eax,DWORD PTR [ebp+0xc]
     ba1:	8b 40 04             	mov    eax,DWORD PTR [eax+0x4]
     ba4:	89 e1                	mov    ecx,esp
     ba6:	89 01                	mov    DWORD PTR [ecx],eax
     ba8:	c7 41 04 00 00 00 00 	mov    DWORD PTR [ecx+0x4],0x0
     baf:	e8 fc ff ff ff       	call   bb0 <main+0x3a0>
     bb4:	83 f8 00             	cmp    eax,0x0
     bb7:	0f 84 1f 00 00 00    	je     bdc <main+0x3cc>
     bbd:	8b 45 0c             	mov    eax,DWORD PTR [ebp+0xc]
     bc0:	8b 40 04             	mov    eax,DWORD PTR [eax+0x4]
     bc3:	89 e1                	mov    ecx,esp
     bc5:	89 01                	mov    DWORD PTR [ecx],eax
     bc7:	c7 41 04 00 00 00 00 	mov    DWORD PTR [ecx+0x4],0x0
     bce:	e8 fc ff ff ff       	call   bcf <main+0x3bf>
     bd3:	83 f8 00             	cmp    eax,0x0
     bd6:	0f 85 12 00 00 00    	jne    bee <main+0x3de>
     bdc:	8b 45 d8             	mov    eax,DWORD PTR [ebp-0x28]
     bdf:	c7 80 48 00 00 01 00 	mov    DWORD PTR [eax+0x1000048],0x0
     be6:	00 00 00 
     be9:	e9 e9 00 00 00       	jmp    cd7 <main+0x4c7>
     bee:	8b 45 0c             	mov    eax,DWORD PTR [ebp+0xc]
     bf1:	8b 40 04             	mov    eax,DWORD PTR [eax+0x4]
     bf4:	89 e1                	mov    ecx,esp
     bf6:	89 01                	mov    DWORD PTR [ecx],eax
     bf8:	c7 41 04 00 00 00 00 	mov    DWORD PTR [ecx+0x4],0x0
     bff:	e8 fc ff ff ff       	call   c00 <main+0x3f0>
     c04:	83 f8 00             	cmp    eax,0x0
     c07:	0f 84 1f 00 00 00    	je     c2c <main+0x41c>
     c0d:	8b 45 0c             	mov    eax,DWORD PTR [ebp+0xc]
     c10:	8b 40 04             	mov    eax,DWORD PTR [eax+0x4]
     c13:	89 e1                	mov    ecx,esp
     c15:	89 01                	mov    DWORD PTR [ecx],eax
     c17:	c7 41 04 00 00 00 00 	mov    DWORD PTR [ecx+0x4],0x0
     c1e:	e8 fc ff ff ff       	call   c1f <main+0x40f>
     c23:	83 f8 00             	cmp    eax,0x0
     c26:	0f 85 12 00 00 00    	jne    c3e <main+0x42e>
     c2c:	8b 45 d8             	mov    eax,DWORD PTR [ebp-0x28]
     c2f:	c7 80 48 00 00 01 01 	mov    DWORD PTR [eax+0x1000048],0x1
     c36:	00 00 00 
     c39:	e9 94 00 00 00       	jmp    cd2 <main+0x4c2>
     c3e:	8b 45 0c             	mov    eax,DWORD PTR [ebp+0xc]
     c41:	8b 40 04             	mov    eax,DWORD PTR [eax+0x4]
     c44:	89 e1                	mov    ecx,esp
     c46:	89 01                	mov    DWORD PTR [ecx],eax
     c48:	c7 41 04 00 00 00 00 	mov    DWORD PTR [ecx+0x4],0x0
     c4f:	e8 fc ff ff ff       	call   c50 <main+0x440>
     c54:	83 f8 00             	cmp    eax,0x0
     c57:	0f 84 1f 00 00 00    	je     c7c <main+0x46c>
     c5d:	8b 45 0c             	mov    eax,DWORD PTR [ebp+0xc]
     c60:	8b 40 04             	mov    eax,DWORD PTR [eax+0x4]
     c63:	89 e1                	mov    ecx,esp
     c65:	89 01                	mov    DWORD PTR [ecx],eax
     c67:	c7 41 04 00 00 00 00 	mov    DWORD PTR [ecx+0x4],0x0
     c6e:	e8 fc ff ff ff       	call   c6f <main+0x45f>
     c73:	83 f8 00             	cmp    eax,0x0
     c76:	0f 85 12 00 00 00    	jne    c8e <main+0x47e>
     c7c:	8b 45 d8             	mov    eax,DWORD PTR [ebp-0x28]
     c7f:	c7 80 48 00 00 01 02 	mov    DWORD PTR [eax+0x1000048],0x2
     c86:	00 00 00 
     c89:	e9 3f 00 00 00       	jmp    ccd <main+0x4bd>
     c8e:	8b 45 d8             	mov    eax,DWORD PTR [ebp-0x28]
     c91:	8b 4d e0             	mov    ecx,DWORD PTR [ebp-0x20]
     c94:	89 04 24             	mov    DWORD PTR [esp],eax
     c97:	89 4c 24 04          	mov    DWORD PTR [esp+0x4],ecx
     c9b:	e8 70 0a 00 00       	call   1710 <free_global_memory>
     ca0:	a1 00 00 00 00       	mov    eax,ds:0x0
     ca5:	8b 4d 0c             	mov    ecx,DWORD PTR [ebp+0xc]
     ca8:	8b 49 04             	mov    ecx,DWORD PTR [ecx+0x4]
     cab:	89 04 24             	mov    DWORD PTR [esp],eax
     cae:	8d 05 00 00 00 00    	lea    eax,ds:0x0
     cb4:	89 44 24 04          	mov    DWORD PTR [esp+0x4],eax
     cb8:	89 4c 24 08          	mov    DWORD PTR [esp+0x8],ecx
     cbc:	e8 fc ff ff ff       	call   cbd <main+0x4ad>
     cc1:	c7 45 f4 01 00 00 00 	mov    DWORD PTR [ebp-0xc],0x1
     cc8:	e9 2d 0a 00 00       	jmp    16fa <main+0xeea>
     ccd:	e9 00 00 00 00       	jmp    cd2 <main+0x4c2>
     cd2:	e9 00 00 00 00       	jmp    cd7 <main+0x4c7>
     cd7:	e9 00 00 00 00       	jmp    cdc <main+0x4cc>
     cdc:	e9 00 00 00 00       	jmp    ce1 <main+0x4d1>
     ce1:	8b 45 0c             	mov    eax,DWORD PTR [ebp+0xc]
     ce4:	8b 40 08             	mov    eax,DWORD PTR [eax+0x8]
     ce7:	89 e1                	mov    ecx,esp
     ce9:	89 01                	mov    DWORD PTR [ecx],eax
     ceb:	c7 41 04 00 00 00 00 	mov    DWORD PTR [ecx+0x4],0x0
     cf2:	e8 fc ff ff ff       	call   cf3 <main+0x4e3>
     cf7:	83 f8 00             	cmp    eax,0x0
     cfa:	0f 84 1f 00 00 00    	je     d1f <main+0x50f>
     d00:	8b 45 0c             	mov    eax,DWORD PTR [ebp+0xc]
     d03:	8b 40 08             	mov    eax,DWORD PTR [eax+0x8]
     d06:	89 e1                	mov    ecx,esp
     d08:	89 01                	mov    DWORD PTR [ecx],eax
     d0a:	c7 41 04 00 00 00 00 	mov    DWORD PTR [ecx+0x4],0x0
     d11:	e8 fc ff ff ff       	call   d12 <main+0x502>
     d16:	83 f8 00             	cmp    eax,0x0
     d19:	0f 85 12 00 00 00    	jne    d31 <main+0x521>
     d1f:	8b 45 d8             	mov    eax,DWORD PTR [ebp-0x28]
     d22:	c7 80 44 00 00 01 00 	mov    DWORD PTR [eax+0x1000044],0x0
     d29:	00 00 00 
     d2c:	e9 94 00 00 00       	jmp    dc5 <main+0x5b5>
     d31:	8b 45 0c             	mov    eax,DWORD PTR [ebp+0xc]
     d34:	8b 40 08             	mov    eax,DWORD PTR [eax+0x8]
     d37:	89 e1                	mov    ecx,esp
     d39:	89 01                	mov    DWORD PTR [ecx],eax
     d3b:	c7 41 04 00 00 00 00 	mov    DWORD PTR [ecx+0x4],0x0
     d42:	e8 fc ff ff ff       	call   d43 <main+0x533>
     d47:	83 f8 00             	cmp    eax,0x0
     d4a:	0f 84 1f 00 00 00    	je     d6f <main+0x55f>
     d50:	8b 45 0c             	mov    eax,DWORD PTR [ebp+0xc]
     d53:	8b 40 08             	mov    eax,DWORD PTR [eax+0x8]
     d56:	89 e1                	mov    ecx,esp
     d58:	89 01                	mov    DWORD PTR [ecx],eax
     d5a:	c7 41 04 00 00 00 00 	mov    DWORD PTR [ecx+0x4],0x0
     d61:	e8 fc ff ff ff       	call   d62 <main+0x552>
     d66:	83 f8 00             	cmp    eax,0x0
     d69:	0f 85 12 00 00 00    	jne    d81 <main+0x571>
     d6f:	8b 45 d8             	mov    eax,DWORD PTR [ebp-0x28]
     d72:	c7 80 44 00 00 01 de 	mov    DWORD PTR [eax+0x1000044],0xde
     d79:	00 00 00 
     d7c:	e9 3f 00 00 00       	jmp    dc0 <main+0x5b0>
     d81:	8b 45 d8             	mov    eax,DWORD PTR [ebp-0x28]
     d84:	8b 4d e0             	mov    ecx,DWORD PTR [ebp-0x20]
     d87:	89 04 24             	mov    DWORD PTR [esp],eax
     d8a:	89 4c 24 04          	mov    DWORD PTR [esp+0x4],ecx
     d8e:	e8 7d 09 00 00       	call   1710 <free_global_memory>
     d93:	a1 00 00 00 00       	mov    eax,ds:0x0
     d98:	8b 4d 0c             	mov    ecx,DWORD PTR [ebp+0xc]
     d9b:	8b 49 08             	mov    ecx,DWORD PTR [ecx+0x8]
     d9e:	89 04 24             	mov    DWORD PTR [esp],eax
     da1:	8d 05 00 00 00 00    	lea    eax,ds:0x0
     da7:	89 44 24 04          	mov    DWORD PTR [esp+0x4],eax
     dab:	89 4c 24 08          	mov    DWORD PTR [esp+0x8],ecx
     daf:	e8 fc ff ff ff       	call   db0 <main+0x5a0>
     db4:	c7 45 f4 01 00 00 00 	mov    DWORD PTR [ebp-0xc],0x1
     dbb:	e9 3a 09 00 00       	jmp    16fa <main+0xeea>
     dc0:	e9 00 00 00 00       	jmp    dc5 <main+0x5b5>
     dc5:	31 c0                	xor    eax,eax
     dc7:	8b 4d d8             	mov    ecx,DWORD PTR [ebp-0x28]
     dca:	3b 81 48 00 00 01    	cmp    eax,DWORD PTR [ecx+0x1000048]
     dd0:	0f 84 28 00 00 00    	je     dfe <main+0x5ee>
     dd6:	8b 45 d8             	mov    eax,DWORD PTR [ebp-0x28]
     dd9:	b9 01 00 00 00       	mov    ecx,0x1
     dde:	3b 88 48 00 00 01    	cmp    ecx,DWORD PTR [eax+0x1000048]
     de4:	0f 84 14 00 00 00    	je     dfe <main+0x5ee>
     dea:	8b 45 d8             	mov    eax,DWORD PTR [ebp-0x28]
     ded:	b9 02 00 00 00       	mov    ecx,0x2
     df2:	3b 88 48 00 00 01    	cmp    ecx,DWORD PTR [eax+0x1000048]
     df8:	0f 85 86 01 00 00    	jne    f84 <main+0x774>
     dfe:	8b 45 0c             	mov    eax,DWORD PTR [ebp+0xc]
     e01:	8b 40 0c             	mov    eax,DWORD PTR [eax+0xc]
     e04:	89 e1                	mov    ecx,esp
     e06:	89 01                	mov    DWORD PTR [ecx],eax
     e08:	c7 41 04 00 00 00 00 	mov    DWORD PTR [ecx+0x4],0x0
     e0f:	e8 fc ff ff ff       	call   e10 <main+0x600>
     e14:	83 f8 00             	cmp    eax,0x0
     e17:	0f 84 1f 00 00 00    	je     e3c <main+0x62c>
     e1d:	8b 45 0c             	mov    eax,DWORD PTR [ebp+0xc]
     e20:	8b 40 0c             	mov    eax,DWORD PTR [eax+0xc]
     e23:	89 e1                	mov    ecx,esp
     e25:	89 01                	mov    DWORD PTR [ecx],eax
     e27:	c7 41 04 00 00 00 00 	mov    DWORD PTR [ecx+0x4],0x0
     e2e:	e8 fc ff ff ff       	call   e2f <main+0x61f>
     e33:	83 f8 00             	cmp    eax,0x0
     e36:	0f 85 2a 00 00 00    	jne    e66 <main+0x656>
     e3c:	31 c0                	xor    eax,eax
     e3e:	8b 4d d8             	mov    ecx,DWORD PTR [ebp-0x28]
     e41:	3b 81 48 00 00 01    	cmp    eax,DWORD PTR [ecx+0x1000048]
     e47:	0f 85 0a 00 00 00    	jne    e57 <main+0x647>
     e4d:	c7 05 00 00 00 00 0a 	mov    DWORD PTR ds:0x0,0xa
     e54:	00 00 00 
     e57:	8b 45 d8             	mov    eax,DWORD PTR [ebp-0x28]
     e5a:	c7 40 24 80 00 00 00 	mov    DWORD PTR [eax+0x24],0x80
     e61:	e9 19 01 00 00       	jmp    f7f <main+0x76f>
     e66:	8b 45 0c             	mov    eax,DWORD PTR [ebp+0xc]
     e69:	8b 40 0c             	mov    eax,DWORD PTR [eax+0xc]
     e6c:	89 e1                	mov    ecx,esp
     e6e:	89 01                	mov    DWORD PTR [ecx],eax
     e70:	c7 41 04 00 00 00 00 	mov    DWORD PTR [ecx+0x4],0x0
     e77:	e8 fc ff ff ff       	call   e78 <main+0x668>
     e7c:	83 f8 00             	cmp    eax,0x0
     e7f:	0f 84 1f 00 00 00    	je     ea4 <main+0x694>
     e85:	8b 45 0c             	mov    eax,DWORD PTR [ebp+0xc]
     e88:	8b 40 0c             	mov    eax,DWORD PTR [eax+0xc]
     e8b:	89 e1                	mov    ecx,esp
     e8d:	89 01                	mov    DWORD PTR [ecx],eax
     e8f:	c7 41 04 00 00 00 00 	mov    DWORD PTR [ecx+0x4],0x0
     e96:	e8 fc ff ff ff       	call   e97 <main+0x687>
     e9b:	83 f8 00             	cmp    eax,0x0
     e9e:	0f 85 2a 00 00 00    	jne    ece <main+0x6be>
     ea4:	31 c0                	xor    eax,eax
     ea6:	8b 4d d8             	mov    ecx,DWORD PTR [ebp-0x28]
     ea9:	3b 81 48 00 00 01    	cmp    eax,DWORD PTR [ecx+0x1000048]
     eaf:	0f 85 0a 00 00 00    	jne    ebf <main+0x6af>
     eb5:	c7 05 00 00 00 00 0c 	mov    DWORD PTR ds:0x0,0xc
     ebc:	00 00 00 
     ebf:	8b 45 d8             	mov    eax,DWORD PTR [ebp-0x28]
     ec2:	c7 40 24 c0 00 00 00 	mov    DWORD PTR [eax+0x24],0xc0
     ec9:	e9 ac 00 00 00       	jmp    f7a <main+0x76a>
     ece:	8b 45 0c             	mov    eax,DWORD PTR [ebp+0xc]
     ed1:	8b 40 0c             	mov    eax,DWORD PTR [eax+0xc]
     ed4:	89 e1                	mov    ecx,esp
     ed6:	89 01                	mov    DWORD PTR [ecx],eax
     ed8:	c7 41 04 00 00 00 00 	mov    DWORD PTR [ecx+0x4],0x0
     edf:	e8 fc ff ff ff       	call   ee0 <main+0x6d0>
     ee4:	83 f8 00             	cmp    eax,0x0
     ee7:	0f 84 1f 00 00 00    	je     f0c <main+0x6fc>
     eed:	8b 45 0c             	mov    eax,DWORD PTR [ebp+0xc]
     ef0:	8b 40 0c             	mov    eax,DWORD PTR [eax+0xc]
     ef3:	89 e1                	mov    ecx,esp
     ef5:	89 01                	mov    DWORD PTR [ecx],eax
     ef7:	c7 41 04 00 00 00 00 	mov    DWORD PTR [ecx+0x4],0x0
     efe:	e8 fc ff ff ff       	call   eff <main+0x6ef>
     f03:	83 f8 00             	cmp    eax,0x0
     f06:	0f 85 2a 00 00 00    	jne    f36 <main+0x726>
     f0c:	31 c0                	xor    eax,eax
     f0e:	8b 4d d8             	mov    ecx,DWORD PTR [ebp-0x28]
     f11:	3b 81 48 00 00 01    	cmp    eax,DWORD PTR [ecx+0x1000048]
     f17:	0f 85 0a 00 00 00    	jne    f27 <main+0x717>
     f1d:	c7 05 00 00 00 00 0e 	mov    DWORD PTR ds:0x0,0xe
     f24:	00 00 00 
     f27:	8b 45 d8             	mov    eax,DWORD PTR [ebp-0x28]
     f2a:	c7 40 24 00 01 00 00 	mov    DWORD PTR [eax+0x24],0x100
     f31:	e9 3f 00 00 00       	jmp    f75 <main+0x765>
     f36:	8b 45 d8             	mov    eax,DWORD PTR [ebp-0x28]
     f39:	8b 4d e0             	mov    ecx,DWORD PTR [ebp-0x20]
     f3c:	89 04 24             	mov    DWORD PTR [esp],eax
     f3f:	89 4c 24 04          	mov    DWORD PTR [esp+0x4],ecx
     f43:	e8 c8 07 00 00       	call   1710 <free_global_memory>
     f48:	a1 00 00 00 00       	mov    eax,ds:0x0
     f4d:	8b 4d 0c             	mov    ecx,DWORD PTR [ebp+0xc]
     f50:	8b 49 0c             	mov    ecx,DWORD PTR [ecx+0xc]
     f53:	89 04 24             	mov    DWORD PTR [esp],eax
     f56:	8d 05 00 00 00 00    	lea    eax,ds:0x0
     f5c:	89 44 24 04          	mov    DWORD PTR [esp+0x4],eax
     f60:	89 4c 24 08          	mov    DWORD PTR [esp+0x8],ecx
     f64:	e8 fc ff ff ff       	call   f65 <main+0x755>
     f69:	c7 45 f4 01 00 00 00 	mov    DWORD PTR [ebp-0xc],0x1
     f70:	e9 85 07 00 00       	jmp    16fa <main+0xeea>
     f75:	e9 00 00 00 00       	jmp    f7a <main+0x76a>
     f7a:	e9 00 00 00 00       	jmp    f7f <main+0x76f>
     f7f:	e9 76 01 00 00       	jmp    10fa <main+0x8ea>
     f84:	8b 45 d8             	mov    eax,DWORD PTR [ebp-0x28]
     f87:	b9 03 00 00 00       	mov    ecx,0x3
     f8c:	3b 88 48 00 00 01    	cmp    ecx,DWORD PTR [eax+0x1000048]
     f92:	0f 85 0f 00 00 00    	jne    fa7 <main+0x797>
     f98:	8b 45 d8             	mov    eax,DWORD PTR [ebp-0x28]
     f9b:	c7 40 24 c0 01 00 00 	mov    DWORD PTR [eax+0x24],0x1c0
     fa2:	e9 4e 01 00 00       	jmp    10f5 <main+0x8e5>
     fa7:	8b 45 d8             	mov    eax,DWORD PTR [ebp-0x28]
     faa:	b9 04 00 00 00       	mov    ecx,0x4
     faf:	3b 88 48 00 00 01    	cmp    ecx,DWORD PTR [eax+0x1000048]
     fb5:	0f 85 35 01 00 00    	jne    10f0 <main+0x8e0>
     fbb:	8b 45 0c             	mov    eax,DWORD PTR [ebp+0xc]
     fbe:	8b 40 0c             	mov    eax,DWORD PTR [eax+0xc]
     fc1:	89 e1                	mov    ecx,esp
     fc3:	89 01                	mov    DWORD PTR [ecx],eax
     fc5:	c7 41 04 00 00 00 00 	mov    DWORD PTR [ecx+0x4],0x0
     fcc:	e8 fc ff ff ff       	call   fcd <main+0x7bd>
     fd1:	83 f8 00             	cmp    eax,0x0
     fd4:	0f 84 1f 00 00 00    	je     ff9 <main+0x7e9>
     fda:	8b 45 0c             	mov    eax,DWORD PTR [ebp+0xc]
     fdd:	8b 40 0c             	mov    eax,DWORD PTR [eax+0xc]
     fe0:	89 e1                	mov    ecx,esp
     fe2:	89 01                	mov    DWORD PTR [ecx],eax
     fe4:	c7 41 04 00 00 00 00 	mov    DWORD PTR [ecx+0x4],0x0
     feb:	e8 fc ff ff ff       	call   fec <main+0x7dc>
     ff0:	83 f8 00             	cmp    eax,0x0
     ff3:	0f 85 0f 00 00 00    	jne    1008 <main+0x7f8>
     ff9:	8b 45 d8             	mov    eax,DWORD PTR [ebp-0x28]
     ffc:	c7 40 24 00 01 00 00 	mov    DWORD PTR [eax+0x24],0x100
    1003:	e9 e3 00 00 00       	jmp    10eb <main+0x8db>
    1008:	8b 45 0c             	mov    eax,DWORD PTR [ebp+0xc]
    100b:	8b 40 0c             	mov    eax,DWORD PTR [eax+0xc]
    100e:	89 e1                	mov    ecx,esp
    1010:	89 01                	mov    DWORD PTR [ecx],eax
    1012:	c7 41 04 00 00 00 00 	mov    DWORD PTR [ecx+0x4],0x0
    1019:	e8 fc ff ff ff       	call   101a <main+0x80a>
    101e:	83 f8 00             	cmp    eax,0x0
    1021:	0f 84 1f 00 00 00    	je     1046 <main+0x836>
    1027:	8b 45 0c             	mov    eax,DWORD PTR [ebp+0xc]
    102a:	8b 40 0c             	mov    eax,DWORD PTR [eax+0xc]
    102d:	89 e1                	mov    ecx,esp
    102f:	89 01                	mov    DWORD PTR [ecx],eax
    1031:	c7 41 04 00 00 00 00 	mov    DWORD PTR [ecx+0x4],0x0
    1038:	e8 fc ff ff ff       	call   1039 <main+0x829>
    103d:	83 f8 00             	cmp    eax,0x0
    1040:	0f 85 0f 00 00 00    	jne    1055 <main+0x845>
    1046:	8b 45 d8             	mov    eax,DWORD PTR [ebp-0x28]
    1049:	c7 40 24 00 02 00 00 	mov    DWORD PTR [eax+0x24],0x200
    1050:	e9 91 00 00 00       	jmp    10e6 <main+0x8d6>
    1055:	8b 45 0c             	mov    eax,DWORD PTR [ebp+0xc]
    1058:	8b 40 0c             	mov    eax,DWORD PTR [eax+0xc]
    105b:	89 e1                	mov    ecx,esp
    105d:	89 01                	mov    DWORD PTR [ecx],eax
    105f:	c7 41 04 00 00 00 00 	mov    DWORD PTR [ecx+0x4],0x0
    1066:	e8 fc ff ff ff       	call   1067 <main+0x857>
    106b:	83 f8 00             	cmp    eax,0x0
    106e:	0f 84 1f 00 00 00    	je     1093 <main+0x883>
    1074:	8b 45 0c             	mov    eax,DWORD PTR [ebp+0xc]
    1077:	8b 40 0c             	mov    eax,DWORD PTR [eax+0xc]
    107a:	89 e1                	mov    ecx,esp
    107c:	89 01                	mov    DWORD PTR [ecx],eax
    107e:	c7 41 04 00 00 00 00 	mov    DWORD PTR [ecx+0x4],0x0
    1085:	e8 fc ff ff ff       	call   1086 <main+0x876>
    108a:	83 f8 00             	cmp    eax,0x0
    108d:	0f 85 0f 00 00 00    	jne    10a2 <main+0x892>
    1093:	8b 45 d8             	mov    eax,DWORD PTR [ebp-0x28]
    1096:	c7 40 24 00 04 00 00 	mov    DWORD PTR [eax+0x24],0x400
    109d:	e9 3f 00 00 00       	jmp    10e1 <main+0x8d1>
    10a2:	8b 45 d8             	mov    eax,DWORD PTR [ebp-0x28]
    10a5:	8b 4d e0             	mov    ecx,DWORD PTR [ebp-0x20]
    10a8:	89 04 24             	mov    DWORD PTR [esp],eax
    10ab:	89 4c 24 04          	mov    DWORD PTR [esp+0x4],ecx
    10af:	e8 5c 06 00 00       	call   1710 <free_global_memory>
    10b4:	a1 00 00 00 00       	mov    eax,ds:0x0
    10b9:	8b 4d 0c             	mov    ecx,DWORD PTR [ebp+0xc]
    10bc:	8b 49 0c             	mov    ecx,DWORD PTR [ecx+0xc]
    10bf:	89 04 24             	mov    DWORD PTR [esp],eax
    10c2:	8d 05 00 00 00 00    	lea    eax,ds:0x0
    10c8:	89 44 24 04          	mov    DWORD PTR [esp+0x4],eax
    10cc:	89 4c 24 08          	mov    DWORD PTR [esp+0x8],ecx
    10d0:	e8 fc ff ff ff       	call   10d1 <main+0x8c1>
    10d5:	c7 45 f4 01 00 00 00 	mov    DWORD PTR [ebp-0xc],0x1
    10dc:	e9 19 06 00 00       	jmp    16fa <main+0xeea>
    10e1:	e9 00 00 00 00       	jmp    10e6 <main+0x8d6>
    10e6:	e9 00 00 00 00       	jmp    10eb <main+0x8db>
    10eb:	e9 00 00 00 00       	jmp    10f0 <main+0x8e0>
    10f0:	e9 00 00 00 00       	jmp    10f5 <main+0x8e5>
    10f5:	e9 00 00 00 00       	jmp    10fa <main+0x8ea>
    10fa:	8b 45 d8             	mov    eax,DWORD PTR [ebp-0x28]
    10fd:	89 04 24             	mov    DWORD PTR [esp],eax
    1100:	e8 fc ff ff ff       	call   1101 <main+0x8f1>
    1105:	83 f8 00             	cmp    eax,0x0
    1108:	0f 84 1e 00 00 00    	je     112c <main+0x91c>
    110e:	8b 45 d8             	mov    eax,DWORD PTR [ebp-0x28]
    1111:	8b 4d e0             	mov    ecx,DWORD PTR [ebp-0x20]
    1114:	89 04 24             	mov    DWORD PTR [esp],eax
    1117:	89 4c 24 04          	mov    DWORD PTR [esp+0x4],ecx
    111b:	e8 f0 05 00 00       	call   1710 <free_global_memory>
    1120:	c7 45 f4 01 00 00 00 	mov    DWORD PTR [ebp-0xc],0x1
    1127:	e9 ce 05 00 00       	jmp    16fa <main+0xeea>
    112c:	8b 45 d8             	mov    eax,DWORD PTR [ebp-0x28]
    112f:	8b 00                	mov    eax,DWORD PTR [eax]
    1131:	8b 4d d8             	mov    ecx,DWORD PTR [ebp-0x28]
    1134:	8b 49 04             	mov    ecx,DWORD PTR [ecx+0x4]
    1137:	89 e2                	mov    edx,esp
    1139:	89 4a 04             	mov    DWORD PTR [edx+0x4],ecx
    113c:	89 02                	mov    DWORD PTR [edx],eax
    113e:	e8 fc ff ff ff       	call   113f <main+0x92f>
    1143:	83 f8 00             	cmp    eax,0x0
    1146:	0f 85 35 00 00 00    	jne    1181 <main+0x971>
    114c:	8b 45 d8             	mov    eax,DWORD PTR [ebp-0x28]
    114f:	8b 4d e0             	mov    ecx,DWORD PTR [ebp-0x20]
    1152:	89 04 24             	mov    DWORD PTR [esp],eax
    1155:	89 4c 24 04          	mov    DWORD PTR [esp+0x4],ecx
    1159:	e8 b2 05 00 00       	call   1710 <free_global_memory>
    115e:	a1 00 00 00 00       	mov    eax,ds:0x0
    1163:	89 04 24             	mov    DWORD PTR [esp],eax
    1166:	8d 05 00 00 00 00    	lea    eax,ds:0x0
    116c:	89 44 24 04          	mov    DWORD PTR [esp+0x4],eax
    1170:	e8 fc ff ff ff       	call   1171 <main+0x961>
    1175:	c7 45 f4 01 00 00 00 	mov    DWORD PTR [ebp-0xc],0x1
    117c:	e9 79 05 00 00       	jmp    16fa <main+0xeea>
    1181:	8b 45 d8             	mov    eax,DWORD PTR [ebp-0x28]
    1184:	8b 40 04             	mov    eax,DWORD PTR [eax+0x4]
    1187:	8b 4d d8             	mov    ecx,DWORD PTR [ebp-0x28]
    118a:	8b 49 08             	mov    ecx,DWORD PTR [ecx+0x8]
    118d:	89 e2                	mov    edx,esp
    118f:	89 4a 04             	mov    DWORD PTR [edx+0x4],ecx
    1192:	89 02                	mov    DWORD PTR [edx],eax
    1194:	e8 fc ff ff ff       	call   1195 <main+0x985>
    1199:	83 f8 00             	cmp    eax,0x0
    119c:	0f 85 35 00 00 00    	jne    11d7 <main+0x9c7>
    11a2:	8b 45 d8             	mov    eax,DWORD PTR [ebp-0x28]
    11a5:	8b 4d e0             	mov    ecx,DWORD PTR [ebp-0x20]
    11a8:	89 04 24             	mov    DWORD PTR [esp],eax
    11ab:	89 4c 24 04          	mov    DWORD PTR [esp+0x4],ecx
    11af:	e8 5c 05 00 00       	call   1710 <free_global_memory>
    11b4:	a1 00 00 00 00       	mov    eax,ds:0x0
    11b9:	89 04 24             	mov    DWORD PTR [esp],eax
    11bc:	8d 05 00 00 00 00    	lea    eax,ds:0x0
    11c2:	89 44 24 04          	mov    DWORD PTR [esp+0x4],eax
    11c6:	e8 fc ff ff ff       	call   11c7 <main+0x9b7>
    11cb:	c7 45 f4 01 00 00 00 	mov    DWORD PTR [ebp-0xc],0x1
    11d2:	e9 23 05 00 00       	jmp    16fa <main+0xeea>
    11d7:	8b 45 d8             	mov    eax,DWORD PTR [ebp-0x28]
    11da:	8b 00                	mov    eax,DWORD PTR [eax]
    11dc:	8b 4d d8             	mov    ecx,DWORD PTR [ebp-0x28]
    11df:	8b 49 08             	mov    ecx,DWORD PTR [ecx+0x8]
    11e2:	89 e2                	mov    edx,esp
    11e4:	89 4a 04             	mov    DWORD PTR [edx+0x4],ecx
    11e7:	89 02                	mov    DWORD PTR [edx],eax
    11e9:	e8 fc ff ff ff       	call   11ea <main+0x9da>
    11ee:	83 f8 00             	cmp    eax,0x0
    11f1:	0f 85 35 00 00 00    	jne    122c <main+0xa1c>
    11f7:	8b 45 d8             	mov    eax,DWORD PTR [ebp-0x28]
    11fa:	8b 4d e0             	mov    ecx,DWORD PTR [ebp-0x20]
    11fd:	89 04 24             	mov    DWORD PTR [esp],eax
    1200:	89 4c 24 04          	mov    DWORD PTR [esp+0x4],ecx
    1204:	e8 07 05 00 00       	call   1710 <free_global_memory>
    1209:	a1 00 00 00 00       	mov    eax,ds:0x0
    120e:	89 04 24             	mov    DWORD PTR [esp],eax
    1211:	8d 05 00 00 00 00    	lea    eax,ds:0x0
    1217:	89 44 24 04          	mov    DWORD PTR [esp+0x4],eax
    121b:	e8 fc ff ff ff       	call   121c <main+0xa0c>
    1220:	c7 45 f4 01 00 00 00 	mov    DWORD PTR [ebp-0xc],0x1
    1227:	e9 ce 04 00 00       	jmp    16fa <main+0xeea>
    122c:	e9 00 00 00 00       	jmp    1231 <main+0xa21>
    1231:	e9 00 00 00 00       	jmp    1236 <main+0xa26>
    1236:	8b 45 d8             	mov    eax,DWORD PTR [ebp-0x28]
    1239:	8b 48 24             	mov    ecx,DWORD PTR [eax+0x24]
    123c:	c1 e9 03             	shr    ecx,0x3
    123f:	89 48 24             	mov    DWORD PTR [eax+0x24],ecx
    1242:	8b 45 d8             	mov    eax,DWORD PTR [ebp-0x28]
    1245:	8b 40 24             	mov    eax,DWORD PTR [eax+0x24]
    1248:	89 04 24             	mov    DWORD PTR [esp],eax
    124b:	c7 44 24 04 01 00 00 	mov    DWORD PTR [esp+0x4],0x1
    1252:	00 
    1253:	e8 fc ff ff ff       	call   1254 <main+0xa44>
    1258:	8b 4d d8             	mov    ecx,DWORD PTR [ebp-0x28]
    125b:	89 41 20             	mov    DWORD PTR [ecx+0x20],eax
    125e:	8b 45 d8             	mov    eax,DWORD PTR [ebp-0x28]
    1261:	83 78 20 00          	cmp    DWORD PTR [eax+0x20],0x0
    1265:	0f 85 35 00 00 00    	jne    12a0 <main+0xa90>
    126b:	8b 45 d8             	mov    eax,DWORD PTR [ebp-0x28]
    126e:	8b 4d e0             	mov    ecx,DWORD PTR [ebp-0x20]
    1271:	89 04 24             	mov    DWORD PTR [esp],eax
    1274:	89 4c 24 04          	mov    DWORD PTR [esp+0x4],ecx
    1278:	e8 93 04 00 00       	call   1710 <free_global_memory>
    127d:	a1 00 00 00 00       	mov    eax,ds:0x0
    1282:	89 04 24             	mov    DWORD PTR [esp],eax
    1285:	8d 05 00 00 00 00    	lea    eax,ds:0x0
    128b:	89 44 24 04          	mov    DWORD PTR [esp+0x4],eax
    128f:	e8 fc ff ff ff       	call   1290 <main+0xa80>
    1294:	c7 45 f4 01 00 00 00 	mov    DWORD PTR [ebp-0xc],0x1
    129b:	e9 5a 04 00 00       	jmp    16fa <main+0xeea>
    12a0:	8b 45 d8             	mov    eax,DWORD PTR [ebp-0x28]
    12a3:	8b 40 08             	mov    eax,DWORD PTR [eax+0x8]
    12a6:	8b 4d d8             	mov    ecx,DWORD PTR [ebp-0x28]
    12a9:	8b 49 20             	mov    ecx,DWORD PTR [ecx+0x20]
    12ac:	8b 55 d8             	mov    edx,DWORD PTR [ebp-0x28]
    12af:	8b 52 24             	mov    edx,DWORD PTR [edx+0x24]
    12b2:	89 04 24             	mov    DWORD PTR [esp],eax
    12b5:	89 4c 24 04          	mov    DWORD PTR [esp+0x4],ecx
    12b9:	89 54 24 08          	mov    DWORD PTR [esp+0x8],edx
    12bd:	e8 fc ff ff ff       	call   12be <main+0xaae>
    12c2:	89 45 e8             	mov    DWORD PTR [ebp-0x18],eax
    12c5:	8b 45 e8             	mov    eax,DWORD PTR [ebp-0x18]
    12c8:	8b 4d d8             	mov    ecx,DWORD PTR [ebp-0x28]
    12cb:	3b 41 24             	cmp    eax,DWORD PTR [ecx+0x24]
    12ce:	0f 85 1d 00 00 00    	jne    12f1 <main+0xae1>
    12d4:	8b 45 d8             	mov    eax,DWORD PTR [ebp-0x28]
    12d7:	8b 40 08             	mov    eax,DWORD PTR [eax+0x8]
    12da:	8d 0d 00 00 00 00    	lea    ecx,ds:0x0
    12e0:	89 0c 24             	mov    DWORD PTR [esp],ecx
    12e3:	89 44 24 04          	mov    DWORD PTR [esp+0x4],eax
    12e7:	e8 fc ff ff ff       	call   12e8 <main+0xad8>
    12ec:	e9 69 01 00 00       	jmp    145a <main+0xc4a>
    12f1:	83 7d e8 00          	cmp    DWORD PTR [ebp-0x18],0x0
    12f5:	0f 8e 4f 00 00 00    	jle    134a <main+0xb3a>
    12fb:	8b 45 e8             	mov    eax,DWORD PTR [ebp-0x18]
    12fe:	8b 4d d8             	mov    ecx,DWORD PTR [ebp-0x28]
    1301:	3b 41 24             	cmp    eax,DWORD PTR [ecx+0x24]
    1304:	0f 8d 40 00 00 00    	jge    134a <main+0xb3a>
    130a:	8b 45 e8             	mov    eax,DWORD PTR [ebp-0x18]
    130d:	8b 4d d8             	mov    ecx,DWORD PTR [ebp-0x28]
    1310:	8b 49 24             	mov    ecx,DWORD PTR [ecx+0x24]
    1313:	8d 15 00 00 00 00    	lea    edx,ds:0x0
    1319:	89 14 24             	mov    DWORD PTR [esp],edx
    131c:	89 44 24 04          	mov    DWORD PTR [esp+0x4],eax
    1320:	89 4c 24 08          	mov    DWORD PTR [esp+0x8],ecx
    1324:	e8 fc ff ff ff       	call   1325 <main+0xb15>
    1329:	8b 4d d8             	mov    ecx,DWORD PTR [ebp-0x28]
    132c:	8b 55 e0             	mov    edx,DWORD PTR [ebp-0x20]
    132f:	89 0c 24             	mov    DWORD PTR [esp],ecx
    1332:	89 54 24 04          	mov    DWORD PTR [esp+0x4],edx
    1336:	89 45 b0             	mov    DWORD PTR [ebp-0x50],eax
    1339:	e8 d2 03 00 00       	call   1710 <free_global_memory>
    133e:	c7 45 f4 01 00 00 00 	mov    DWORD PTR [ebp-0xc],0x1
    1345:	e9 b0 03 00 00       	jmp    16fa <main+0xeea>
    134a:	31 c0                	xor    eax,eax
    134c:	3b 45 e8             	cmp    eax,DWORD PTR [ebp-0x18]
    134f:	0f 84 0e 00 00 00    	je     1363 <main+0xb53>
    1355:	b8 ff ff ff ff       	mov    eax,0xffffffff
    135a:	3b 45 e8             	cmp    eax,DWORD PTR [ebp-0x18]
    135d:	0f 85 ed 00 00 00    	jne    1450 <main+0xc40>
    1363:	8b 45 d8             	mov    eax,DWORD PTR [ebp-0x28]
    1366:	8b 40 08             	mov    eax,DWORD PTR [eax+0x8]
    1369:	89 04 24             	mov    DWORD PTR [esp],eax
    136c:	c7 44 24 04 00 01 00 	mov    DWORD PTR [esp+0x4],0x100
    1373:	00 
    1374:	e8 fc ff ff ff       	call   1375 <main+0xb65>
    1379:	89 45 e8             	mov    DWORD PTR [ebp-0x18],eax
    137c:	83 7d e8 07          	cmp    DWORD PTR [ebp-0x18],0x7
    1380:	0f 8e 89 00 00 00    	jle    140f <main+0xbff>
    1386:	81 7d e8 01 01 00 00 	cmp    DWORD PTR [ebp-0x18],0x101
    138d:	0f 8d 7c 00 00 00    	jge    140f <main+0xbff>
    1393:	8b 45 d8             	mov    eax,DWORD PTR [ebp-0x28]
    1396:	8b 4d d8             	mov    ecx,DWORD PTR [ebp-0x28]
    1399:	8b 49 08             	mov    ecx,DWORD PTR [ecx+0x8]
    139c:	8b 55 e8             	mov    edx,DWORD PTR [ebp-0x18]
    139f:	8b 75 d8             	mov    esi,DWORD PTR [ebp-0x28]
    13a2:	8b 76 20             	mov    esi,DWORD PTR [esi+0x20]
    13a5:	8b 7d d8             	mov    edi,DWORD PTR [ebp-0x28]
    13a8:	8b 7f 24             	mov    edi,DWORD PTR [edi+0x24]
    13ab:	89 04 24             	mov    DWORD PTR [esp],eax
    13ae:	89 4c 24 04          	mov    DWORD PTR [esp+0x4],ecx
    13b2:	89 54 24 08          	mov    DWORD PTR [esp+0x8],edx
    13b6:	89 74 24 0c          	mov    DWORD PTR [esp+0xc],esi
    13ba:	89 7c 24 10          	mov    DWORD PTR [esp+0x10],edi
    13be:	e8 bd 04 00 00       	call   1880 <KDFCLOMUL>
    13c3:	31 c0                	xor    eax,eax
    13c5:	8b 4d d8             	mov    ecx,DWORD PTR [ebp-0x28]
    13c8:	8b 49 08             	mov    ecx,DWORD PTR [ecx+0x8]
    13cb:	8b 55 d8             	mov    edx,DWORD PTR [ebp-0x28]
    13ce:	8b 52 0c             	mov    edx,DWORD PTR [edx+0xc]
    13d1:	89 0c 24             	mov    DWORD PTR [esp],ecx
    13d4:	c7 44 24 04 00 00 00 	mov    DWORD PTR [esp+0x4],0x0
    13db:	00 
    13dc:	89 54 24 08          	mov    DWORD PTR [esp+0x8],edx
    13e0:	89 45 ac             	mov    DWORD PTR [ebp-0x54],eax
    13e3:	e8 fc ff ff ff       	call   13e4 <main+0xbd4>
    13e8:	8b 45 d8             	mov    eax,DWORD PTR [ebp-0x28]
    13eb:	c7 40 08 00 00 00 00 	mov    DWORD PTR [eax+0x8],0x0
    13f2:	8b 45 d8             	mov    eax,DWORD PTR [ebp-0x28]
    13f5:	c7 40 0c 00 00 00 00 	mov    DWORD PTR [eax+0xc],0x0
    13fc:	8d 05 00 00 00 00    	lea    eax,ds:0x0
    1402:	89 04 24             	mov    DWORD PTR [esp],eax
    1405:	e8 fc ff ff ff       	call   1406 <main+0xbf6>
    140a:	e9 3c 00 00 00       	jmp    144b <main+0xc3b>
    140f:	8b 45 d8             	mov    eax,DWORD PTR [ebp-0x28]
    1412:	8b 4d e0             	mov    ecx,DWORD PTR [ebp-0x20]
    1415:	89 04 24             	mov    DWORD PTR [esp],eax
    1418:	89 4c 24 04          	mov    DWORD PTR [esp+0x4],ecx
    141c:	e8 ef 02 00 00       	call   1710 <free_global_memory>
    1421:	a1 00 00 00 00       	mov    eax,ds:0x0
    1426:	8b 4d e8             	mov    ecx,DWORD PTR [ebp-0x18]
    1429:	89 04 24             	mov    DWORD PTR [esp],eax
    142c:	8d 05 00 00 00 00    	lea    eax,ds:0x0
    1432:	89 44 24 04          	mov    DWORD PTR [esp+0x4],eax
    1436:	89 4c 24 08          	mov    DWORD PTR [esp+0x8],ecx
    143a:	e8 fc ff ff ff       	call   143b <main+0xc2b>
    143f:	c7 45 f4 01 00 00 00 	mov    DWORD PTR [ebp-0xc],0x1
    1446:	e9 af 02 00 00       	jmp    16fa <main+0xeea>
    144b:	e9 00 00 00 00       	jmp    1450 <main+0xc40>
    1450:	e9 00 00 00 00       	jmp    1455 <main+0xc45>
    1455:	e9 00 00 00 00       	jmp    145a <main+0xc4a>
    145a:	8b 45 d8             	mov    eax,DWORD PTR [ebp-0x28]
    145d:	8b 40 24             	mov    eax,DWORD PTR [eax+0x24]
    1460:	c1 e0 03             	shl    eax,0x3
    1463:	89 e1                	mov    ecx,esp
    1465:	89 41 04             	mov    DWORD PTR [ecx+0x4],eax
    1468:	c7 01 00 00 00 00    	mov    DWORD PTR [ecx],0x0
    146e:	e8 fc ff ff ff       	call   146f <main+0xc5f>
    1473:	8b 4d d8             	mov    ecx,DWORD PTR [ebp-0x28]
    1476:	8b 89 48 00 00 01    	mov    ecx,DWORD PTR [ecx+0x1000048]
    147c:	89 ca                	mov    edx,ecx
    147e:	83 ea 04             	sub    edx,0x4
    1481:	89 4d a8             	mov    DWORD PTR [ebp-0x58],ecx
    1484:	0f 87 81 00 00 00    	ja     150b <main+0xcfb>
    148a:	8b 45 a8             	mov    eax,DWORD PTR [ebp-0x58]
    148d:	8b 0c 85 24 00 00 00 	mov    ecx,DWORD PTR [eax*4+0x24]
    1494:	ff e1                	jmp    ecx
    1496:	8b 45 d8             	mov    eax,DWORD PTR [ebp-0x28]
    1499:	c7 40 1c 10 00 00 00 	mov    DWORD PTR [eax+0x1c],0x10
    14a0:	a1 00 00 00 00       	mov    eax,ds:0x0
    14a5:	83 c0 01             	add    eax,0x1
    14a8:	c1 e0 02             	shl    eax,0x2
    14ab:	c1 e0 02             	shl    eax,0x2
    14ae:	89 45 dc             	mov    DWORD PTR [ebp-0x24],eax
    14b1:	e9 55 00 00 00       	jmp    150b <main+0xcfb>
    14b6:	8b 45 d8             	mov    eax,DWORD PTR [ebp-0x28]
    14b9:	c7 40 1c 10 00 00 00 	mov    DWORD PTR [eax+0x1c],0x10
    14c0:	c7 45 dc 54 06 00 00 	mov    DWORD PTR [ebp-0x24],0x654
    14c7:	e9 3f 00 00 00       	jmp    150b <main+0xcfb>
    14cc:	8b 45 d8             	mov    eax,DWORD PTR [ebp-0x28]
    14cf:	c7 40 1c 10 00 00 00 	mov    DWORD PTR [eax+0x1c],0x10
    14d6:	c7 45 dc a4 10 00 00 	mov    DWORD PTR [ebp-0x24],0x10a4
    14dd:	e9 29 00 00 00       	jmp    150b <main+0xcfb>
    14e2:	8b 45 d8             	mov    eax,DWORD PTR [ebp-0x28]
    14e5:	c7 40 1c 08 00 00 00 	mov    DWORD PTR [eax+0x1c],0x8
    14ec:	c7 45 dc 48 10 00 00 	mov    DWORD PTR [ebp-0x24],0x1048
    14f3:	e9 13 00 00 00       	jmp    150b <main+0xcfb>
    14f8:	8b 45 d8             	mov    eax,DWORD PTR [ebp-0x28]
    14fb:	8b 40 24             	mov    eax,DWORD PTR [eax+0x24]
    14fe:	8b 4d d8             	mov    ecx,DWORD PTR [ebp-0x28]
    1501:	89 41 1c             	mov    DWORD PTR [ecx+0x1c],eax
    1504:	c7 45 dc a8 00 00 00 	mov    DWORD PTR [ebp-0x24],0xa8
    150b:	8b 45 d8             	mov    eax,DWORD PTR [ebp-0x28]
    150e:	8b 40 1c             	mov    eax,DWORD PTR [eax+0x1c]
    1511:	89 04 24             	mov    DWORD PTR [esp],eax
    1514:	c7 44 24 04 01 00 00 	mov    DWORD PTR [esp+0x4],0x1
    151b:	00 
    151c:	e8 fc ff ff ff       	call   151d <main+0xd0d>
    1521:	8b 4d d8             	mov    ecx,DWORD PTR [ebp-0x28]
    1524:	89 41 18             	mov    DWORD PTR [ecx+0x18],eax
    1527:	8b 45 d8             	mov    eax,DWORD PTR [ebp-0x28]
    152a:	83 78 18 00          	cmp    DWORD PTR [eax+0x18],0x0
    152e:	0f 85 35 00 00 00    	jne    1569 <main+0xd59>
    1534:	8b 45 d8             	mov    eax,DWORD PTR [ebp-0x28]
    1537:	8b 4d e0             	mov    ecx,DWORD PTR [ebp-0x20]
    153a:	89 04 24             	mov    DWORD PTR [esp],eax
    153d:	89 4c 24 04          	mov    DWORD PTR [esp+0x4],ecx
    1541:	e8 ca 01 00 00       	call   1710 <free_global_memory>
    1546:	a1 00 00 00 00       	mov    eax,ds:0x0
    154b:	89 04 24             	mov    DWORD PTR [esp],eax
    154e:	8d 05 00 00 00 00    	lea    eax,ds:0x0
    1554:	89 44 24 04          	mov    DWORD PTR [esp+0x4],eax
    1558:	e8 fc ff ff ff       	call   1559 <main+0xd49>
    155d:	c7 45 f4 01 00 00 00 	mov    DWORD PTR [ebp-0xc],0x1
    1564:	e9 91 01 00 00       	jmp    16fa <main+0xeea>
    1569:	31 c0                	xor    eax,eax
    156b:	8b 4d d8             	mov    ecx,DWORD PTR [ebp-0x28]
    156e:	3b 81 44 00 00 01    	cmp    eax,DWORD PTR [ecx+0x1000044]
    1574:	0f 85 6a 00 00 00    	jne    15e4 <main+0xdd4>
    157a:	31 c0                	xor    eax,eax
    157c:	8b 4d f0             	mov    ecx,DWORD PTR [ebp-0x10]
    157f:	c7 04 24 00 00 00 00 	mov    DWORD PTR [esp],0x0
    1586:	89 45 a4             	mov    DWORD PTR [ebp-0x5c],eax
    1589:	89 4d a0             	mov    DWORD PTR [ebp-0x60],ecx
    158c:	e8 fc ff ff ff       	call   158d <main+0xd7d>
    1591:	8b 4d a0             	mov    ecx,DWORD PTR [ebp-0x60]
    1594:	01 c1                	add    ecx,eax
    1596:	89 0c 24             	mov    DWORD PTR [esp],ecx
    1599:	e8 fc ff ff ff       	call   159a <main+0xd8a>
    159e:	31 c0                	xor    eax,eax
    15a0:	8b 4d f0             	mov    ecx,DWORD PTR [ebp-0x10]
    15a3:	c7 04 24 00 00 00 00 	mov    DWORD PTR [esp],0x0
    15aa:	c7 44 24 04 ff ff ff 	mov    DWORD PTR [esp+0x4],0xffffffff
    15b1:	ff 
    15b2:	89 45 9c             	mov    DWORD PTR [ebp-0x64],eax
    15b5:	89 4d 98             	mov    DWORD PTR [ebp-0x68],ecx
    15b8:	e8 fc ff ff ff       	call   15b9 <main+0xda9>
    15bd:	8b 4d 98             	mov    ecx,DWORD PTR [ebp-0x68]
    15c0:	01 c1                	add    ecx,eax
    15c2:	8b 45 d8             	mov    eax,DWORD PTR [ebp-0x28]
    15c5:	8b 40 18             	mov    eax,DWORD PTR [eax+0x18]
    15c8:	33 08                	xor    ecx,DWORD PTR [eax]
    15ca:	89 08                	mov    DWORD PTR [eax],ecx
    15cc:	8b 45 d8             	mov    eax,DWORD PTR [ebp-0x28]
    15cf:	8b 40 18             	mov    eax,DWORD PTR [eax+0x18]
    15d2:	8b 4d d8             	mov    ecx,DWORD PTR [ebp-0x28]
    15d5:	8b 49 1c             	mov    ecx,DWORD PTR [ecx+0x1c]
    15d8:	89 04 24             	mov    DWORD PTR [esp],eax
    15db:	89 4c 24 04          	mov    DWORD PTR [esp+0x4],ecx
    15df:	e8 fc ff ff ff       	call   15e0 <main+0xdd0>
    15e4:	8b 45 d8             	mov    eax,DWORD PTR [ebp-0x28]
    15e7:	8b 4d dc             	mov    ecx,DWORD PTR [ebp-0x24]
    15ea:	89 04 24             	mov    DWORD PTR [esp],eax
    15ed:	89 4c 24 04          	mov    DWORD PTR [esp+0x4],ecx
    15f1:	e8 0a 04 00 00       	call   1a00 <cipher_init_memory>
    15f6:	89 45 d4             	mov    DWORD PTR [ebp-0x2c],eax
    15f9:	83 7d d4 00          	cmp    DWORD PTR [ebp-0x2c],0x0
    15fd:	0f 85 35 00 00 00    	jne    1638 <main+0xe28>
    1603:	8b 45 d8             	mov    eax,DWORD PTR [ebp-0x28]
    1606:	8b 4d e0             	mov    ecx,DWORD PTR [ebp-0x20]
    1609:	89 04 24             	mov    DWORD PTR [esp],eax
    160c:	89 4c 24 04          	mov    DWORD PTR [esp+0x4],ecx
    1610:	e8 fb 00 00 00       	call   1710 <free_global_memory>
    1615:	a1 00 00 00 00       	mov    eax,ds:0x0
    161a:	89 04 24             	mov    DWORD PTR [esp],eax
    161d:	8d 05 00 00 00 00    	lea    eax,ds:0x0
    1623:	89 44 24 04          	mov    DWORD PTR [esp+0x4],eax
    1627:	e8 fc ff ff ff       	call   1628 <main+0xe18>
    162c:	c7 45 f4 01 00 00 00 	mov    DWORD PTR [ebp-0xc],0x1
    1633:	e9 c2 00 00 00       	jmp    16fa <main+0xeea>
    1638:	8b 45 d8             	mov    eax,DWORD PTR [ebp-0x28]
    163b:	8b 80 48 00 00 01    	mov    eax,DWORD PTR [eax+0x1000048]
    1641:	8b 04 85 14 00 00 00 	mov    eax,DWORD PTR [eax*4+0x14]
    1648:	8d 0d 00 00 00 00    	lea    ecx,ds:0x0
    164e:	89 0c 24             	mov    DWORD PTR [esp],ecx
    1651:	89 44 24 04          	mov    DWORD PTR [esp+0x4],eax
    1655:	e8 fc ff ff ff       	call   1656 <main+0xe46>
    165a:	8b 4d d8             	mov    ecx,DWORD PTR [ebp-0x28]
    165d:	8b 89 44 00 00 01    	mov    ecx,DWORD PTR [ecx+0x1000044]
    1663:	89 0c 24             	mov    DWORD PTR [esp],ecx
    1666:	89 45 94             	mov    DWORD PTR [ebp-0x6c],eax
    1669:	e8 d2 ed ff ff       	call   440 <operation_variant>
    166e:	8b 04 85 0c 00 00 00 	mov    eax,DWORD PTR [eax*4+0xc]
    1675:	8b 4d d8             	mov    ecx,DWORD PTR [ebp-0x28]
    1678:	8b 09                	mov    ecx,DWORD PTR [ecx]
    167a:	8d 15 00 00 00 00    	lea    edx,ds:0x0
    1680:	89 14 24             	mov    DWORD PTR [esp],edx
    1683:	89 44 24 04          	mov    DWORD PTR [esp+0x4],eax
    1687:	89 4c 24 08          	mov    DWORD PTR [esp+0x8],ecx
    168b:	e8 fc ff ff ff       	call   168c <main+0xe7c>
    1690:	8b 4d d8             	mov    ecx,DWORD PTR [ebp-0x28]
    1693:	89 0c 24             	mov    DWORD PTR [esp],ecx
    1696:	89 45 90             	mov    DWORD PTR [ebp-0x70],eax
    1699:	e8 d2 04 00 00       	call   1b70 <filecrypt>
    169e:	89 45 e4             	mov    DWORD PTR [ebp-0x1c],eax
    16a1:	8b 45 d8             	mov    eax,DWORD PTR [ebp-0x28]
    16a4:	8b 4d e4             	mov    ecx,DWORD PTR [ebp-0x1c]
    16a7:	89 04 24             	mov    DWORD PTR [esp],eax
    16aa:	89 4c 24 04          	mov    DWORD PTR [esp+0x4],ecx
    16ae:	e8 fc ff ff ff       	call   16af <main+0xe9f>
    16b3:	8b 45 d4             	mov    eax,DWORD PTR [ebp-0x2c]
    16b6:	8b 4d dc             	mov    ecx,DWORD PTR [ebp-0x24]
    16b9:	89 04 24             	mov    DWORD PTR [esp],eax
    16bc:	89 4c 24 04          	mov    DWORD PTR [esp+0x4],ecx
    16c0:	e8 6b 0d 00 00       	call   2430 <cipher_free>
    16c5:	8b 45 d8             	mov    eax,DWORD PTR [ebp-0x28]
    16c8:	8b 4d e0             	mov    ecx,DWORD PTR [ebp-0x20]
    16cb:	89 04 24             	mov    DWORD PTR [esp],eax
    16ce:	89 4c 24 04          	mov    DWORD PTR [esp+0x4],ecx
    16d2:	e8 39 00 00 00       	call   1710 <free_global_memory>
    16d7:	c7 45 d4 00 00 00 00 	mov    DWORD PTR [ebp-0x2c],0x0
    16de:	c7 45 d8 00 00 00 00 	mov    DWORD PTR [ebp-0x28],0x0
    16e5:	c7 45 dc 00 00 00 00 	mov    DWORD PTR [ebp-0x24],0x0
    16ec:	c7 45 e0 00 00 00 00 	mov    DWORD PTR [ebp-0x20],0x0
    16f3:	c7 45 f4 00 00 00 00 	mov    DWORD PTR [ebp-0xc],0x0
    16fa:	8b 45 f4             	mov    eax,DWORD PTR [ebp-0xc]
    16fd:	81 c4 80 00 00 00    	add    esp,0x80
    1703:	5e                   	pop    esi
    1704:	5f                   	pop    edi
    1705:	5d                   	pop    ebp
    1706:	c3                   	ret    
    1707:	90                   	nop
    1708:	90                   	nop
    1709:	90                   	nop
    170a:	90                   	nop
    170b:	90                   	nop
    170c:	90                   	nop
    170d:	90                   	nop
    170e:	90                   	nop
    170f:	90                   	nop

00001710 <free_global_memory>:
    1710:	55                   	push   ebp
    1711:	89 e5                	mov    ebp,esp
    1713:	83 ec 28             	sub    esp,0x28
    1716:	8b 45 0c             	mov    eax,DWORD PTR [ebp+0xc]
    1719:	8b 4d 08             	mov    ecx,DWORD PTR [ebp+0x8]
    171c:	8b 55 08             	mov    edx,DWORD PTR [ebp+0x8]
    171f:	83 7a 08 00          	cmp    DWORD PTR [edx+0x8],0x0
    1723:	0f 84 32 00 00 00    	je     175b <free_global_memory+0x4b>
    1729:	8b 45 08             	mov    eax,DWORD PTR [ebp+0x8]
    172c:	83 78 0c 00          	cmp    DWORD PTR [eax+0xc],0x0
    1730:	0f 86 25 00 00 00    	jbe    175b <free_global_memory+0x4b>
    1736:	31 c0                	xor    eax,eax
    1738:	8b 4d 08             	mov    ecx,DWORD PTR [ebp+0x8]
    173b:	8b 49 08             	mov    ecx,DWORD PTR [ecx+0x8]
    173e:	8b 55 08             	mov    edx,DWORD PTR [ebp+0x8]
    1741:	8b 52 0c             	mov    edx,DWORD PTR [edx+0xc]
    1744:	89 0c 24             	mov    DWORD PTR [esp],ecx
    1747:	c7 44 24 04 00 00 00 	mov    DWORD PTR [esp+0x4],0x0
    174e:	00 
    174f:	89 54 24 08          	mov    DWORD PTR [esp+0x8],edx
    1753:	89 45 fc             	mov    DWORD PTR [ebp-0x4],eax
    1756:	e8 fc ff ff ff       	call   1757 <free_global_memory+0x47>
    175b:	8b 45 08             	mov    eax,DWORD PTR [ebp+0x8]
    175e:	83 78 10 00          	cmp    DWORD PTR [eax+0x10],0x0
    1762:	0f 84 32 00 00 00    	je     179a <free_global_memory+0x8a>
    1768:	8b 45 08             	mov    eax,DWORD PTR [ebp+0x8]
    176b:	83 78 14 00          	cmp    DWORD PTR [eax+0x14],0x0
    176f:	0f 86 25 00 00 00    	jbe    179a <free_global_memory+0x8a>
    1775:	31 c0                	xor    eax,eax
    1777:	8b 4d 08             	mov    ecx,DWORD PTR [ebp+0x8]
    177a:	8b 49 10             	mov    ecx,DWORD PTR [ecx+0x10]
    177d:	8b 55 08             	mov    edx,DWORD PTR [ebp+0x8]
    1780:	8b 52 14             	mov    edx,DWORD PTR [edx+0x14]
    1783:	89 0c 24             	mov    DWORD PTR [esp],ecx
    1786:	c7 44 24 04 00 00 00 	mov    DWORD PTR [esp+0x4],0x0
    178d:	00 
    178e:	89 54 24 08          	mov    DWORD PTR [esp+0x8],edx
    1792:	89 45 f8             	mov    DWORD PTR [ebp-0x8],eax
    1795:	e8 fc ff ff ff       	call   1796 <free_global_memory+0x86>
    179a:	8b 45 08             	mov    eax,DWORD PTR [ebp+0x8]
    179d:	83 78 18 00          	cmp    DWORD PTR [eax+0x18],0x0
    17a1:	0f 84 32 00 00 00    	je     17d9 <free_global_memory+0xc9>
    17a7:	8b 45 08             	mov    eax,DWORD PTR [ebp+0x8]
    17aa:	83 78 1c 00          	cmp    DWORD PTR [eax+0x1c],0x0
    17ae:	0f 86 25 00 00 00    	jbe    17d9 <free_global_memory+0xc9>
    17b4:	31 c0                	xor    eax,eax
    17b6:	8b 4d 08             	mov    ecx,DWORD PTR [ebp+0x8]
    17b9:	8b 49 18             	mov    ecx,DWORD PTR [ecx+0x18]
    17bc:	8b 55 08             	mov    edx,DWORD PTR [ebp+0x8]
    17bf:	8b 52 1c             	mov    edx,DWORD PTR [edx+0x1c]
    17c2:	89 0c 24             	mov    DWORD PTR [esp],ecx
    17c5:	c7 44 24 04 00 00 00 	mov    DWORD PTR [esp+0x4],0x0
    17cc:	00 
    17cd:	89 54 24 08          	mov    DWORD PTR [esp+0x8],edx
    17d1:	89 45 f4             	mov    DWORD PTR [ebp-0xc],eax
    17d4:	e8 fc ff ff ff       	call   17d5 <free_global_memory+0xc5>
    17d9:	8b 45 08             	mov    eax,DWORD PTR [ebp+0x8]
    17dc:	83 78 20 00          	cmp    DWORD PTR [eax+0x20],0x0
    17e0:	0f 84 32 00 00 00    	je     1818 <free_global_memory+0x108>
    17e6:	8b 45 08             	mov    eax,DWORD PTR [ebp+0x8]
    17e9:	83 78 24 00          	cmp    DWORD PTR [eax+0x24],0x0
    17ed:	0f 86 25 00 00 00    	jbe    1818 <free_global_memory+0x108>
    17f3:	31 c0                	xor    eax,eax
    17f5:	8b 4d 08             	mov    ecx,DWORD PTR [ebp+0x8]
    17f8:	8b 49 20             	mov    ecx,DWORD PTR [ecx+0x20]
    17fb:	8b 55 08             	mov    edx,DWORD PTR [ebp+0x8]
    17fe:	8b 52 24             	mov    edx,DWORD PTR [edx+0x24]
    1801:	89 0c 24             	mov    DWORD PTR [esp],ecx
    1804:	c7 44 24 04 00 00 00 	mov    DWORD PTR [esp+0x4],0x0
    180b:	00 
    180c:	89 54 24 08          	mov    DWORD PTR [esp+0x8],edx
    1810:	89 45 f0             	mov    DWORD PTR [ebp-0x10],eax
    1813:	e8 fc ff ff ff       	call   1814 <free_global_memory+0x104>
    1818:	8b 45 08             	mov    eax,DWORD PTR [ebp+0x8]
    181b:	8b 40 08             	mov    eax,DWORD PTR [eax+0x8]
    181e:	89 04 24             	mov    DWORD PTR [esp],eax
    1821:	e8 fc ff ff ff       	call   1822 <free_global_memory+0x112>
    1826:	8b 45 08             	mov    eax,DWORD PTR [ebp+0x8]
    1829:	8b 40 20             	mov    eax,DWORD PTR [eax+0x20]
    182c:	89 04 24             	mov    DWORD PTR [esp],eax
    182f:	e8 fc ff ff ff       	call   1830 <free_global_memory+0x120>
    1834:	8b 45 08             	mov    eax,DWORD PTR [ebp+0x8]
    1837:	8b 40 10             	mov    eax,DWORD PTR [eax+0x10]
    183a:	89 04 24             	mov    DWORD PTR [esp],eax
    183d:	e8 fc ff ff ff       	call   183e <free_global_memory+0x12e>
    1842:	8b 45 08             	mov    eax,DWORD PTR [ebp+0x8]
    1845:	8b 40 18             	mov    eax,DWORD PTR [eax+0x18]
    1848:	89 04 24             	mov    DWORD PTR [esp],eax
    184b:	e8 fc ff ff ff       	call   184c <free_global_memory+0x13c>
    1850:	31 c0                	xor    eax,eax
    1852:	8b 4d 08             	mov    ecx,DWORD PTR [ebp+0x8]
    1855:	8b 55 0c             	mov    edx,DWORD PTR [ebp+0xc]
    1858:	89 0c 24             	mov    DWORD PTR [esp],ecx
    185b:	c7 44 24 04 00 00 00 	mov    DWORD PTR [esp+0x4],0x0
    1862:	00 
    1863:	89 54 24 08          	mov    DWORD PTR [esp+0x8],edx
    1867:	89 45 ec             	mov    DWORD PTR [ebp-0x14],eax
    186a:	e8 fc ff ff ff       	call   186b <free_global_memory+0x15b>
    186f:	8b 45 08             	mov    eax,DWORD PTR [ebp+0x8]
    1872:	89 04 24             	mov    DWORD PTR [esp],eax
    1875:	e8 fc ff ff ff       	call   1876 <free_global_memory+0x166>
    187a:	83 c4 28             	add    esp,0x28
    187d:	5d                   	pop    ebp
    187e:	c3                   	ret    
    187f:	90                   	nop

00001880 <KDFCLOMUL>:
    1880:	55                   	push   ebp
    1881:	89 e5                	mov    ebp,esp
    1883:	57                   	push   edi
    1884:	56                   	push   esi
    1885:	83 ec 20             	sub    esp,0x20
    1888:	8b 45 18             	mov    eax,DWORD PTR [ebp+0x18]
    188b:	8b 4d 14             	mov    ecx,DWORD PTR [ebp+0x14]
    188e:	8b 55 10             	mov    edx,DWORD PTR [ebp+0x10]
    1891:	8b 75 0c             	mov    esi,DWORD PTR [ebp+0xc]
    1894:	8b 7d 08             	mov    edi,DWORD PTR [ebp+0x8]
    1897:	c7 45 e8 00 00 00 00 	mov    DWORD PTR [ebp-0x18],0x0
    189e:	c7 45 f4 01 00 00 00 	mov    DWORD PTR [ebp-0xc],0x1
    18a5:	8b 45 f4             	mov    eax,DWORD PTR [ebp-0xc]
    18a8:	3b 45 10             	cmp    eax,DWORD PTR [ebp+0x10]
    18ab:	0f 87 3d 00 00 00    	ja     18ee <KDFCLOMUL+0x6e>
    18b1:	8b 45 0c             	mov    eax,DWORD PTR [ebp+0xc]
    18b4:	8b 4d f4             	mov    ecx,DWORD PTR [ebp-0xc]
    18b7:	89 04 24             	mov    DWORD PTR [esp],eax
    18ba:	89 4c 24 04          	mov    DWORD PTR [esp+0x4],ecx
    18be:	e8 fc ff ff ff       	call   18bf <KDFCLOMUL+0x3f>
    18c3:	83 c0 01             	add    eax,0x1
    18c6:	33 45 e8             	xor    eax,DWORD PTR [ebp-0x18]
    18c9:	89 45 e8             	mov    DWORD PTR [ebp-0x18],eax
    18cc:	8b 45 10             	mov    eax,DWORD PTR [ebp+0x10]
    18cf:	03 45 18             	add    eax,DWORD PTR [ebp+0x18]
    18d2:	83 c0 01             	add    eax,0x1
    18d5:	03 45 f4             	add    eax,DWORD PTR [ebp-0xc]
    18d8:	8b 4d e8             	mov    ecx,DWORD PTR [ebp-0x18]
    18db:	29 c1                	sub    ecx,eax
    18dd:	89 4d e8             	mov    DWORD PTR [ebp-0x18],ecx
    18e0:	8b 45 f4             	mov    eax,DWORD PTR [ebp-0xc]
    18e3:	83 c0 01             	add    eax,0x1
    18e6:	89 45 f4             	mov    DWORD PTR [ebp-0xc],eax
    18e9:	e9 b7 ff ff ff       	jmp    18a5 <KDFCLOMUL+0x25>
    18ee:	8b 45 0c             	mov    eax,DWORD PTR [ebp+0xc]
    18f1:	8b 4d 10             	mov    ecx,DWORD PTR [ebp+0x10]
    18f4:	89 04 24             	mov    DWORD PTR [esp],eax
    18f7:	89 4c 24 04          	mov    DWORD PTR [esp+0x4],ecx
    18fb:	e8 fc ff ff ff       	call   18fc <KDFCLOMUL+0x7c>
    1900:	23 45 e8             	and    eax,DWORD PTR [ebp-0x18]
    1903:	89 45 e8             	mov    DWORD PTR [ebp-0x18],eax
    1906:	8b 45 e8             	mov    eax,DWORD PTR [ebp-0x18]
    1909:	c1 e8 12             	shr    eax,0x12
    190c:	89 45 e8             	mov    DWORD PTR [ebp-0x18],eax
    190f:	8b 45 e8             	mov    eax,DWORD PTR [ebp-0x18]
    1912:	0d 00 40 00 00       	or     eax,0x4000
    1917:	89 45 e8             	mov    DWORD PTR [ebp-0x18],eax
    191a:	8b 45 e8             	mov    eax,DWORD PTR [ebp-0x18]
    191d:	c1 e0 00             	shl    eax,0x0
    1920:	89 45 e8             	mov    DWORD PTR [ebp-0x18],eax
    1923:	8b 45 08             	mov    eax,DWORD PTR [ebp+0x8]
    1926:	8b 40 10             	mov    eax,DWORD PTR [eax+0x10]
    1929:	89 04 24             	mov    DWORD PTR [esp],eax
    192c:	e8 fc ff ff ff       	call   192d <KDFCLOMUL+0xad>
    1931:	c7 45 ec 00 00 00 00 	mov    DWORD PTR [ebp-0x14],0x0
    1938:	c7 45 f4 00 00 00 00 	mov    DWORD PTR [ebp-0xc],0x0
    193f:	8b 45 f4             	mov    eax,DWORD PTR [ebp-0xc]
    1942:	3b 45 18             	cmp    eax,DWORD PTR [ebp+0x18]
    1945:	0f 83 89 00 00 00    	jae    19d4 <KDFCLOMUL+0x154>
    194b:	c7 45 f0 00 00 00 00 	mov    DWORD PTR [ebp-0x10],0x0
    1952:	8b 45 f0             	mov    eax,DWORD PTR [ebp-0x10]
    1955:	3b 45 e8             	cmp    eax,DWORD PTR [ebp-0x18]
    1958:	0f 83 2a 00 00 00    	jae    1988 <KDFCLOMUL+0x108>
    195e:	8b 45 08             	mov    eax,DWORD PTR [ebp+0x8]
    1961:	8b 40 10             	mov    eax,DWORD PTR [eax+0x10]
    1964:	8b 4d 0c             	mov    ecx,DWORD PTR [ebp+0xc]
    1967:	8b 55 10             	mov    edx,DWORD PTR [ebp+0x10]
    196a:	89 04 24             	mov    DWORD PTR [esp],eax
    196d:	89 4c 24 04          	mov    DWORD PTR [esp+0x4],ecx
    1971:	89 54 24 08          	mov    DWORD PTR [esp+0x8],edx
    1975:	e8 fc ff ff ff       	call   1976 <KDFCLOMUL+0xf6>
    197a:	8b 45 f0             	mov    eax,DWORD PTR [ebp-0x10]
    197d:	83 c0 01             	add    eax,0x1
    1980:	89 45 f0             	mov    DWORD PTR [ebp-0x10],eax
    1983:	e9 ca ff ff ff       	jmp    1952 <KDFCLOMUL+0xd2>
    1988:	8b 45 08             	mov    eax,DWORD PTR [ebp+0x8]
    198b:	8b 40 10             	mov    eax,DWORD PTR [eax+0x10]
    198e:	89 04 24             	mov    DWORD PTR [esp],eax
    1991:	e8 fc ff ff ff       	call   1992 <KDFCLOMUL+0x112>
    1996:	83 7d ec 20          	cmp    DWORD PTR [ebp-0x14],0x20
    199a:	0f 82 07 00 00 00    	jb     19a7 <KDFCLOMUL+0x127>
    19a0:	c7 45 ec 00 00 00 00 	mov    DWORD PTR [ebp-0x14],0x0
    19a7:	8b 45 08             	mov    eax,DWORD PTR [ebp+0x8]
    19aa:	8b 40 10             	mov    eax,DWORD PTR [eax+0x10]
    19ad:	8b 4d ec             	mov    ecx,DWORD PTR [ebp-0x14]
    19b0:	8a 54 08 6c          	mov    dl,BYTE PTR [eax+ecx*1+0x6c]
    19b4:	8b 45 14             	mov    eax,DWORD PTR [ebp+0x14]
    19b7:	8b 4d f4             	mov    ecx,DWORD PTR [ebp-0xc]
    19ba:	88 14 08             	mov    BYTE PTR [eax+ecx*1],dl
    19bd:	8b 45 f4             	mov    eax,DWORD PTR [ebp-0xc]
    19c0:	83 c0 01             	add    eax,0x1
    19c3:	89 45 f4             	mov    DWORD PTR [ebp-0xc],eax
    19c6:	8b 45 ec             	mov    eax,DWORD PTR [ebp-0x14]
    19c9:	83 c0 01             	add    eax,0x1
    19cc:	89 45 ec             	mov    DWORD PTR [ebp-0x14],eax
    19cf:	e9 6b ff ff ff       	jmp    193f <KDFCLOMUL+0xbf>
    19d4:	31 c0                	xor    eax,eax
    19d6:	8b 4d 08             	mov    ecx,DWORD PTR [ebp+0x8]
    19d9:	8b 49 10             	mov    ecx,DWORD PTR [ecx+0x10]
    19dc:	8b 55 08             	mov    edx,DWORD PTR [ebp+0x8]
    19df:	8b 52 14             	mov    edx,DWORD PTR [edx+0x14]
    19e2:	89 0c 24             	mov    DWORD PTR [esp],ecx
    19e5:	c7 44 24 04 00 00 00 	mov    DWORD PTR [esp+0x4],0x0
    19ec:	00 
    19ed:	89 54 24 08          	mov    DWORD PTR [esp+0x8],edx
    19f1:	89 45 e4             	mov    DWORD PTR [ebp-0x1c],eax
    19f4:	e8 fc ff ff ff       	call   19f5 <KDFCLOMUL+0x175>
    19f9:	83 c4 20             	add    esp,0x20
    19fc:	5e                   	pop    esi
    19fd:	5f                   	pop    edi
    19fe:	5d                   	pop    ebp
    19ff:	c3                   	ret    

00001a00 <cipher_init_memory>:
    1a00:	55                   	push   ebp
    1a01:	89 e5                	mov    ebp,esp
    1a03:	56                   	push   esi
    1a04:	83 ec 24             	sub    esp,0x24
    1a07:	8b 45 0c             	mov    eax,DWORD PTR [ebp+0xc]
    1a0a:	8b 4d 08             	mov    ecx,DWORD PTR [ebp+0x8]
    1a0d:	8b 55 0c             	mov    edx,DWORD PTR [ebp+0xc]
    1a10:	89 14 24             	mov    DWORD PTR [esp],edx
    1a13:	c7 44 24 04 01 00 00 	mov    DWORD PTR [esp+0x4],0x1
    1a1a:	00 
    1a1b:	89 45 f0             	mov    DWORD PTR [ebp-0x10],eax
    1a1e:	89 4d ec             	mov    DWORD PTR [ebp-0x14],ecx
    1a21:	e8 fc ff ff ff       	call   1a22 <cipher_init_memory+0x22>
    1a26:	89 45 f4             	mov    DWORD PTR [ebp-0xc],eax
    1a29:	83 7d f4 00          	cmp    DWORD PTR [ebp-0xc],0x0
    1a2d:	0f 85 0c 00 00 00    	jne    1a3f <cipher_init_memory+0x3f>
    1a33:	c7 45 f8 00 00 00 00 	mov    DWORD PTR [ebp-0x8],0x0
    1a3a:	e9 1d 01 00 00       	jmp    1b5c <cipher_init_memory+0x15c>
    1a3f:	8b 45 08             	mov    eax,DWORD PTR [ebp+0x8]
    1a42:	8b 80 48 00 00 01    	mov    eax,DWORD PTR [eax+0x1000048]
    1a48:	89 c1                	mov    ecx,eax
    1a4a:	83 e9 04             	sub    ecx,0x4
    1a4d:	89 45 e8             	mov    DWORD PTR [ebp-0x18],eax
    1a50:	0f 87 00 01 00 00    	ja     1b56 <cipher_init_memory+0x156>
    1a56:	8b 45 e8             	mov    eax,DWORD PTR [ebp-0x18]
    1a59:	8b 0c 85 38 00 00 00 	mov    ecx,DWORD PTR [eax*4+0x38]
    1a60:	ff e1                	jmp    ecx
    1a62:	8b 45 f4             	mov    eax,DWORD PTR [ebp-0xc]
    1a65:	a3 00 00 00 00       	mov    ds:0x0,eax
    1a6a:	a1 00 00 00 00       	mov    eax,ds:0x0
    1a6f:	8b 4d 08             	mov    ecx,DWORD PTR [ebp+0x8]
    1a72:	8b 49 20             	mov    ecx,DWORD PTR [ecx+0x20]
    1a75:	8b 55 08             	mov    edx,DWORD PTR [ebp+0x8]
    1a78:	8b 52 24             	mov    edx,DWORD PTR [edx+0x24]
    1a7b:	c1 e2 03             	shl    edx,0x3
    1a7e:	89 04 24             	mov    DWORD PTR [esp],eax
    1a81:	89 4c 24 04          	mov    DWORD PTR [esp+0x4],ecx
    1a85:	89 54 24 08          	mov    DWORD PTR [esp+0x8],edx
    1a89:	e8 fc ff ff ff       	call   1a8a <cipher_init_memory+0x8a>
    1a8e:	e9 c3 00 00 00       	jmp    1b56 <cipher_init_memory+0x156>
    1a93:	8b 45 f4             	mov    eax,DWORD PTR [ebp-0xc]
    1a96:	a3 04 00 00 00       	mov    ds:0x4,eax
    1a9b:	a1 04 00 00 00       	mov    eax,ds:0x4
    1aa0:	8b 4d 08             	mov    ecx,DWORD PTR [ebp+0x8]
    1aa3:	8b 49 20             	mov    ecx,DWORD PTR [ecx+0x20]
    1aa6:	8b 55 08             	mov    edx,DWORD PTR [ebp+0x8]
    1aa9:	8b 52 24             	mov    edx,DWORD PTR [edx+0x24]
    1aac:	89 04 24             	mov    DWORD PTR [esp],eax
    1aaf:	89 4c 24 04          	mov    DWORD PTR [esp+0x4],ecx
    1ab3:	89 54 24 08          	mov    DWORD PTR [esp+0x8],edx
    1ab7:	e8 fc ff ff ff       	call   1ab8 <cipher_init_memory+0xb8>
    1abc:	e9 95 00 00 00       	jmp    1b56 <cipher_init_memory+0x156>
    1ac1:	8b 45 f4             	mov    eax,DWORD PTR [ebp-0xc]
    1ac4:	a3 08 00 00 00       	mov    ds:0x8,eax
    1ac9:	a1 08 00 00 00       	mov    eax,ds:0x8
    1ace:	8b 4d 08             	mov    ecx,DWORD PTR [ebp+0x8]
    1ad1:	8b 49 24             	mov    ecx,DWORD PTR [ecx+0x24]
    1ad4:	c1 e1 03             	shl    ecx,0x3
    1ad7:	8b 55 08             	mov    edx,DWORD PTR [ebp+0x8]
    1ada:	8b 52 20             	mov    edx,DWORD PTR [edx+0x20]
    1add:	89 04 24             	mov    DWORD PTR [esp],eax
    1ae0:	89 4c 24 04          	mov    DWORD PTR [esp+0x4],ecx
    1ae4:	89 54 24 08          	mov    DWORD PTR [esp+0x8],edx
    1ae8:	e8 fc ff ff ff       	call   1ae9 <cipher_init_memory+0xe9>
    1aed:	e9 64 00 00 00       	jmp    1b56 <cipher_init_memory+0x156>
    1af2:	8b 45 f4             	mov    eax,DWORD PTR [ebp-0xc]
    1af5:	a3 0c 00 00 00       	mov    ds:0xc,eax
    1afa:	a1 0c 00 00 00       	mov    eax,ds:0xc
    1aff:	8b 4d 08             	mov    ecx,DWORD PTR [ebp+0x8]
    1b02:	8b 49 20             	mov    ecx,DWORD PTR [ecx+0x20]
    1b05:	8b 55 08             	mov    edx,DWORD PTR [ebp+0x8]
    1b08:	8b 52 24             	mov    edx,DWORD PTR [edx+0x24]
    1b0b:	89 04 24             	mov    DWORD PTR [esp],eax
    1b0e:	89 4c 24 04          	mov    DWORD PTR [esp+0x4],ecx
    1b12:	89 54 24 08          	mov    DWORD PTR [esp+0x8],edx
    1b16:	e8 fc ff ff ff       	call   1b17 <cipher_init_memory+0x117>
    1b1b:	e9 36 00 00 00       	jmp    1b56 <cipher_init_memory+0x156>
    1b20:	8b 45 f4             	mov    eax,DWORD PTR [ebp-0xc]
    1b23:	a3 10 00 00 00       	mov    ds:0x10,eax
    1b28:	a1 10 00 00 00       	mov    eax,ds:0x10
    1b2d:	8b 4d 08             	mov    ecx,DWORD PTR [ebp+0x8]
    1b30:	8b 49 24             	mov    ecx,DWORD PTR [ecx+0x24]
    1b33:	c1 e1 03             	shl    ecx,0x3
    1b36:	8b 55 08             	mov    edx,DWORD PTR [ebp+0x8]
    1b39:	8b 52 20             	mov    edx,DWORD PTR [edx+0x20]
    1b3c:	8b 75 08             	mov    esi,DWORD PTR [ebp+0x8]
    1b3f:	8b 76 20             	mov    esi,DWORD PTR [esi+0x20]
    1b42:	89 04 24             	mov    DWORD PTR [esp],eax
    1b45:	89 4c 24 04          	mov    DWORD PTR [esp+0x4],ecx
    1b49:	89 54 24 08          	mov    DWORD PTR [esp+0x8],edx
    1b4d:	89 74 24 0c          	mov    DWORD PTR [esp+0xc],esi
    1b51:	e8 fc ff ff ff       	call   1b52 <cipher_init_memory+0x152>
    1b56:	8b 45 f4             	mov    eax,DWORD PTR [ebp-0xc]
    1b59:	89 45 f8             	mov    DWORD PTR [ebp-0x8],eax
    1b5c:	8b 45 f8             	mov    eax,DWORD PTR [ebp-0x8]
    1b5f:	83 c4 24             	add    esp,0x24
    1b62:	5e                   	pop    esi
    1b63:	5d                   	pop    ebp
    1b64:	c3                   	ret    
    1b65:	90                   	nop
    1b66:	90                   	nop
    1b67:	90                   	nop
    1b68:	90                   	nop
    1b69:	90                   	nop
    1b6a:	90                   	nop
    1b6b:	90                   	nop
    1b6c:	90                   	nop
    1b6d:	90                   	nop
    1b6e:	90                   	nop
    1b6f:	90                   	nop

00001b70 <filecrypt>:
    1b70:	55                   	push   ebp
    1b71:	89 e5                	mov    ebp,esp
    1b73:	56                   	push   esi
    1b74:	81 ec a4 00 00 00    	sub    esp,0xa4
    1b7a:	8b 45 08             	mov    eax,DWORD PTR [ebp+0x8]
    1b7d:	c7 45 f4 00 00 00 00 	mov    DWORD PTR [ebp-0xc],0x0
    1b84:	c7 45 f0 00 00 00 00 	mov    DWORD PTR [ebp-0x10],0x0
    1b8b:	c7 45 d8 00 00 00 00 	mov    DWORD PTR [ebp-0x28],0x0
    1b92:	c7 45 d0 00 00 00 00 	mov    DWORD PTR [ebp-0x30],0x0
    1b99:	c7 45 c8 00 00 00 00 	mov    DWORD PTR [ebp-0x38],0x0
    1ba0:	c7 45 c0 00 00 00 00 	mov    DWORD PTR [ebp-0x40],0x0
    1ba7:	8b 4d 08             	mov    ecx,DWORD PTR [ebp+0x8]
    1baa:	8b 09                	mov    ecx,DWORD PTR [ecx]
    1bac:	8b 15 00 00 00 00    	mov    edx,DWORD PTR ds:0x0
    1bb2:	89 0c 24             	mov    DWORD PTR [esp],ecx
    1bb5:	89 54 24 04          	mov    DWORD PTR [esp+0x4],edx
    1bb9:	89 45 a4             	mov    DWORD PTR [ebp-0x5c],eax
    1bbc:	e8 fc ff ff ff       	call   1bbd <filecrypt+0x4d>
    1bc1:	89 45 f4             	mov    DWORD PTR [ebp-0xc],eax
    1bc4:	83 7d f4 00          	cmp    DWORD PTR [ebp-0xc],0x0
    1bc8:	0f 85 0c 00 00 00    	jne    1bda <filecrypt+0x6a>
    1bce:	c7 45 f8 01 00 00 00 	mov    DWORD PTR [ebp-0x8],0x1
    1bd5:	e9 40 08 00 00       	jmp    241a <filecrypt+0x8aa>
    1bda:	8b 45 f4             	mov    eax,DWORD PTR [ebp-0xc]
    1bdd:	89 04 24             	mov    DWORD PTR [esp],eax
    1be0:	e8 9b 08 00 00       	call   2480 <size_of_file>
    1be5:	89 45 c4             	mov    DWORD PTR [ebp-0x3c],eax
    1be8:	8b 45 08             	mov    eax,DWORD PTR [ebp+0x8]
    1beb:	8b 4d c4             	mov    ecx,DWORD PTR [ebp-0x3c]
    1bee:	89 04 24             	mov    DWORD PTR [esp],eax
    1bf1:	89 4c 24 04          	mov    DWORD PTR [esp+0x4],ecx
    1bf5:	e8 36 09 00 00       	call   2530 <size_correct>
    1bfa:	89 45 dc             	mov    DWORD PTR [ebp-0x24],eax
    1bfd:	83 7d dc 00          	cmp    DWORD PTR [ebp-0x24],0x0
    1c01:	0f 84 2b 00 00 00    	je     1c32 <filecrypt+0xc2>
    1c07:	8b 45 f4             	mov    eax,DWORD PTR [ebp-0xc]
    1c0a:	89 04 24             	mov    DWORD PTR [esp],eax
    1c0d:	e8 fc ff ff ff       	call   1c0e <filecrypt+0x9e>
    1c12:	83 f8 ff             	cmp    eax,0xffffffff
    1c15:	0f 85 0c 00 00 00    	jne    1c27 <filecrypt+0xb7>
    1c1b:	c7 45 f8 06 00 00 00 	mov    DWORD PTR [ebp-0x8],0x6
    1c22:	e9 f3 07 00 00       	jmp    241a <filecrypt+0x8aa>
    1c27:	8b 45 dc             	mov    eax,DWORD PTR [ebp-0x24]
    1c2a:	89 45 f8             	mov    DWORD PTR [ebp-0x8],eax
    1c2d:	e9 e8 07 00 00       	jmp    241a <filecrypt+0x8aa>
    1c32:	c7 45 dc 00 00 00 00 	mov    DWORD PTR [ebp-0x24],0x0
    1c39:	8b 45 08             	mov    eax,DWORD PTR [ebp+0x8]
    1c3c:	8b 40 04             	mov    eax,DWORD PTR [eax+0x4]
    1c3f:	8b 0d 00 00 00 00    	mov    ecx,DWORD PTR ds:0x0
    1c45:	89 04 24             	mov    DWORD PTR [esp],eax
    1c48:	89 4c 24 04          	mov    DWORD PTR [esp+0x4],ecx
    1c4c:	e8 fc ff ff ff       	call   1c4d <filecrypt+0xdd>
    1c51:	89 45 f0             	mov    DWORD PTR [ebp-0x10],eax
    1c54:	83 7d f0 00          	cmp    DWORD PTR [ebp-0x10],0x0
    1c58:	0f 85 2c 00 00 00    	jne    1c8a <filecrypt+0x11a>
    1c5e:	8b 45 f4             	mov    eax,DWORD PTR [ebp-0xc]
    1c61:	89 04 24             	mov    DWORD PTR [esp],eax
    1c64:	e8 fc ff ff ff       	call   1c65 <filecrypt+0xf5>
    1c69:	83 f8 ff             	cmp    eax,0xffffffff
    1c6c:	0f 85 0c 00 00 00    	jne    1c7e <filecrypt+0x10e>
    1c72:	c7 45 f8 06 00 00 00 	mov    DWORD PTR [ebp-0x8],0x6
    1c79:	e9 9c 07 00 00       	jmp    241a <filecrypt+0x8aa>
    1c7e:	c7 45 f8 02 00 00 00 	mov    DWORD PTR [ebp-0x8],0x2
    1c85:	e9 90 07 00 00       	jmp    241a <filecrypt+0x8aa>
    1c8a:	8b 45 c4             	mov    eax,DWORD PTR [ebp-0x3c]
    1c8d:	89 45 b8             	mov    DWORD PTR [ebp-0x48],eax
    1c90:	db 45 b8             	fild   DWORD PTR [ebp-0x48]
    1c93:	d9 05 00 00 00 00    	fld    DWORD PTR ds:0x0
    1c99:	de f9                	fdivp  st(1),st
    1c9b:	dd 5d e8             	fstp   QWORD PTR [ebp-0x18]
    1c9e:	8b 45 c4             	mov    eax,DWORD PTR [ebp-0x3c]
    1ca1:	89 e1                	mov    ecx,esp
    1ca3:	89 01                	mov    DWORD PTR [ecx],eax
    1ca5:	e8 16 09 00 00       	call   25c0 <size_check>
    1caa:	89 45 dc             	mov    DWORD PTR [ebp-0x24],eax
    1cad:	8b 45 dc             	mov    eax,DWORD PTR [ebp-0x24]
    1cb0:	8b 4d c4             	mov    ecx,DWORD PTR [ebp-0x3c]
    1cb3:	89 4d bc             	mov    DWORD PTR [ebp-0x44],ecx
    1cb6:	db 45 bc             	fild   DWORD PTR [ebp-0x44]
    1cb9:	89 e1                	mov    ecx,esp
    1cbb:	dd 59 04             	fstp   QWORD PTR [ecx+0x4]
    1cbe:	89 01                	mov    DWORD PTR [ecx],eax
    1cc0:	e8 8b 09 00 00       	call   2650 <sizetodoubleprint>
    1cc5:	dd 5d e0             	fstp   QWORD PTR [ebp-0x20]
    1cc8:	8b 45 08             	mov    eax,DWORD PTR [ebp+0x8]
    1ccb:	05 28 00 00 01       	add    eax,0x1000028
    1cd0:	89 04 24             	mov    DWORD PTR [esp],eax
    1cd3:	c7 44 24 04 2e 00 00 	mov    DWORD PTR [esp+0x4],0x2e
    1cda:	00 
    1cdb:	c7 44 24 08 19 00 00 	mov    DWORD PTR [esp+0x8],0x19
    1ce2:	00 
    1ce3:	e8 fc ff ff ff       	call   1ce4 <filecrypt+0x174>
    1ce8:	8b 45 08             	mov    eax,DWORD PTR [ebp+0x8]
    1ceb:	8b 40 10             	mov    eax,DWORD PTR [eax+0x10]
    1cee:	89 04 24             	mov    DWORD PTR [esp],eax
    1cf1:	e8 fc ff ff ff       	call   1cf2 <filecrypt+0x182>
    1cf6:	8b 45 c0             	mov    eax,DWORD PTR [ebp-0x40]
    1cf9:	3b 45 c4             	cmp    eax,DWORD PTR [ebp-0x3c]
    1cfc:	0f 8d eb 05 00 00    	jge    22ed <filecrypt+0x77d>
    1d02:	31 c0                	xor    eax,eax
    1d04:	3b 45 c0             	cmp    eax,DWORD PTR [ebp-0x40]
    1d07:	0f 85 2f 02 00 00    	jne    1f3c <filecrypt+0x3cc>
    1d0d:	31 c0                	xor    eax,eax
    1d0f:	8b 4d 08             	mov    ecx,DWORD PTR [ebp+0x8]
    1d12:	3b 81 44 00 00 01    	cmp    eax,DWORD PTR [ecx+0x1000044]
    1d18:	0f 85 9f 01 00 00    	jne    1ebd <filecrypt+0x34d>
    1d1e:	8b 45 08             	mov    eax,DWORD PTR [ebp+0x8]
    1d21:	8b 80 48 00 00 01    	mov    eax,DWORD PTR [eax+0x1000048]
    1d27:	89 c1                	mov    ecx,eax
    1d29:	83 e9 04             	sub    ecx,0x4
    1d2c:	89 45 a0             	mov    DWORD PTR [ebp-0x60],eax
    1d2f:	0f 87 fe 00 00 00    	ja     1e33 <filecrypt+0x2c3>
    1d35:	8b 45 a0             	mov    eax,DWORD PTR [ebp-0x60]
    1d38:	8b 0c 85 4c 00 00 00 	mov    ecx,DWORD PTR [eax*4+0x4c]
    1d3f:	ff e1                	jmp    ecx
    1d41:	a1 00 00 00 00       	mov    eax,ds:0x0
    1d46:	8b 4d 08             	mov    ecx,DWORD PTR [ebp+0x8]
    1d49:	8b 49 18             	mov    ecx,DWORD PTR [ecx+0x18]
    1d4c:	8b 55 08             	mov    edx,DWORD PTR [ebp+0x8]
    1d4f:	81 c2 28 00 80 00    	add    edx,0x800028
    1d55:	89 04 24             	mov    DWORD PTR [esp],eax
    1d58:	89 4c 24 04          	mov    DWORD PTR [esp+0x4],ecx
    1d5c:	89 54 24 08          	mov    DWORD PTR [esp+0x8],edx
    1d60:	e8 fc ff ff ff       	call   1d61 <filecrypt+0x1f1>
    1d65:	e9 c9 00 00 00       	jmp    1e33 <filecrypt+0x2c3>
    1d6a:	a1 08 00 00 00       	mov    eax,ds:0x8
    1d6f:	8b 4d 08             	mov    ecx,DWORD PTR [ebp+0x8]
    1d72:	8b 49 18             	mov    ecx,DWORD PTR [ecx+0x18]
    1d75:	8b 55 08             	mov    edx,DWORD PTR [ebp+0x8]
    1d78:	81 c2 28 00 80 00    	add    edx,0x800028
    1d7e:	89 04 24             	mov    DWORD PTR [esp],eax
    1d81:	89 4c 24 04          	mov    DWORD PTR [esp+0x4],ecx
    1d85:	89 54 24 08          	mov    DWORD PTR [esp+0x8],edx
    1d89:	e8 fc ff ff ff       	call   1d8a <filecrypt+0x21a>
    1d8e:	e9 a0 00 00 00       	jmp    1e33 <filecrypt+0x2c3>
    1d93:	a1 04 00 00 00       	mov    eax,ds:0x4
    1d98:	8b 4d 08             	mov    ecx,DWORD PTR [ebp+0x8]
    1d9b:	8b 49 18             	mov    ecx,DWORD PTR [ecx+0x18]
    1d9e:	8b 55 08             	mov    edx,DWORD PTR [ebp+0x8]
    1da1:	81 c2 28 00 80 00    	add    edx,0x800028
    1da7:	89 04 24             	mov    DWORD PTR [esp],eax
    1daa:	89 4c 24 04          	mov    DWORD PTR [esp+0x4],ecx
    1dae:	89 54 24 08          	mov    DWORD PTR [esp+0x8],edx
    1db2:	e8 fc ff ff ff       	call   1db3 <filecrypt+0x243>
    1db7:	e9 77 00 00 00       	jmp    1e33 <filecrypt+0x2c3>
    1dbc:	8b 45 08             	mov    eax,DWORD PTR [ebp+0x8]
    1dbf:	05 28 00 80 00       	add    eax,0x800028
    1dc4:	8b 4d 08             	mov    ecx,DWORD PTR [ebp+0x8]
    1dc7:	8b 49 18             	mov    ecx,DWORD PTR [ecx+0x18]
    1dca:	8b 55 08             	mov    edx,DWORD PTR [ebp+0x8]
    1dcd:	8b 52 1c             	mov    edx,DWORD PTR [edx+0x1c]
    1dd0:	89 04 24             	mov    DWORD PTR [esp],eax
    1dd3:	89 4c 24 04          	mov    DWORD PTR [esp+0x4],ecx
    1dd7:	89 54 24 08          	mov    DWORD PTR [esp+0x8],edx
    1ddb:	e8 fc ff ff ff       	call   1ddc <filecrypt+0x26c>
    1de0:	a1 0c 00 00 00       	mov    eax,ds:0xc
    1de5:	8b 4d 08             	mov    ecx,DWORD PTR [ebp+0x8]
    1de8:	81 c1 28 00 80 00    	add    ecx,0x800028
    1dee:	8b 55 08             	mov    edx,DWORD PTR [ebp+0x8]
    1df1:	81 c2 28 00 80 00    	add    edx,0x800028
    1df7:	83 c2 04             	add    edx,0x4
    1dfa:	89 04 24             	mov    DWORD PTR [esp],eax
    1dfd:	89 4c 24 04          	mov    DWORD PTR [esp+0x4],ecx
    1e01:	89 54 24 08          	mov    DWORD PTR [esp+0x8],edx
    1e05:	e8 fc ff ff ff       	call   1e06 <filecrypt+0x296>
    1e0a:	e9 24 00 00 00       	jmp    1e33 <filecrypt+0x2c3>
    1e0f:	a1 10 00 00 00       	mov    eax,ds:0x10
    1e14:	8b 4d 08             	mov    ecx,DWORD PTR [ebp+0x8]
    1e17:	8b 49 18             	mov    ecx,DWORD PTR [ecx+0x18]
    1e1a:	8b 55 08             	mov    edx,DWORD PTR [ebp+0x8]
    1e1d:	81 c2 28 00 80 00    	add    edx,0x800028
    1e23:	89 04 24             	mov    DWORD PTR [esp],eax
    1e26:	89 4c 24 04          	mov    DWORD PTR [esp+0x4],ecx
    1e2a:	89 54 24 08          	mov    DWORD PTR [esp+0x8],edx
    1e2e:	e8 fc ff ff ff       	call   1e2f <filecrypt+0x2bf>
    1e33:	8b 45 08             	mov    eax,DWORD PTR [ebp+0x8]
    1e36:	8b 40 18             	mov    eax,DWORD PTR [eax+0x18]
    1e39:	8b 4d 08             	mov    ecx,DWORD PTR [ebp+0x8]
    1e3c:	81 c1 28 00 80 00    	add    ecx,0x800028
    1e42:	8b 55 08             	mov    edx,DWORD PTR [ebp+0x8]
    1e45:	8b 52 1c             	mov    edx,DWORD PTR [edx+0x1c]
    1e48:	89 04 24             	mov    DWORD PTR [esp],eax
    1e4b:	89 4c 24 04          	mov    DWORD PTR [esp+0x4],ecx
    1e4f:	89 54 24 08          	mov    DWORD PTR [esp+0x8],edx
    1e53:	e8 fc ff ff ff       	call   1e54 <filecrypt+0x2e4>
    1e58:	8b 45 08             	mov    eax,DWORD PTR [ebp+0x8]
    1e5b:	8b 40 18             	mov    eax,DWORD PTR [eax+0x18]
    1e5e:	8b 4d 08             	mov    ecx,DWORD PTR [ebp+0x8]
    1e61:	8b 49 1c             	mov    ecx,DWORD PTR [ecx+0x1c]
    1e64:	8b 55 f0             	mov    edx,DWORD PTR [ebp-0x10]
    1e67:	89 04 24             	mov    DWORD PTR [esp],eax
    1e6a:	c7 44 24 04 01 00 00 	mov    DWORD PTR [esp+0x4],0x1
    1e71:	00 
    1e72:	89 4c 24 08          	mov    DWORD PTR [esp+0x8],ecx
    1e76:	89 54 24 0c          	mov    DWORD PTR [esp+0xc],edx
    1e7a:	e8 fc ff ff ff       	call   1e7b <filecrypt+0x30b>
    1e7f:	8b 4d 08             	mov    ecx,DWORD PTR [ebp+0x8]
    1e82:	3b 41 1c             	cmp    eax,DWORD PTR [ecx+0x1c]
    1e85:	0f 84 22 00 00 00    	je     1ead <filecrypt+0x33d>
    1e8b:	8b 45 f4             	mov    eax,DWORD PTR [ebp-0xc]
    1e8e:	8b 4d f0             	mov    ecx,DWORD PTR [ebp-0x10]
    1e91:	89 04 24             	mov    DWORD PTR [esp],eax
    1e94:	89 4c 24 04          	mov    DWORD PTR [esp+0x4],ecx
    1e98:	c7 44 24 08 04 00 00 	mov    DWORD PTR [esp+0x8],0x4
    1e9f:	00 
    1ea0:	e8 fb 07 00 00       	call   26a0 <close_in_out_files>
    1ea5:	89 45 f8             	mov    DWORD PTR [ebp-0x8],eax
    1ea8:	e9 6d 05 00 00       	jmp    241a <filecrypt+0x8aa>
    1ead:	8b 45 f0             	mov    eax,DWORD PTR [ebp-0x10]
    1eb0:	89 04 24             	mov    DWORD PTR [esp],eax
    1eb3:	e8 fc ff ff ff       	call   1eb4 <filecrypt+0x344>
    1eb8:	e9 7a 00 00 00       	jmp    1f37 <filecrypt+0x3c7>
    1ebd:	8b 45 08             	mov    eax,DWORD PTR [ebp+0x8]
    1ec0:	b9 de 00 00 00       	mov    ecx,0xde
    1ec5:	3b 88 44 00 00 01    	cmp    ecx,DWORD PTR [eax+0x1000044]
    1ecb:	0f 85 61 00 00 00    	jne    1f32 <filecrypt+0x3c2>
    1ed1:	8b 45 08             	mov    eax,DWORD PTR [ebp+0x8]
    1ed4:	8b 40 18             	mov    eax,DWORD PTR [eax+0x18]
    1ed7:	8b 4d 08             	mov    ecx,DWORD PTR [ebp+0x8]
    1eda:	8b 49 1c             	mov    ecx,DWORD PTR [ecx+0x1c]
    1edd:	8b 55 f4             	mov    edx,DWORD PTR [ebp-0xc]
    1ee0:	89 04 24             	mov    DWORD PTR [esp],eax
    1ee3:	c7 44 24 04 01 00 00 	mov    DWORD PTR [esp+0x4],0x1
    1eea:	00 
    1eeb:	89 4c 24 08          	mov    DWORD PTR [esp+0x8],ecx
    1eef:	89 54 24 0c          	mov    DWORD PTR [esp+0xc],edx
    1ef3:	e8 fc ff ff ff       	call   1ef4 <filecrypt+0x384>
    1ef8:	8b 4d 08             	mov    ecx,DWORD PTR [ebp+0x8]
    1efb:	3b 41 1c             	cmp    eax,DWORD PTR [ecx+0x1c]
    1efe:	0f 84 22 00 00 00    	je     1f26 <filecrypt+0x3b6>
    1f04:	8b 45 f4             	mov    eax,DWORD PTR [ebp-0xc]
    1f07:	8b 4d f0             	mov    ecx,DWORD PTR [ebp-0x10]
    1f0a:	89 04 24             	mov    DWORD PTR [esp],eax
    1f0d:	89 4c 24 04          	mov    DWORD PTR [esp+0x4],ecx
    1f11:	c7 44 24 08 05 00 00 	mov    DWORD PTR [esp+0x8],0x5
    1f18:	00 
    1f19:	e8 82 07 00 00       	call   26a0 <close_in_out_files>
    1f1e:	89 45 f8             	mov    DWORD PTR [ebp-0x8],eax
    1f21:	e9 f4 04 00 00       	jmp    241a <filecrypt+0x8aa>
    1f26:	8b 45 08             	mov    eax,DWORD PTR [ebp+0x8]
    1f29:	8b 40 1c             	mov    eax,DWORD PTR [eax+0x1c]
    1f2c:	03 45 c0             	add    eax,DWORD PTR [ebp-0x40]
    1f2f:	89 45 c0             	mov    DWORD PTR [ebp-0x40],eax
    1f32:	e9 00 00 00 00       	jmp    1f37 <filecrypt+0x3c7>
    1f37:	e9 00 00 00 00       	jmp    1f3c <filecrypt+0x3cc>
    1f3c:	8b 45 08             	mov    eax,DWORD PTR [ebp+0x8]
    1f3f:	83 c0 28             	add    eax,0x28
    1f42:	8b 4d f4             	mov    ecx,DWORD PTR [ebp-0xc]
    1f45:	89 04 24             	mov    DWORD PTR [esp],eax
    1f48:	c7 44 24 04 01 00 00 	mov    DWORD PTR [esp+0x4],0x1
    1f4f:	00 
    1f50:	c7 44 24 08 00 00 80 	mov    DWORD PTR [esp+0x8],0x800000
    1f57:	00 
    1f58:	89 4c 24 0c          	mov    DWORD PTR [esp+0xc],ecx
    1f5c:	e8 fc ff ff ff       	call   1f5d <filecrypt+0x3ed>
    1f61:	89 45 c8             	mov    DWORD PTR [ebp-0x38],eax
    1f64:	c7 45 cc 00 00 00 00 	mov    DWORD PTR [ebp-0x34],0x0
    1f6b:	8b 45 cc             	mov    eax,DWORD PTR [ebp-0x34]
    1f6e:	3b 45 c8             	cmp    eax,DWORD PTR [ebp-0x38]
    1f71:	0f 83 aa 01 00 00    	jae    2121 <filecrypt+0x5b1>
    1f77:	8b 45 08             	mov    eax,DWORD PTR [ebp+0x8]
    1f7a:	8b 80 48 00 00 01    	mov    eax,DWORD PTR [eax+0x1000048]
    1f80:	89 c1                	mov    ecx,eax
    1f82:	83 e9 04             	sub    ecx,0x4
    1f85:	89 45 9c             	mov    DWORD PTR [ebp-0x64],eax
    1f88:	0f 87 07 01 00 00    	ja     2095 <filecrypt+0x525>
    1f8e:	8b 45 9c             	mov    eax,DWORD PTR [ebp-0x64]
    1f91:	8b 0c 85 60 00 00 00 	mov    ecx,DWORD PTR [eax*4+0x60]
    1f98:	ff e1                	jmp    ecx
    1f9a:	a1 00 00 00 00       	mov    eax,ds:0x0
    1f9f:	8b 4d 08             	mov    ecx,DWORD PTR [ebp+0x8]
    1fa2:	8b 49 18             	mov    ecx,DWORD PTR [ecx+0x18]
    1fa5:	8b 55 08             	mov    edx,DWORD PTR [ebp+0x8]
    1fa8:	81 c2 28 00 80 00    	add    edx,0x800028
    1fae:	03 55 cc             	add    edx,DWORD PTR [ebp-0x34]
    1fb1:	89 04 24             	mov    DWORD PTR [esp],eax
    1fb4:	89 4c 24 04          	mov    DWORD PTR [esp+0x4],ecx
    1fb8:	89 54 24 08          	mov    DWORD PTR [esp+0x8],edx
    1fbc:	e8 fc ff ff ff       	call   1fbd <filecrypt+0x44d>
    1fc1:	e9 cf 00 00 00       	jmp    2095 <filecrypt+0x525>
    1fc6:	a1 08 00 00 00       	mov    eax,ds:0x8
    1fcb:	8b 4d 08             	mov    ecx,DWORD PTR [ebp+0x8]
    1fce:	8b 49 18             	mov    ecx,DWORD PTR [ecx+0x18]
    1fd1:	8b 55 08             	mov    edx,DWORD PTR [ebp+0x8]
    1fd4:	81 c2 28 00 80 00    	add    edx,0x800028
    1fda:	03 55 cc             	add    edx,DWORD PTR [ebp-0x34]
    1fdd:	89 04 24             	mov    DWORD PTR [esp],eax
    1fe0:	89 4c 24 04          	mov    DWORD PTR [esp+0x4],ecx
    1fe4:	89 54 24 08          	mov    DWORD PTR [esp+0x8],edx
    1fe8:	e8 fc ff ff ff       	call   1fe9 <filecrypt+0x479>
    1fed:	e9 a3 00 00 00       	jmp    2095 <filecrypt+0x525>
    1ff2:	a1 04 00 00 00       	mov    eax,ds:0x4
    1ff7:	8b 4d 08             	mov    ecx,DWORD PTR [ebp+0x8]
    1ffa:	8b 49 18             	mov    ecx,DWORD PTR [ecx+0x18]
    1ffd:	8b 55 08             	mov    edx,DWORD PTR [ebp+0x8]
    2000:	81 c2 28 00 80 00    	add    edx,0x800028
    2006:	03 55 cc             	add    edx,DWORD PTR [ebp-0x34]
    2009:	89 04 24             	mov    DWORD PTR [esp],eax
    200c:	89 4c 24 04          	mov    DWORD PTR [esp+0x4],ecx
    2010:	89 54 24 08          	mov    DWORD PTR [esp+0x8],edx
    2014:	e8 fc ff ff ff       	call   2015 <filecrypt+0x4a5>
    2019:	e9 77 00 00 00       	jmp    2095 <filecrypt+0x525>
    201e:	a1 0c 00 00 00       	mov    eax,ds:0xc
    2023:	8b 4d 08             	mov    ecx,DWORD PTR [ebp+0x8]
    2026:	8b 49 18             	mov    ecx,DWORD PTR [ecx+0x18]
    2029:	8b 55 08             	mov    edx,DWORD PTR [ebp+0x8]
    202c:	8b 52 18             	mov    edx,DWORD PTR [edx+0x18]
    202f:	83 c2 04             	add    edx,0x4
    2032:	89 04 24             	mov    DWORD PTR [esp],eax
    2035:	89 4c 24 04          	mov    DWORD PTR [esp+0x4],ecx
    2039:	89 54 24 08          	mov    DWORD PTR [esp+0x8],edx
    203d:	e8 fc ff ff ff       	call   203e <filecrypt+0x4ce>
    2042:	8b 45 08             	mov    eax,DWORD PTR [ebp+0x8]
    2045:	05 28 00 80 00       	add    eax,0x800028
    204a:	03 45 cc             	add    eax,DWORD PTR [ebp-0x34]
    204d:	8b 4d 08             	mov    ecx,DWORD PTR [ebp+0x8]
    2050:	8b 49 18             	mov    ecx,DWORD PTR [ecx+0x18]
    2053:	8b 55 08             	mov    edx,DWORD PTR [ebp+0x8]
    2056:	8b 52 1c             	mov    edx,DWORD PTR [edx+0x1c]
    2059:	89 04 24             	mov    DWORD PTR [esp],eax
    205c:	89 4c 24 04          	mov    DWORD PTR [esp+0x4],ecx
    2060:	89 54 24 08          	mov    DWORD PTR [esp+0x8],edx
    2064:	e8 fc ff ff ff       	call   2065 <filecrypt+0x4f5>
    2069:	e9 27 00 00 00       	jmp    2095 <filecrypt+0x525>
    206e:	a1 10 00 00 00       	mov    eax,ds:0x10
    2073:	8b 4d 08             	mov    ecx,DWORD PTR [ebp+0x8]
    2076:	8b 49 18             	mov    ecx,DWORD PTR [ecx+0x18]
    2079:	8b 55 08             	mov    edx,DWORD PTR [ebp+0x8]
    207c:	81 c2 28 00 80 00    	add    edx,0x800028
    2082:	03 55 cc             	add    edx,DWORD PTR [ebp-0x34]
    2085:	89 04 24             	mov    DWORD PTR [esp],eax
    2088:	89 4c 24 04          	mov    DWORD PTR [esp+0x4],ecx
    208c:	89 54 24 08          	mov    DWORD PTR [esp+0x8],edx
    2090:	e8 fc ff ff ff       	call   2091 <filecrypt+0x521>
    2095:	8b 45 08             	mov    eax,DWORD PTR [ebp+0x8]
    2098:	05 28 00 80 00       	add    eax,0x800028
    209d:	03 45 cc             	add    eax,DWORD PTR [ebp-0x34]
    20a0:	8b 4d 08             	mov    ecx,DWORD PTR [ebp+0x8]
    20a3:	83 c1 28             	add    ecx,0x28
    20a6:	03 4d cc             	add    ecx,DWORD PTR [ebp-0x34]
    20a9:	8b 55 08             	mov    edx,DWORD PTR [ebp+0x8]
    20ac:	8b 52 1c             	mov    edx,DWORD PTR [edx+0x1c]
    20af:	89 04 24             	mov    DWORD PTR [esp],eax
    20b2:	89 4c 24 04          	mov    DWORD PTR [esp+0x4],ecx
    20b6:	89 54 24 08          	mov    DWORD PTR [esp+0x8],edx
    20ba:	e8 fc ff ff ff       	call   20bb <filecrypt+0x54b>
    20bf:	8b 45 08             	mov    eax,DWORD PTR [ebp+0x8]
    20c2:	8b 40 18             	mov    eax,DWORD PTR [eax+0x18]
    20c5:	8b 4d 08             	mov    ecx,DWORD PTR [ebp+0x8]
    20c8:	83 b9 44 00 00 01 00 	cmp    DWORD PTR [ecx+0x1000044],0x0
    20cf:	89 45 98             	mov    DWORD PTR [ebp-0x68],eax
    20d2:	0f 84 0e 00 00 00    	je     20e6 <filecrypt+0x576>
    20d8:	8b 45 08             	mov    eax,DWORD PTR [ebp+0x8]
    20db:	83 c0 28             	add    eax,0x28
    20de:	89 45 94             	mov    DWORD PTR [ebp-0x6c],eax
    20e1:	e9 0b 00 00 00       	jmp    20f1 <filecrypt+0x581>
    20e6:	8b 45 08             	mov    eax,DWORD PTR [ebp+0x8]
    20e9:	05 28 00 80 00       	add    eax,0x800028
    20ee:	89 45 94             	mov    DWORD PTR [ebp-0x6c],eax
    20f1:	8b 45 94             	mov    eax,DWORD PTR [ebp-0x6c]
    20f4:	03 45 cc             	add    eax,DWORD PTR [ebp-0x34]
    20f7:	8b 4d 08             	mov    ecx,DWORD PTR [ebp+0x8]
    20fa:	8b 49 1c             	mov    ecx,DWORD PTR [ecx+0x1c]
    20fd:	8b 55 98             	mov    edx,DWORD PTR [ebp-0x68]
    2100:	89 14 24             	mov    DWORD PTR [esp],edx
    2103:	89 44 24 04          	mov    DWORD PTR [esp+0x4],eax
    2107:	89 4c 24 08          	mov    DWORD PTR [esp+0x8],ecx
    210b:	e8 fc ff ff ff       	call   210c <filecrypt+0x59c>
    2110:	8b 45 08             	mov    eax,DWORD PTR [ebp+0x8]
    2113:	8b 40 1c             	mov    eax,DWORD PTR [eax+0x1c]
    2116:	03 45 cc             	add    eax,DWORD PTR [ebp-0x34]
    2119:	89 45 cc             	mov    DWORD PTR [ebp-0x34],eax
    211c:	e9 4a fe ff ff       	jmp    1f6b <filecrypt+0x3fb>
    2121:	8b 45 c8             	mov    eax,DWORD PTR [ebp-0x38]
    2124:	8b 4d c0             	mov    ecx,DWORD PTR [ebp-0x40]
    2127:	01 c1                	add    ecx,eax
    2129:	89 4d c0             	mov    DWORD PTR [ebp-0x40],ecx
    212c:	8b 45 c0             	mov    eax,DWORD PTR [ebp-0x40]
    212f:	89 45 b0             	mov    DWORD PTR [ebp-0x50],eax
    2132:	db 45 b0             	fild   DWORD PTR [ebp-0x50]
    2135:	dd 45 e8             	fld    QWORD PTR [ebp-0x18]
    2138:	de f9                	fdivp  st(1),st
    213a:	dd 05 00 00 00 00    	fld    QWORD PTR ds:0x0
    2140:	de c1                	faddp  st(1),st
    2142:	d9 7d aa             	fnstcw WORD PTR [ebp-0x56]
    2145:	0f b7 45 aa          	movzx  eax,WORD PTR [ebp-0x56]
    2149:	0d 00 0c 00 00       	or     eax,0xc00
    214e:	66 89 45 a8          	mov    WORD PTR [ebp-0x58],ax
    2152:	d9 6d a8             	fldcw  WORD PTR [ebp-0x58]
    2155:	db 5d b4             	fistp  DWORD PTR [ebp-0x4c]
    2158:	d9 6d aa             	fldcw  WORD PTR [ebp-0x56]
    215b:	8b 4d b4             	mov    ecx,DWORD PTR [ebp-0x4c]
    215e:	89 4d d4             	mov    DWORD PTR [ebp-0x2c],ecx
    2161:	83 7d d4 64          	cmp    DWORD PTR [ebp-0x2c],0x64
    2165:	0f 8e 07 00 00 00    	jle    2172 <filecrypt+0x602>
    216b:	c7 45 d4 64 00 00 00 	mov    DWORD PTR [ebp-0x2c],0x64
    2172:	8b 45 c0             	mov    eax,DWORD PTR [ebp-0x40]
    2175:	3b 45 c4             	cmp    eax,DWORD PTR [ebp-0x3c]
    2178:	0f 85 1d 00 00 00    	jne    219b <filecrypt+0x62b>
    217e:	8b 45 08             	mov    eax,DWORD PTR [ebp+0x8]
    2181:	b9 de 00 00 00       	mov    ecx,0xde
    2186:	3b 88 44 00 00 01    	cmp    ecx,DWORD PTR [eax+0x1000044]
    218c:	0f 85 09 00 00 00    	jne    219b <filecrypt+0x62b>
    2192:	8b 45 c8             	mov    eax,DWORD PTR [ebp-0x38]
    2195:	83 e8 20             	sub    eax,0x20
    2198:	89 45 c8             	mov    DWORD PTR [ebp-0x38],eax
    219b:	8b 45 08             	mov    eax,DWORD PTR [ebp+0x8]
    219e:	8b 4d c8             	mov    ecx,DWORD PTR [ebp-0x38]
    21a1:	89 04 24             	mov    DWORD PTR [esp],eax
    21a4:	89 4c 24 04          	mov    DWORD PTR [esp+0x4],ecx
    21a8:	e8 73 05 00 00       	call   2720 <control_sum_buffer>
    21ad:	8b 45 08             	mov    eax,DWORD PTR [ebp+0x8]
    21b0:	05 28 00 80 00       	add    eax,0x800028
    21b5:	8b 4d c8             	mov    ecx,DWORD PTR [ebp-0x38]
    21b8:	8b 55 f0             	mov    edx,DWORD PTR [ebp-0x10]
    21bb:	89 04 24             	mov    DWORD PTR [esp],eax
    21be:	c7 44 24 04 01 00 00 	mov    DWORD PTR [esp+0x4],0x1
    21c5:	00 
    21c6:	89 4c 24 08          	mov    DWORD PTR [esp+0x8],ecx
    21ca:	89 54 24 0c          	mov    DWORD PTR [esp+0xc],edx
    21ce:	e8 fc ff ff ff       	call   21cf <filecrypt+0x65f>
    21d3:	3b 45 c8             	cmp    eax,DWORD PTR [ebp-0x38]
    21d6:	0f 84 22 00 00 00    	je     21fe <filecrypt+0x68e>
    21dc:	8b 45 f4             	mov    eax,DWORD PTR [ebp-0xc]
    21df:	8b 4d f0             	mov    ecx,DWORD PTR [ebp-0x10]
    21e2:	89 04 24             	mov    DWORD PTR [esp],eax
    21e5:	89 4c 24 04          	mov    DWORD PTR [esp+0x4],ecx
    21e9:	c7 44 24 08 04 00 00 	mov    DWORD PTR [esp+0x8],0x4
    21f0:	00 
    21f1:	e8 aa 04 00 00       	call   26a0 <close_in_out_files>
    21f6:	89 45 f8             	mov    DWORD PTR [ebp-0x8],eax
    21f9:	e9 1c 02 00 00       	jmp    241a <filecrypt+0x8aa>
    21fe:	8b 45 f0             	mov    eax,DWORD PTR [ebp-0x10]
    2201:	89 04 24             	mov    DWORD PTR [esp],eax
    2204:	e8 fc ff ff ff       	call   2205 <filecrypt+0x695>
    2209:	8b 4d d4             	mov    ecx,DWORD PTR [ebp-0x2c]
    220c:	3b 4d d0             	cmp    ecx,DWORD PTR [ebp-0x30]
    220f:	0f 8e d3 00 00 00    	jle    22e8 <filecrypt+0x778>
    2215:	8b 45 08             	mov    eax,DWORD PTR [ebp+0x8]
    2218:	05 28 00 00 01       	add    eax,0x1000028
    221d:	8b 4d d4             	mov    ecx,DWORD PTR [ebp-0x2c]
    2220:	89 ca                	mov    edx,ecx
    2222:	83 c2 03             	add    edx,0x3
    2225:	85 c9                	test   ecx,ecx
    2227:	0f 48 ca             	cmovs  ecx,edx
    222a:	c1 f9 02             	sar    ecx,0x2
    222d:	89 e2                	mov    edx,esp
    222f:	89 02                	mov    DWORD PTR [edx],eax
    2231:	89 4a 08             	mov    DWORD PTR [edx+0x8],ecx
    2234:	c7 42 04 23 00 00 00 	mov    DWORD PTR [edx+0x4],0x23
    223b:	e8 fc ff ff ff       	call   223c <filecrypt+0x6cc>
    2240:	8b 45 c0             	mov    eax,DWORD PTR [ebp-0x40]
    2243:	89 e1                	mov    ecx,esp
    2245:	89 01                	mov    DWORD PTR [ecx],eax
    2247:	e8 74 03 00 00       	call   25c0 <size_check>
    224c:	89 45 d8             	mov    DWORD PTR [ebp-0x28],eax
    224f:	8b 45 08             	mov    eax,DWORD PTR [ebp+0x8]
    2252:	8b 80 44 00 00 01    	mov    eax,DWORD PTR [eax+0x1000044]
    2258:	89 e1                	mov    ecx,esp
    225a:	89 01                	mov    DWORD PTR [ecx],eax
    225c:	e8 df e1 ff ff       	call   440 <operation_variant>
    2261:	8b 04 85 0c 00 00 00 	mov    eax,DWORD PTR [eax*4+0xc]
    2268:	8b 4d 08             	mov    ecx,DWORD PTR [ebp+0x8]
    226b:	81 c1 28 00 00 01    	add    ecx,0x1000028
    2271:	8b 55 d8             	mov    edx,DWORD PTR [ebp-0x28]
    2274:	8b 75 c0             	mov    esi,DWORD PTR [ebp-0x40]
    2277:	89 75 ac             	mov    DWORD PTR [ebp-0x54],esi
    227a:	db 45 ac             	fild   DWORD PTR [ebp-0x54]
    227d:	89 e6                	mov    esi,esp
    227f:	dd 5e 04             	fstp   QWORD PTR [esi+0x4]
    2282:	89 16                	mov    DWORD PTR [esi],edx
    2284:	89 45 90             	mov    DWORD PTR [ebp-0x70],eax
    2287:	89 4d 8c             	mov    DWORD PTR [ebp-0x74],ecx
    228a:	e8 c1 03 00 00       	call   2650 <sizetodoubleprint>
    228f:	8b 45 d8             	mov    eax,DWORD PTR [ebp-0x28]
    2292:	8b 04 85 28 00 00 00 	mov    eax,DWORD PTR [eax*4+0x28]
    2299:	dd 45 e0             	fld    QWORD PTR [ebp-0x20]
    229c:	8b 4d dc             	mov    ecx,DWORD PTR [ebp-0x24]
    229f:	8b 0c 8d 28 00 00 00 	mov    ecx,DWORD PTR [ecx*4+0x28]
    22a6:	8b 55 d4             	mov    edx,DWORD PTR [ebp-0x2c]
    22a9:	89 e6                	mov    esi,esp
    22ab:	89 56 24             	mov    DWORD PTR [esi+0x24],edx
    22ae:	89 4e 20             	mov    DWORD PTR [esi+0x20],ecx
    22b1:	dd 5e 18             	fstp   QWORD PTR [esi+0x18]
    22b4:	89 46 14             	mov    DWORD PTR [esi+0x14],eax
    22b7:	dd 5e 0c             	fstp   QWORD PTR [esi+0xc]
    22ba:	8b 45 8c             	mov    eax,DWORD PTR [ebp-0x74]
    22bd:	89 46 08             	mov    DWORD PTR [esi+0x8],eax
    22c0:	8b 4d 90             	mov    ecx,DWORD PTR [ebp-0x70]
    22c3:	89 4e 04             	mov    DWORD PTR [esi+0x4],ecx
    22c6:	c7 06 00 00 00 00    	mov    DWORD PTR [esi],0x0
    22cc:	e8 fc ff ff ff       	call   22cd <filecrypt+0x75d>
    22d1:	8b 0d 00 00 00 00    	mov    ecx,DWORD PTR ds:0x0
    22d7:	89 0c 24             	mov    DWORD PTR [esp],ecx
    22da:	89 45 88             	mov    DWORD PTR [ebp-0x78],eax
    22dd:	e8 fc ff ff ff       	call   22de <filecrypt+0x76e>
    22e2:	8b 4d d4             	mov    ecx,DWORD PTR [ebp-0x2c]
    22e5:	89 4d d0             	mov    DWORD PTR [ebp-0x30],ecx
    22e8:	e9 09 fa ff ff       	jmp    1cf6 <filecrypt+0x186>
    22ed:	a1 00 00 00 00       	mov    eax,ds:0x0
    22f2:	c7 04 24 0a 00 00 00 	mov    DWORD PTR [esp],0xa
    22f9:	89 44 24 04          	mov    DWORD PTR [esp+0x4],eax
    22fd:	e8 fc ff ff ff       	call   22fe <filecrypt+0x78e>
    2302:	8b 4d 08             	mov    ecx,DWORD PTR [ebp+0x8]
    2305:	8b 49 10             	mov    ecx,DWORD PTR [ecx+0x10]
    2308:	89 0c 24             	mov    DWORD PTR [esp],ecx
    230b:	89 45 84             	mov    DWORD PTR [ebp-0x7c],eax
    230e:	e8 fc ff ff ff       	call   230f <filecrypt+0x79f>
    2313:	8b 45 08             	mov    eax,DWORD PTR [ebp+0x8]
    2316:	89 04 24             	mov    DWORD PTR [esp],eax
    2319:	e8 02 05 00 00       	call   2820 <hmac_sha256_uf>
    231e:	31 c0                	xor    eax,eax
    2320:	8b 4d 08             	mov    ecx,DWORD PTR [ebp+0x8]
    2323:	3b 81 44 00 00 01    	cmp    eax,DWORD PTR [ecx+0x1000044]
    2329:	0f 85 63 00 00 00    	jne    2392 <filecrypt+0x822>
    232f:	8b 45 08             	mov    eax,DWORD PTR [ebp+0x8]
    2332:	8b 40 10             	mov    eax,DWORD PTR [eax+0x10]
    2335:	83 c0 6c             	add    eax,0x6c
    2338:	8b 4d f0             	mov    ecx,DWORD PTR [ebp-0x10]
    233b:	89 04 24             	mov    DWORD PTR [esp],eax
    233e:	c7 44 24 04 01 00 00 	mov    DWORD PTR [esp+0x4],0x1
    2345:	00 
    2346:	c7 44 24 08 20 00 00 	mov    DWORD PTR [esp+0x8],0x20
    234d:	00 
    234e:	89 4c 24 0c          	mov    DWORD PTR [esp+0xc],ecx
    2352:	e8 fc ff ff ff       	call   2353 <filecrypt+0x7e3>
    2357:	83 f8 20             	cmp    eax,0x20
    235a:	0f 84 22 00 00 00    	je     2382 <filecrypt+0x812>
    2360:	8b 45 f4             	mov    eax,DWORD PTR [ebp-0xc]
    2363:	8b 4d f0             	mov    ecx,DWORD PTR [ebp-0x10]
    2366:	89 04 24             	mov    DWORD PTR [esp],eax
    2369:	89 4c 24 04          	mov    DWORD PTR [esp+0x4],ecx
    236d:	c7 44 24 08 04 00 00 	mov    DWORD PTR [esp+0x8],0x4
    2374:	00 
    2375:	e8 26 03 00 00       	call   26a0 <close_in_out_files>
    237a:	89 45 f8             	mov    DWORD PTR [ebp-0x8],eax
    237d:	e9 98 00 00 00       	jmp    241a <filecrypt+0x8aa>
    2382:	8b 45 f0             	mov    eax,DWORD PTR [ebp-0x10]
    2385:	89 04 24             	mov    DWORD PTR [esp],eax
    2388:	e8 fc ff ff ff       	call   2389 <filecrypt+0x819>
    238d:	e9 66 00 00 00       	jmp    23f8 <filecrypt+0x888>
    2392:	8b 45 08             	mov    eax,DWORD PTR [ebp+0x8]
    2395:	83 c0 28             	add    eax,0x28
    2398:	03 45 c8             	add    eax,DWORD PTR [ebp-0x38]
    239b:	8b 4d 08             	mov    ecx,DWORD PTR [ebp+0x8]
    239e:	8b 49 10             	mov    ecx,DWORD PTR [ecx+0x10]
    23a1:	83 c1 6c             	add    ecx,0x6c
    23a4:	89 e2                	mov    edx,esp
    23a6:	89 4a 04             	mov    DWORD PTR [edx+0x4],ecx
    23a9:	89 02                	mov    DWORD PTR [edx],eax
    23ab:	c7 42 08 20 00 00 00 	mov    DWORD PTR [edx+0x8],0x20
    23b2:	e8 fc ff ff ff       	call   23b3 <filecrypt+0x843>
    23b7:	83 f8 00             	cmp    eax,0x0
    23ba:	0f 84 1c 00 00 00    	je     23dc <filecrypt+0x86c>
    23c0:	8b 45 08             	mov    eax,DWORD PTR [ebp+0x8]
    23c3:	8b 00                	mov    eax,DWORD PTR [eax]
    23c5:	8d 0d 00 00 00 00    	lea    ecx,ds:0x0
    23cb:	89 0c 24             	mov    DWORD PTR [esp],ecx
    23ce:	89 44 24 04          	mov    DWORD PTR [esp+0x4],eax
    23d2:	e8 fc ff ff ff       	call   23d3 <filecrypt+0x863>
    23d7:	e9 17 00 00 00       	jmp    23f3 <filecrypt+0x883>
    23dc:	8b 45 08             	mov    eax,DWORD PTR [ebp+0x8]
    23df:	8b 00                	mov    eax,DWORD PTR [eax]
    23e1:	8d 0d 00 00 00 00    	lea    ecx,ds:0x0
    23e7:	89 0c 24             	mov    DWORD PTR [esp],ecx
    23ea:	89 44 24 04          	mov    DWORD PTR [esp+0x4],eax
    23ee:	e8 fc ff ff ff       	call   23ef <filecrypt+0x87f>
    23f3:	e9 00 00 00 00       	jmp    23f8 <filecrypt+0x888>
    23f8:	31 c0                	xor    eax,eax
    23fa:	8b 4d f4             	mov    ecx,DWORD PTR [ebp-0xc]
    23fd:	8b 55 f0             	mov    edx,DWORD PTR [ebp-0x10]
    2400:	89 0c 24             	mov    DWORD PTR [esp],ecx
    2403:	89 54 24 04          	mov    DWORD PTR [esp+0x4],edx
    2407:	c7 44 24 08 00 00 00 	mov    DWORD PTR [esp+0x8],0x0
    240e:	00 
    240f:	89 45 80             	mov    DWORD PTR [ebp-0x80],eax
    2412:	e8 89 02 00 00       	call   26a0 <close_in_out_files>
    2417:	89 45 f8             	mov    DWORD PTR [ebp-0x8],eax
    241a:	8b 45 f8             	mov    eax,DWORD PTR [ebp-0x8]
    241d:	81 c4 a4 00 00 00    	add    esp,0xa4
    2423:	5e                   	pop    esi
    2424:	5d                   	pop    ebp
    2425:	c3                   	ret    
    2426:	90                   	nop
    2427:	90                   	nop
    2428:	90                   	nop
    2429:	90                   	nop
    242a:	90                   	nop
    242b:	90                   	nop
    242c:	90                   	nop
    242d:	90                   	nop
    242e:	90                   	nop
    242f:	90                   	nop

00002430 <cipher_free>:
    2430:	55                   	push   ebp
    2431:	89 e5                	mov    ebp,esp
    2433:	57                   	push   edi
    2434:	56                   	push   esi
    2435:	83 ec 20             	sub    esp,0x20
    2438:	8b 45 0c             	mov    eax,DWORD PTR [ebp+0xc]
    243b:	8b 4d 08             	mov    ecx,DWORD PTR [ebp+0x8]
    243e:	31 d2                	xor    edx,edx
    2440:	8b 75 08             	mov    esi,DWORD PTR [ebp+0x8]
    2443:	8b 7d 0c             	mov    edi,DWORD PTR [ebp+0xc]
    2446:	89 34 24             	mov    DWORD PTR [esp],esi
    2449:	c7 44 24 04 00 00 00 	mov    DWORD PTR [esp+0x4],0x0
    2450:	00 
    2451:	89 7c 24 08          	mov    DWORD PTR [esp+0x8],edi
    2455:	89 45 f4             	mov    DWORD PTR [ebp-0xc],eax
    2458:	89 4d f0             	mov    DWORD PTR [ebp-0x10],ecx
    245b:	89 55 ec             	mov    DWORD PTR [ebp-0x14],edx
    245e:	e8 fc ff ff ff       	call   245f <cipher_free+0x2f>
    2463:	8b 45 08             	mov    eax,DWORD PTR [ebp+0x8]
    2466:	89 04 24             	mov    DWORD PTR [esp],eax
    2469:	e8 fc ff ff ff       	call   246a <cipher_free+0x3a>
    246e:	83 c4 20             	add    esp,0x20
    2471:	5e                   	pop    esi
    2472:	5f                   	pop    edi
    2473:	5d                   	pop    ebp
    2474:	c3                   	ret    
    2475:	90                   	nop
    2476:	90                   	nop
    2477:	90                   	nop
    2478:	90                   	nop
    2479:	90                   	nop
    247a:	90                   	nop
    247b:	90                   	nop
    247c:	90                   	nop
    247d:	90                   	nop
    247e:	90                   	nop
    247f:	90                   	nop

00002480 <size_of_file>:
    2480:	55                   	push   ebp
    2481:	89 e5                	mov    ebp,esp
    2483:	83 ec 28             	sub    esp,0x28
    2486:	8b 45 08             	mov    eax,DWORD PTR [ebp+0x8]
    2489:	83 7d 08 00          	cmp    DWORD PTR [ebp+0x8],0x0
    248d:	0f 85 0c 00 00 00    	jne    249f <size_of_file+0x1f>
    2493:	c7 45 fc ff ff ff ff 	mov    DWORD PTR [ebp-0x4],0xffffffff
    249a:	e9 7e 00 00 00       	jmp    251d <size_of_file+0x9d>
    249f:	31 c0                	xor    eax,eax
    24a1:	8b 4d 08             	mov    ecx,DWORD PTR [ebp+0x8]
    24a4:	89 0c 24             	mov    DWORD PTR [esp],ecx
    24a7:	c7 44 24 04 00 00 00 	mov    DWORD PTR [esp+0x4],0x0
    24ae:	00 
    24af:	c7 44 24 08 02 00 00 	mov    DWORD PTR [esp+0x8],0x2
    24b6:	00 
    24b7:	89 45 f4             	mov    DWORD PTR [ebp-0xc],eax
    24ba:	e8 fc ff ff ff       	call   24bb <size_of_file+0x3b>
    24bf:	83 f8 00             	cmp    eax,0x0
    24c2:	0f 84 0c 00 00 00    	je     24d4 <size_of_file+0x54>
    24c8:	c7 45 fc ff ff ff ff 	mov    DWORD PTR [ebp-0x4],0xffffffff
    24cf:	e9 49 00 00 00       	jmp    251d <size_of_file+0x9d>
    24d4:	8b 45 08             	mov    eax,DWORD PTR [ebp+0x8]
    24d7:	89 04 24             	mov    DWORD PTR [esp],eax
    24da:	e8 fc ff ff ff       	call   24db <size_of_file+0x5b>
    24df:	31 c9                	xor    ecx,ecx
    24e1:	89 45 f8             	mov    DWORD PTR [ebp-0x8],eax
    24e4:	8b 45 08             	mov    eax,DWORD PTR [ebp+0x8]
    24e7:	89 04 24             	mov    DWORD PTR [esp],eax
    24ea:	c7 44 24 04 00 00 00 	mov    DWORD PTR [esp+0x4],0x0
    24f1:	00 
    24f2:	c7 44 24 08 00 00 00 	mov    DWORD PTR [esp+0x8],0x0
    24f9:	00 
    24fa:	89 4d f0             	mov    DWORD PTR [ebp-0x10],ecx
    24fd:	e8 fc ff ff ff       	call   24fe <size_of_file+0x7e>
    2502:	83 f8 00             	cmp    eax,0x0
    2505:	0f 84 0c 00 00 00    	je     2517 <size_of_file+0x97>
    250b:	c7 45 fc ff ff ff ff 	mov    DWORD PTR [ebp-0x4],0xffffffff
    2512:	e9 06 00 00 00       	jmp    251d <size_of_file+0x9d>
    2517:	8b 45 f8             	mov    eax,DWORD PTR [ebp-0x8]
    251a:	89 45 fc             	mov    DWORD PTR [ebp-0x4],eax
    251d:	8b 45 fc             	mov    eax,DWORD PTR [ebp-0x4]
    2520:	83 c4 28             	add    esp,0x28
    2523:	5d                   	pop    ebp
    2524:	c3                   	ret    
    2525:	90                   	nop
    2526:	90                   	nop
    2527:	90                   	nop
    2528:	90                   	nop
    2529:	90                   	nop
    252a:	90                   	nop
    252b:	90                   	nop
    252c:	90                   	nop
    252d:	90                   	nop
    252e:	90                   	nop
    252f:	90                   	nop

00002530 <size_correct>:
    2530:	55                   	push   ebp
    2531:	89 e5                	mov    ebp,esp
    2533:	50                   	push   eax
    2534:	8b 45 0c             	mov    eax,DWORD PTR [ebp+0xc]
    2537:	8b 4d 08             	mov    ecx,DWORD PTR [ebp+0x8]
    253a:	31 d2                	xor    edx,edx
    253c:	3b 55 0c             	cmp    edx,DWORD PTR [ebp+0xc]
    253f:	0f 85 0c 00 00 00    	jne    2551 <size_correct+0x21>
    2545:	c7 45 fc 03 00 00 00 	mov    DWORD PTR [ebp-0x4],0x3
    254c:	e9 66 00 00 00       	jmp    25b7 <size_correct+0x87>
    2551:	31 c0                	xor    eax,eax
    2553:	8b 4d 08             	mov    ecx,DWORD PTR [ebp+0x8]
    2556:	3b 81 44 00 00 01    	cmp    eax,DWORD PTR [ecx+0x1000044]
    255c:	0f 85 26 00 00 00    	jne    2588 <size_correct+0x58>
    2562:	8b 45 0c             	mov    eax,DWORD PTR [ebp+0xc]
    2565:	83 c0 20             	add    eax,0x20
    2568:	8b 4d 08             	mov    ecx,DWORD PTR [ebp+0x8]
    256b:	03 41 1c             	add    eax,DWORD PTR [ecx+0x1c]
    256e:	83 f8 00             	cmp    eax,0x0
    2571:	0f 8f 0c 00 00 00    	jg     2583 <size_correct+0x53>
    2577:	c7 45 fc 03 00 00 00 	mov    DWORD PTR [ebp-0x4],0x3
    257e:	e9 34 00 00 00       	jmp    25b7 <size_correct+0x87>
    2583:	e9 28 00 00 00       	jmp    25b0 <size_correct+0x80>
    2588:	8b 45 0c             	mov    eax,DWORD PTR [ebp+0xc]
    258b:	8b 4d 08             	mov    ecx,DWORD PTR [ebp+0x8]
    258e:	8b 49 1c             	mov    ecx,DWORD PTR [ecx+0x1c]
    2591:	83 c1 20             	add    ecx,0x20
    2594:	83 c1 01             	add    ecx,0x1
    2597:	39 c8                	cmp    eax,ecx
    2599:	0f 8d 0c 00 00 00    	jge    25ab <size_correct+0x7b>
    259f:	c7 45 fc 08 00 00 00 	mov    DWORD PTR [ebp-0x4],0x8
    25a6:	e9 0c 00 00 00       	jmp    25b7 <size_correct+0x87>
    25ab:	e9 00 00 00 00       	jmp    25b0 <size_correct+0x80>
    25b0:	c7 45 fc 00 00 00 00 	mov    DWORD PTR [ebp-0x4],0x0
    25b7:	8b 45 fc             	mov    eax,DWORD PTR [ebp-0x4]
    25ba:	83 c4 04             	add    esp,0x4
    25bd:	5d                   	pop    ebp
    25be:	c3                   	ret    
    25bf:	90                   	nop

000025c0 <size_check>:
    25c0:	55                   	push   ebp
    25c1:	89 e5                	mov    ebp,esp
    25c3:	50                   	push   eax
    25c4:	8b 45 08             	mov    eax,DWORD PTR [ebp+0x8]
    25c7:	c7 45 fc 00 00 00 00 	mov    DWORD PTR [ebp-0x4],0x0
    25ce:	8b 4d 08             	mov    ecx,DWORD PTR [ebp+0x8]
    25d1:	3b 0d 74 00 00 00    	cmp    ecx,DWORD PTR ds:0x74
    25d7:	0f 82 1b 00 00 00    	jb     25f8 <size_check+0x38>
    25dd:	8b 45 08             	mov    eax,DWORD PTR [ebp+0x8]
    25e0:	3b 05 78 00 00 00    	cmp    eax,DWORD PTR ds:0x78
    25e6:	0f 83 0c 00 00 00    	jae    25f8 <size_check+0x38>
    25ec:	c7 45 fc 01 00 00 00 	mov    DWORD PTR [ebp-0x4],0x1
    25f3:	e9 4a 00 00 00       	jmp    2642 <size_check+0x82>
    25f8:	8b 45 08             	mov    eax,DWORD PTR [ebp+0x8]
    25fb:	3b 05 78 00 00 00    	cmp    eax,DWORD PTR ds:0x78
    2601:	0f 82 1b 00 00 00    	jb     2622 <size_check+0x62>
    2607:	8b 45 08             	mov    eax,DWORD PTR [ebp+0x8]
    260a:	3b 05 7c 00 00 00    	cmp    eax,DWORD PTR ds:0x7c
    2610:	0f 83 0c 00 00 00    	jae    2622 <size_check+0x62>
    2616:	c7 45 fc 02 00 00 00 	mov    DWORD PTR [ebp-0x4],0x2
    261d:	e9 1b 00 00 00       	jmp    263d <size_check+0x7d>
    2622:	8b 45 08             	mov    eax,DWORD PTR [ebp+0x8]
    2625:	3b 05 7c 00 00 00    	cmp    eax,DWORD PTR ds:0x7c
    262b:	0f 82 07 00 00 00    	jb     2638 <size_check+0x78>
    2631:	c7 45 fc 03 00 00 00 	mov    DWORD PTR [ebp-0x4],0x3
    2638:	e9 00 00 00 00       	jmp    263d <size_check+0x7d>
    263d:	e9 00 00 00 00       	jmp    2642 <size_check+0x82>
    2642:	8b 45 fc             	mov    eax,DWORD PTR [ebp-0x4]
    2645:	83 c4 04             	add    esp,0x4
    2648:	5d                   	pop    ebp
    2649:	c3                   	ret    
    264a:	90                   	nop
    264b:	90                   	nop
    264c:	90                   	nop
    264d:	90                   	nop
    264e:	90                   	nop
    264f:	90                   	nop

00002650 <sizetodoubleprint>:
    2650:	55                   	push   ebp
    2651:	89 e5                	mov    ebp,esp
    2653:	83 ec 18             	sub    esp,0x18
    2656:	dd 45 0c             	fld    QWORD PTR [ebp+0xc]
    2659:	8b 45 08             	mov    eax,DWORD PTR [ebp+0x8]
    265c:	dd 5d f8             	fstp   QWORD PTR [ebp-0x8]
    265f:	83 7d 08 00          	cmp    DWORD PTR [ebp+0x8],0x0
    2663:	0f 84 24 00 00 00    	je     268d <sizetodoubleprint+0x3d>
    2669:	dd 45 f8             	fld    QWORD PTR [ebp-0x8]
    266c:	8b 45 08             	mov    eax,DWORD PTR [ebp+0x8]
    266f:	8b 04 85 70 00 00 00 	mov    eax,DWORD PTR [eax*4+0x70]
    2676:	89 45 f0             	mov    DWORD PTR [ebp-0x10],eax
    2679:	c7 45 f4 00 00 00 00 	mov    DWORD PTR [ebp-0xc],0x0
    2680:	df 6d f0             	fild   QWORD PTR [ebp-0x10]
    2683:	de f9                	fdivp  st(1),st
    2685:	dd 5d e8             	fstp   QWORD PTR [ebp-0x18]
    2688:	e9 06 00 00 00       	jmp    2693 <sizetodoubleprint+0x43>
    268d:	dd 45 f8             	fld    QWORD PTR [ebp-0x8]
    2690:	dd 5d e8             	fstp   QWORD PTR [ebp-0x18]
    2693:	dd 45 e8             	fld    QWORD PTR [ebp-0x18]
    2696:	83 c4 18             	add    esp,0x18
    2699:	5d                   	pop    ebp
    269a:	c3                   	ret    
    269b:	90                   	nop
    269c:	90                   	nop
    269d:	90                   	nop
    269e:	90                   	nop
    269f:	90                   	nop

000026a0 <close_in_out_files>:
    26a0:	55                   	push   ebp
    26a1:	89 e5                	mov    ebp,esp
    26a3:	56                   	push   esi
    26a4:	83 ec 14             	sub    esp,0x14
    26a7:	8b 45 10             	mov    eax,DWORD PTR [ebp+0x10]
    26aa:	8b 4d 0c             	mov    ecx,DWORD PTR [ebp+0xc]
    26ad:	8b 55 08             	mov    edx,DWORD PTR [ebp+0x8]
    26b0:	8b 75 08             	mov    esi,DWORD PTR [ebp+0x8]
    26b3:	89 34 24             	mov    DWORD PTR [esp],esi
    26b6:	89 45 f4             	mov    DWORD PTR [ebp-0xc],eax
    26b9:	89 4d f0             	mov    DWORD PTR [ebp-0x10],ecx
    26bc:	89 55 ec             	mov    DWORD PTR [ebp-0x14],edx
    26bf:	e8 fc ff ff ff       	call   26c0 <close_in_out_files+0x20>
    26c4:	83 f8 ff             	cmp    eax,0xffffffff
    26c7:	0f 85 17 00 00 00    	jne    26e4 <close_in_out_files+0x44>
    26cd:	8b 45 0c             	mov    eax,DWORD PTR [ebp+0xc]
    26d0:	89 04 24             	mov    DWORD PTR [esp],eax
    26d3:	e8 fc ff ff ff       	call   26d4 <close_in_out_files+0x34>
    26d8:	c7 45 f8 06 00 00 00 	mov    DWORD PTR [ebp-0x8],0x6
    26df:	e9 26 00 00 00       	jmp    270a <close_in_out_files+0x6a>
    26e4:	8b 45 0c             	mov    eax,DWORD PTR [ebp+0xc]
    26e7:	89 04 24             	mov    DWORD PTR [esp],eax
    26ea:	e8 fc ff ff ff       	call   26eb <close_in_out_files+0x4b>
    26ef:	83 f8 ff             	cmp    eax,0xffffffff
    26f2:	0f 85 0c 00 00 00    	jne    2704 <close_in_out_files+0x64>
    26f8:	c7 45 f8 07 00 00 00 	mov    DWORD PTR [ebp-0x8],0x7
    26ff:	e9 06 00 00 00       	jmp    270a <close_in_out_files+0x6a>
    2704:	8b 45 10             	mov    eax,DWORD PTR [ebp+0x10]
    2707:	89 45 f8             	mov    DWORD PTR [ebp-0x8],eax
    270a:	8b 45 f8             	mov    eax,DWORD PTR [ebp-0x8]
    270d:	83 c4 14             	add    esp,0x14
    2710:	5e                   	pop    esi
    2711:	5d                   	pop    ebp
    2712:	c3                   	ret    
    2713:	90                   	nop
    2714:	90                   	nop
    2715:	90                   	nop
    2716:	90                   	nop
    2717:	90                   	nop
    2718:	90                   	nop
    2719:	90                   	nop
    271a:	90                   	nop
    271b:	90                   	nop
    271c:	90                   	nop
    271d:	90                   	nop
    271e:	90                   	nop
    271f:	90                   	nop

00002720 <control_sum_buffer>:
    2720:	55                   	push   ebp
    2721:	89 e5                	mov    ebp,esp
    2723:	83 ec 28             	sub    esp,0x28
    2726:	8b 45 0c             	mov    eax,DWORD PTR [ebp+0xc]
    2729:	8b 4d 08             	mov    ecx,DWORD PTR [ebp+0x8]
    272c:	c7 45 fc 00 00 00 00 	mov    DWORD PTR [ebp-0x4],0x0
    2733:	8b 55 0c             	mov    edx,DWORD PTR [ebp+0xc]
    2736:	89 55 f8             	mov    DWORD PTR [ebp-0x8],edx
    2739:	8b 45 fc             	mov    eax,DWORD PTR [ebp-0x4]
    273c:	3b 45 0c             	cmp    eax,DWORD PTR [ebp+0xc]
    273f:	0f 83 ca 00 00 00    	jae    280f <control_sum_buffer+0xef>
    2745:	81 7d f8 00 04 00 00 	cmp    DWORD PTR [ebp-0x8],0x400
    274c:	0f 83 53 00 00 00    	jae    27a5 <control_sum_buffer+0x85>
    2752:	8b 45 08             	mov    eax,DWORD PTR [ebp+0x8]
    2755:	8b 40 10             	mov    eax,DWORD PTR [eax+0x10]
    2758:	8b 4d 08             	mov    ecx,DWORD PTR [ebp+0x8]
    275b:	83 b9 44 00 00 01 00 	cmp    DWORD PTR [ecx+0x1000044],0x0
    2762:	89 45 f4             	mov    DWORD PTR [ebp-0xc],eax
    2765:	0f 84 10 00 00 00    	je     277b <control_sum_buffer+0x5b>
    276b:	8b 45 08             	mov    eax,DWORD PTR [ebp+0x8]
    276e:	05 28 00 80 00       	add    eax,0x800028
    2773:	89 45 f0             	mov    DWORD PTR [ebp-0x10],eax
    2776:	e9 09 00 00 00       	jmp    2784 <control_sum_buffer+0x64>
    277b:	8b 45 08             	mov    eax,DWORD PTR [ebp+0x8]
    277e:	83 c0 28             	add    eax,0x28
    2781:	89 45 f0             	mov    DWORD PTR [ebp-0x10],eax
    2784:	8b 45 f0             	mov    eax,DWORD PTR [ebp-0x10]
    2787:	03 45 fc             	add    eax,DWORD PTR [ebp-0x4]
    278a:	8b 4d f8             	mov    ecx,DWORD PTR [ebp-0x8]
    278d:	8b 55 f4             	mov    edx,DWORD PTR [ebp-0xc]
    2790:	89 14 24             	mov    DWORD PTR [esp],edx
    2793:	89 44 24 04          	mov    DWORD PTR [esp+0x4],eax
    2797:	89 4c 24 08          	mov    DWORD PTR [esp+0x8],ecx
    279b:	e8 fc ff ff ff       	call   279c <control_sum_buffer+0x7c>
    27a0:	e9 4f 00 00 00       	jmp    27f4 <control_sum_buffer+0xd4>
    27a5:	8b 45 08             	mov    eax,DWORD PTR [ebp+0x8]
    27a8:	8b 40 10             	mov    eax,DWORD PTR [eax+0x10]
    27ab:	8b 4d 08             	mov    ecx,DWORD PTR [ebp+0x8]
    27ae:	83 b9 44 00 00 01 00 	cmp    DWORD PTR [ecx+0x1000044],0x0
    27b5:	89 45 ec             	mov    DWORD PTR [ebp-0x14],eax
    27b8:	0f 84 10 00 00 00    	je     27ce <control_sum_buffer+0xae>
    27be:	8b 45 08             	mov    eax,DWORD PTR [ebp+0x8]
    27c1:	05 28 00 80 00       	add    eax,0x800028
    27c6:	89 45 e8             	mov    DWORD PTR [ebp-0x18],eax
    27c9:	e9 09 00 00 00       	jmp    27d7 <control_sum_buffer+0xb7>
    27ce:	8b 45 08             	mov    eax,DWORD PTR [ebp+0x8]
    27d1:	83 c0 28             	add    eax,0x28
    27d4:	89 45 e8             	mov    DWORD PTR [ebp-0x18],eax
    27d7:	8b 45 e8             	mov    eax,DWORD PTR [ebp-0x18]
    27da:	03 45 fc             	add    eax,DWORD PTR [ebp-0x4]
    27dd:	8b 4d ec             	mov    ecx,DWORD PTR [ebp-0x14]
    27e0:	89 0c 24             	mov    DWORD PTR [esp],ecx
    27e3:	89 44 24 04          	mov    DWORD PTR [esp+0x4],eax
    27e7:	c7 44 24 08 00 04 00 	mov    DWORD PTR [esp+0x8],0x400
    27ee:	00 
    27ef:	e8 fc ff ff ff       	call   27f0 <control_sum_buffer+0xd0>
    27f4:	8b 45 fc             	mov    eax,DWORD PTR [ebp-0x4]
    27f7:	05 00 04 00 00       	add    eax,0x400
    27fc:	89 45 fc             	mov    DWORD PTR [ebp-0x4],eax
    27ff:	8b 45 f8             	mov    eax,DWORD PTR [ebp-0x8]
    2802:	2d 00 04 00 00       	sub    eax,0x400
    2807:	89 45 f8             	mov    DWORD PTR [ebp-0x8],eax
    280a:	e9 2a ff ff ff       	jmp    2739 <control_sum_buffer+0x19>
    280f:	83 c4 28             	add    esp,0x28
    2812:	5d                   	pop    ebp
    2813:	c3                   	ret    
    2814:	90                   	nop
    2815:	90                   	nop
    2816:	90                   	nop
    2817:	90                   	nop
    2818:	90                   	nop
    2819:	90                   	nop
    281a:	90                   	nop
    281b:	90                   	nop
    281c:	90                   	nop
    281d:	90                   	nop
    281e:	90                   	nop
    281f:	90                   	nop

00002820 <hmac_sha256_uf>:
    2820:	55                   	push   ebp
    2821:	89 e5                	mov    ebp,esp
    2823:	53                   	push   ebx
    2824:	56                   	push   esi
    2825:	83 ec 30             	sub    esp,0x30
    2828:	8b 45 08             	mov    eax,DWORD PTR [ebp+0x8]
    282b:	c7 45 ec 60 00 00 00 	mov    DWORD PTR [ebp-0x14],0x60
    2832:	8b 4d ec             	mov    ecx,DWORD PTR [ebp-0x14]
    2835:	89 0c 24             	mov    DWORD PTR [esp],ecx
    2838:	89 45 e4             	mov    DWORD PTR [ebp-0x1c],eax
    283b:	e8 fc ff ff ff       	call   283c <hmac_sha256_uf+0x1c>
    2840:	89 45 e8             	mov    DWORD PTR [ebp-0x18],eax
    2843:	83 7d e8 00          	cmp    DWORD PTR [ebp-0x18],0x0
    2847:	0f 85 28 00 00 00    	jne    2875 <hmac_sha256_uf+0x55>
    284d:	e9 00 00 00 00       	jmp    2852 <hmac_sha256_uf+0x32>
    2852:	a1 00 00 00 00       	mov    eax,ds:0x0
    2857:	89 04 24             	mov    DWORD PTR [esp],eax
    285a:	8d 05 00 00 00 00    	lea    eax,ds:0x0
    2860:	89 44 24 04          	mov    DWORD PTR [esp+0x4],eax
    2864:	e8 fc ff ff ff       	call   2865 <hmac_sha256_uf+0x45>
    2869:	c7 04 24 01 00 00 00 	mov    DWORD PTR [esp],0x1
    2870:	e8 fc ff ff ff       	call   2871 <hmac_sha256_uf+0x51>
    2875:	8b 45 08             	mov    eax,DWORD PTR [ebp+0x8]
    2878:	83 78 24 20          	cmp    DWORD PTR [eax+0x24],0x20
    287c:	0f 83 0e 00 00 00    	jae    2890 <hmac_sha256_uf+0x70>
    2882:	8b 45 08             	mov    eax,DWORD PTR [ebp+0x8]
    2885:	8b 40 24             	mov    eax,DWORD PTR [eax+0x24]
    2888:	89 45 e0             	mov    DWORD PTR [ebp-0x20],eax
    288b:	e9 0d 00 00 00       	jmp    289d <hmac_sha256_uf+0x7d>
    2890:	b8 20 00 00 00       	mov    eax,0x20
    2895:	89 45 e0             	mov    DWORD PTR [ebp-0x20],eax
    2898:	e9 00 00 00 00       	jmp    289d <hmac_sha256_uf+0x7d>
    289d:	8b 45 e0             	mov    eax,DWORD PTR [ebp-0x20]
    28a0:	89 45 f0             	mov    DWORD PTR [ebp-0x10],eax
    28a3:	8b 45 e8             	mov    eax,DWORD PTR [ebp-0x18]
    28a6:	8b 4d 08             	mov    ecx,DWORD PTR [ebp+0x8]
    28a9:	8b 49 10             	mov    ecx,DWORD PTR [ecx+0x10]
    28ac:	83 c1 6c             	add    ecx,0x6c
    28af:	89 04 24             	mov    DWORD PTR [esp],eax
    28b2:	89 4c 24 04          	mov    DWORD PTR [esp+0x4],ecx
    28b6:	c7 44 24 08 20 00 00 	mov    DWORD PTR [esp+0x8],0x20
    28bd:	00 
    28be:	e8 fc ff ff ff       	call   28bf <hmac_sha256_uf+0x9f>
    28c3:	8b 45 e8             	mov    eax,DWORD PTR [ebp-0x18]
    28c6:	83 c0 20             	add    eax,0x20
    28c9:	8b 4d 08             	mov    ecx,DWORD PTR [ebp+0x8]
    28cc:	8b 49 20             	mov    ecx,DWORD PTR [ecx+0x20]
    28cf:	8b 55 f0             	mov    edx,DWORD PTR [ebp-0x10]
    28d2:	89 04 24             	mov    DWORD PTR [esp],eax
    28d5:	89 4c 24 04          	mov    DWORD PTR [esp+0x4],ecx
    28d9:	89 54 24 08          	mov    DWORD PTR [esp+0x8],edx
    28dd:	e8 fc ff ff ff       	call   28de <hmac_sha256_uf+0xbe>
    28e2:	8b 45 e8             	mov    eax,DWORD PTR [ebp-0x18]
    28e5:	83 c0 40             	add    eax,0x40
    28e8:	8b 4d 08             	mov    ecx,DWORD PTR [ebp+0x8]
    28eb:	8b 49 20             	mov    ecx,DWORD PTR [ecx+0x20]
    28ee:	8b 55 f0             	mov    edx,DWORD PTR [ebp-0x10]
    28f1:	89 04 24             	mov    DWORD PTR [esp],eax
    28f4:	89 4c 24 04          	mov    DWORD PTR [esp+0x4],ecx
    28f8:	89 54 24 08          	mov    DWORD PTR [esp+0x8],edx
    28fc:	e8 fc ff ff ff       	call   28fd <hmac_sha256_uf+0xdd>
    2901:	8b 45 f0             	mov    eax,DWORD PTR [ebp-0x10]
    2904:	89 45 f4             	mov    DWORD PTR [ebp-0xc],eax
    2907:	83 7d f4 20          	cmp    DWORD PTR [ebp-0xc],0x20
    290b:	0f 83 24 00 00 00    	jae    2935 <hmac_sha256_uf+0x115>
    2911:	8b 45 e8             	mov    eax,DWORD PTR [ebp-0x18]
    2914:	8b 4d f4             	mov    ecx,DWORD PTR [ebp-0xc]
    2917:	c6 44 08 20 00       	mov    BYTE PTR [eax+ecx*1+0x20],0x0
    291c:	8b 45 e8             	mov    eax,DWORD PTR [ebp-0x18]
    291f:	8b 4d f4             	mov    ecx,DWORD PTR [ebp-0xc]
    2922:	c6 44 08 40 00       	mov    BYTE PTR [eax+ecx*1+0x40],0x0
    2927:	8b 45 f4             	mov    eax,DWORD PTR [ebp-0xc]
    292a:	83 c0 01             	add    eax,0x1
    292d:	89 45 f4             	mov    DWORD PTR [ebp-0xc],eax
    2930:	e9 d2 ff ff ff       	jmp    2907 <hmac_sha256_uf+0xe7>
    2935:	c7 45 f4 00 00 00 00 	mov    DWORD PTR [ebp-0xc],0x0
    293c:	83 7d f4 20          	cmp    DWORD PTR [ebp-0xc],0x20
    2940:	0f 83 34 00 00 00    	jae    297a <hmac_sha256_uf+0x15a>
    2946:	8b 45 e8             	mov    eax,DWORD PTR [ebp-0x18]
    2949:	8b 4d f4             	mov    ecx,DWORD PTR [ebp-0xc]
    294c:	0f b6 54 08 20       	movzx  edx,BYTE PTR [eax+ecx*1+0x20]
    2951:	83 f2 55             	xor    edx,0x55
    2954:	88 54 08 20          	mov    BYTE PTR [eax+ecx*1+0x20],dl
    2958:	8b 45 e8             	mov    eax,DWORD PTR [ebp-0x18]
    295b:	8b 4d f4             	mov    ecx,DWORD PTR [ebp-0xc]
    295e:	0f b6 74 08 40       	movzx  esi,BYTE PTR [eax+ecx*1+0x40]
    2963:	89 f3                	mov    ebx,esi
    2965:	83 f3 66             	xor    ebx,0x66
    2968:	88 5c 08 40          	mov    BYTE PTR [eax+ecx*1+0x40],bl
    296c:	8b 45 f4             	mov    eax,DWORD PTR [ebp-0xc]
    296f:	83 c0 01             	add    eax,0x1
    2972:	89 45 f4             	mov    DWORD PTR [ebp-0xc],eax
    2975:	e9 c2 ff ff ff       	jmp    293c <hmac_sha256_uf+0x11c>
    297a:	31 c0                	xor    eax,eax
    297c:	8b 4d 08             	mov    ecx,DWORD PTR [ebp+0x8]
    297f:	8b 49 10             	mov    ecx,DWORD PTR [ecx+0x10]
    2982:	8b 55 08             	mov    edx,DWORD PTR [ebp+0x8]
    2985:	8b 52 14             	mov    edx,DWORD PTR [edx+0x14]
    2988:	89 0c 24             	mov    DWORD PTR [esp],ecx
    298b:	c7 44 24 04 00 00 00 	mov    DWORD PTR [esp+0x4],0x0
    2992:	00 
    2993:	89 54 24 08          	mov    DWORD PTR [esp+0x8],edx
    2997:	89 45 dc             	mov    DWORD PTR [ebp-0x24],eax
    299a:	e8 fc ff ff ff       	call   299b <hmac_sha256_uf+0x17b>
    299f:	8b 45 08             	mov    eax,DWORD PTR [ebp+0x8]
    29a2:	8b 40 10             	mov    eax,DWORD PTR [eax+0x10]
    29a5:	89 04 24             	mov    DWORD PTR [esp],eax
    29a8:	e8 fc ff ff ff       	call   29a9 <hmac_sha256_uf+0x189>
    29ad:	8b 45 08             	mov    eax,DWORD PTR [ebp+0x8]
    29b0:	8b 40 10             	mov    eax,DWORD PTR [eax+0x10]
    29b3:	8b 4d e8             	mov    ecx,DWORD PTR [ebp-0x18]
    29b6:	83 c1 20             	add    ecx,0x20
    29b9:	89 04 24             	mov    DWORD PTR [esp],eax
    29bc:	89 4c 24 04          	mov    DWORD PTR [esp+0x4],ecx
    29c0:	c7 44 24 08 20 00 00 	mov    DWORD PTR [esp+0x8],0x20
    29c7:	00 
    29c8:	e8 fc ff ff ff       	call   29c9 <hmac_sha256_uf+0x1a9>
    29cd:	8b 45 08             	mov    eax,DWORD PTR [ebp+0x8]
    29d0:	8b 40 10             	mov    eax,DWORD PTR [eax+0x10]
    29d3:	8b 4d e8             	mov    ecx,DWORD PTR [ebp-0x18]
    29d6:	89 04 24             	mov    DWORD PTR [esp],eax
    29d9:	89 4c 24 04          	mov    DWORD PTR [esp+0x4],ecx
    29dd:	c7 44 24 08 20 00 00 	mov    DWORD PTR [esp+0x8],0x20
    29e4:	00 
    29e5:	e8 fc ff ff ff       	call   29e6 <hmac_sha256_uf+0x1c6>
    29ea:	8b 45 08             	mov    eax,DWORD PTR [ebp+0x8]
    29ed:	8b 40 10             	mov    eax,DWORD PTR [eax+0x10]
    29f0:	89 04 24             	mov    DWORD PTR [esp],eax
    29f3:	e8 fc ff ff ff       	call   29f4 <hmac_sha256_uf+0x1d4>
    29f8:	31 c0                	xor    eax,eax
    29fa:	8b 4d e8             	mov    ecx,DWORD PTR [ebp-0x18]
    29fd:	8b 55 08             	mov    edx,DWORD PTR [ebp+0x8]
    2a00:	8b 52 10             	mov    edx,DWORD PTR [edx+0x10]
    2a03:	83 c2 6c             	add    edx,0x6c
    2a06:	89 0c 24             	mov    DWORD PTR [esp],ecx
    2a09:	89 54 24 04          	mov    DWORD PTR [esp+0x4],edx
    2a0d:	c7 44 24 08 20 00 00 	mov    DWORD PTR [esp+0x8],0x20
    2a14:	00 
    2a15:	89 45 d8             	mov    DWORD PTR [ebp-0x28],eax
    2a18:	e8 fc ff ff ff       	call   2a19 <hmac_sha256_uf+0x1f9>
    2a1d:	8b 45 08             	mov    eax,DWORD PTR [ebp+0x8]
    2a20:	8b 40 10             	mov    eax,DWORD PTR [eax+0x10]
    2a23:	8b 4d 08             	mov    ecx,DWORD PTR [ebp+0x8]
    2a26:	8b 49 14             	mov    ecx,DWORD PTR [ecx+0x14]
    2a29:	89 04 24             	mov    DWORD PTR [esp],eax
    2a2c:	c7 44 24 04 00 00 00 	mov    DWORD PTR [esp+0x4],0x0
    2a33:	00 
    2a34:	89 4c 24 08          	mov    DWORD PTR [esp+0x8],ecx
    2a38:	e8 fc ff ff ff       	call   2a39 <hmac_sha256_uf+0x219>
    2a3d:	8b 45 08             	mov    eax,DWORD PTR [ebp+0x8]
    2a40:	8b 40 10             	mov    eax,DWORD PTR [eax+0x10]
    2a43:	89 04 24             	mov    DWORD PTR [esp],eax
    2a46:	e8 fc ff ff ff       	call   2a47 <hmac_sha256_uf+0x227>
    2a4b:	8b 45 08             	mov    eax,DWORD PTR [ebp+0x8]
    2a4e:	8b 40 10             	mov    eax,DWORD PTR [eax+0x10]
    2a51:	8b 4d e8             	mov    ecx,DWORD PTR [ebp-0x18]
    2a54:	83 c1 40             	add    ecx,0x40
    2a57:	89 04 24             	mov    DWORD PTR [esp],eax
    2a5a:	89 4c 24 04          	mov    DWORD PTR [esp+0x4],ecx
    2a5e:	c7 44 24 08 20 00 00 	mov    DWORD PTR [esp+0x8],0x20
    2a65:	00 
    2a66:	e8 fc ff ff ff       	call   2a67 <hmac_sha256_uf+0x247>
    2a6b:	8b 45 08             	mov    eax,DWORD PTR [ebp+0x8]
    2a6e:	8b 40 10             	mov    eax,DWORD PTR [eax+0x10]
    2a71:	8b 4d e8             	mov    ecx,DWORD PTR [ebp-0x18]
    2a74:	89 04 24             	mov    DWORD PTR [esp],eax
    2a77:	89 4c 24 04          	mov    DWORD PTR [esp+0x4],ecx
    2a7b:	c7 44 24 08 20 00 00 	mov    DWORD PTR [esp+0x8],0x20
    2a82:	00 
    2a83:	e8 fc ff ff ff       	call   2a84 <hmac_sha256_uf+0x264>
    2a88:	8b 45 08             	mov    eax,DWORD PTR [ebp+0x8]
    2a8b:	8b 40 10             	mov    eax,DWORD PTR [eax+0x10]
    2a8e:	89 04 24             	mov    DWORD PTR [esp],eax
    2a91:	e8 fc ff ff ff       	call   2a92 <hmac_sha256_uf+0x272>
    2a96:	31 c0                	xor    eax,eax
    2a98:	8b 4d e8             	mov    ecx,DWORD PTR [ebp-0x18]
    2a9b:	8b 55 ec             	mov    edx,DWORD PTR [ebp-0x14]
    2a9e:	89 0c 24             	mov    DWORD PTR [esp],ecx
    2aa1:	c7 44 24 04 00 00 00 	mov    DWORD PTR [esp+0x4],0x0
    2aa8:	00 
    2aa9:	89 54 24 08          	mov    DWORD PTR [esp+0x8],edx
    2aad:	89 45 d4             	mov    DWORD PTR [ebp-0x2c],eax
    2ab0:	e8 fc ff ff ff       	call   2ab1 <hmac_sha256_uf+0x291>
    2ab5:	8b 45 e8             	mov    eax,DWORD PTR [ebp-0x18]
    2ab8:	89 04 24             	mov    DWORD PTR [esp],eax
    2abb:	e8 fc ff ff ff       	call   2abc <hmac_sha256_uf+0x29c>
    2ac0:	83 c4 30             	add    esp,0x30
    2ac3:	5e                   	pop    esi
    2ac4:	5b                   	pop    ebx
    2ac5:	5d                   	pop    ebp
    2ac6:	c3                   	ret    

Дизассемблирование раздела .rodata:

00000000 <INT_SIZE_DATA-0x74>:
   0:	ca 02 00             	retf   0x2
   3:	00 02                	add    BYTE PTR [edx],al
   5:	03 00                	add    eax,DWORD PTR [eax]
   7:	00 49 03             	add    BYTE PTR [ecx+0x3],cl
   a:	00 00                	add    BYTE PTR [eax],al
   c:	6f                   	outs   dx,DWORD PTR ds:[esi]
   d:	03 00                	add    eax,DWORD PTR [eax]
   f:	00 94 03 00 00 ba 03 	add    BYTE PTR [ebx+eax*1+0x3ba0000],dl
  16:	00 00                	add    BYTE PTR [eax],al
  18:	df 03                	fild   WORD PTR [ebx]
  1a:	00 00                	add    BYTE PTR [eax],al
  1c:	fb                   	sti    
  1d:	03 00                	add    eax,DWORD PTR [eax]
  1f:	00 17                	add    BYTE PTR [edi],dl
  21:	04 00                	add    al,0x0
  23:	00 96 14 00 00 b6    	add    BYTE PTR [esi-0x49ffffec],dl
  29:	14 00                	adc    al,0x0
  2b:	00 cc                	add    ah,cl
  2d:	14 00                	adc    al,0x0
  2f:	00 e2                	add    dl,ah
  31:	14 00                	adc    al,0x0
  33:	00 f8                	add    al,bh
  35:	14 00                	adc    al,0x0
  37:	00 62 1a             	add    BYTE PTR [edx+0x1a],ah
  3a:	00 00                	add    BYTE PTR [eax],al
  3c:	c1 1a 00             	rcr    DWORD PTR [edx],0x0
  3f:	00 93 1a 00 00 f2    	add    BYTE PTR [ebx-0xdffffe6],dl
  45:	1a 00                	sbb    al,BYTE PTR [eax]
  47:	00 20                	add    BYTE PTR [eax],ah
  49:	1b 00                	sbb    eax,DWORD PTR [eax]
  4b:	00 41 1d             	add    BYTE PTR [ecx+0x1d],al
  4e:	00 00                	add    BYTE PTR [eax],al
  50:	6a 1d                	push   0x1d
  52:	00 00                	add    BYTE PTR [eax],al
  54:	93                   	xchg   ebx,eax
  55:	1d 00 00 bc 1d       	sbb    eax,0x1dbc0000
  5a:	00 00                	add    BYTE PTR [eax],al
  5c:	0f 1e 00             	nop    DWORD PTR [eax]
  5f:	00 9a 1f 00 00 c6    	add    BYTE PTR [edx-0x39ffffe1],bl
  65:	1f                   	pop    ds
  66:	00 00                	add    BYTE PTR [eax],al
  68:	f2 1f                	repnz pop ds
  6a:	00 00                	add    BYTE PTR [eax],al
  6c:	1e                   	push   ds
  6d:	20 00                	and    BYTE PTR [eax],al
  6f:	00 6e 20             	add    BYTE PTR [esi+0x20],ch
	...

00000074 <INT_SIZE_DATA>:
  74:	00 04 00             	add    BYTE PTR [eax+eax*1],al
  77:	00 00                	add    BYTE PTR [eax],al
  79:	00 10                	add    BYTE PTR [eax],dl
  7b:	00 00                	add    BYTE PTR [eax],al
  7d:	00 00                	add    BYTE PTR [eax],al
  7f:	40                   	inc    eax

Дизассемблирование раздела .rodata.cst4:

00000000 <.LCPI10_0>:
   0:	00 00                	add    BYTE PTR [eax],al
   2:	c8                   	.byte 0xc8
   3:	42                   	inc    edx

Дизассемблирование раздела .rodata.cst8:

00000000 <.LCPI10_1>:
   0:	9a 99 99 99 99 99 b9 	call   0xb999:0x99999999
   7:	3f                   	aas    

Дизассемблирование раздела .rodata.str1.1:

00000000 <.L.str>:
   0:	72 62                	jb     64 <.L.str.4+0x25>
	...

00000003 <.L.str.1>:
   3:	77 62                	ja     67 <.L.str.5>
	...

00000006 <.L.str.2>:
   6:	50                   	push   eax
   7:	6c                   	ins    BYTE PTR es:[edi],dx
   8:	65 78 75             	gs js  80 <.L.str.5+0x19>
   b:	73 54                	jae    61 <.L.str.4+0x22>
   d:	43                   	inc    ebx
   e:	4c                   	dec    esp
   f:	20 43 6f             	and    BYTE PTR [ebx+0x6f],al
  12:	6e                   	outs   dx,BYTE PTR ds:[esi]
  13:	73 6f                	jae    84 <.L.str.6+0x1>
  15:	6c                   	ins    BYTE PTR es:[edi],dx
  16:	65 20 43 72          	and    BYTE PTR gs:[ebx+0x72],al
  1a:	79 70                	jns    8c <.L.str.6+0x9>
  1c:	74 65                	je     83 <.L.str.6>
  1e:	72 20                	jb     40 <.L.str.4+0x1>
  20:	35 2e 31 30 20       	xor    eax,0x2030312e
  25:	32 35 4a 55 4c 32    	xor    dh,BYTE PTR ds:0x324c554a
  2b:	34 20                	xor    al,0x20
  2d:	5b                   	pop    ebx
  2e:	45                   	inc    ebp
  2f:	4e                   	dec    esi
  30:	5d                   	pop    ebp
	...

00000032 <.L.str.3>:
  32:	2f                   	das    
  33:	64 65 76 2f          	fs gs jbe 66 <.L.str.4+0x27>
  37:	75 72                	jne    ab <.L.str.7+0x6>
  39:	61                   	popa   
  3a:	6e                   	outs   dx,BYTE PTR ds:[esi]
  3b:	64 6f                	outs   dx,DWORD PTR fs:[esi]
  3d:	6d                   	ins    DWORD PTR es:[edi],dx
	...

0000003f <.L.str.4>:
  3f:	5b                   	pop    ebx
  40:	21 5d 20             	and    DWORD PTR [ebp+0x20],ebx
  43:	44                   	inc    esp
  44:	65 76 69             	gs jbe b0 <.L.str.7+0xb>
  47:	63 65 20             	arpl   WORD PTR [ebp+0x20],sp
  4a:	22 2f                	and    ch,BYTE PTR [edi]
  4c:	64 65 76 2f          	fs gs jbe 7f <.L.str.5+0x18>
  50:	75 72                	jne    c4 <.L.str.7+0x1f>
  52:	61                   	popa   
  53:	6e                   	outs   dx,BYTE PTR ds:[esi]
  54:	64 6f                	outs   dx,DWORD PTR fs:[esi]
  56:	6d                   	ins    DWORD PTR es:[edi],dx
  57:	22 20                	and    ah,BYTE PTR [eax]
  59:	6e                   	outs   dx,BYTE PTR ds:[esi]
  5a:	6f                   	outs   dx,DWORD PTR ds:[esi]
  5b:	74 20                	je     7d <.L.str.5+0x16>
  5d:	6f                   	outs   dx,DWORD PTR ds:[esi]
  5e:	70 65                	jo     c5 <.L.str.7+0x20>
  60:	6e                   	outs   dx,BYTE PTR ds:[esi]
  61:	6e                   	outs   dx,BYTE PTR ds:[esi]
  62:	65 64 21 0a          	gs and DWORD PTR fs:[edx],ecx
	...

00000067 <.L.str.5>:
  67:	5b                   	pop    ebx
  68:	23 5d 20             	and    ebx,DWORD PTR [ebp+0x20]
  6b:	25 73 20 66 69       	and    eax,0x69662073
  70:	6c                   	ins    BYTE PTR es:[edi],dx
  71:	65 20 22             	and    BYTE PTR gs:[edx],ah
  74:	25 73 22 20 63       	and    eax,0x63202273
  79:	6f                   	outs   dx,DWORD PTR ds:[esi]
  7a:	6d                   	ins    DWORD PTR es:[edi],dx
  7b:	70 6c                	jo     e9 <.L.str.8+0x22>
  7d:	65 74 65             	gs je  e5 <.L.str.8+0x1e>
  80:	21 0a                	and    DWORD PTR [edx],ecx
	...

00000083 <.L.str.6>:
  83:	5b                   	pop    ebx
  84:	21 5d 20             	and    DWORD PTR [ebp+0x20],ebx
  87:	46                   	inc    esi
  88:	69 6c 65 20 66 6f 72 	imul   ebp,DWORD PTR [ebp+eiz*2+0x20],0x20726f66
  8f:	20 
  90:	25 73 20 22 25       	and    eax,0x25222073
  95:	73 22                	jae    b9 <.L.str.7+0x14>
  97:	20 6e 6f             	and    BYTE PTR [esi+0x6f],ch
  9a:	74 20                	je     bc <.L.str.7+0x17>
  9c:	6f                   	outs   dx,DWORD PTR ds:[esi]
  9d:	70 65                	jo     104 <.L.str.9+0xf>
  9f:	6e                   	outs   dx,BYTE PTR ds:[esi]
  a0:	65 64 21 0a          	gs and DWORD PTR fs:[edx],ecx
	...

000000a5 <.L.str.7>:
  a5:	5b                   	pop    ebx
  a6:	21 5d 20             	and    DWORD PTR [ebp+0x20],ebx
  a9:	4f                   	dec    edi
  aa:	75 74                	jne    120 <.L.str.10+0xb>
  ac:	70 75                	jo     123 <.L.str.10+0xe>
  ae:	74 20                	je     d0 <.L.str.8+0x9>
  b0:	66 69 6c 65 20 22 25 	imul   bp,WORD PTR [ebp+eiz*2+0x20],0x2522
  b7:	73 22                	jae    db <.L.str.8+0x14>
  b9:	20 6e 6f             	and    BYTE PTR [esi+0x6f],ch
  bc:	74 20                	je     de <.L.str.8+0x17>
  be:	6f                   	outs   dx,DWORD PTR ds:[esi]
  bf:	70 65                	jo     126 <.L.str.10+0x11>
  c1:	6e                   	outs   dx,BYTE PTR ds:[esi]
  c2:	65 64 21 0a          	gs and DWORD PTR fs:[edx],ecx
	...

000000c7 <.L.str.8>:
  c7:	5b                   	pop    ebx
  c8:	21 5d 20             	and    DWORD PTR [ebp+0x20],ebx
  cb:	53                   	push   ebx
  cc:	69 7a 65 20 6f 66 20 	imul   edi,DWORD PTR [edx+0x65],0x20666f20
  d3:	69 6e 70 75 74 20 66 	imul   ebp,DWORD PTR [esi+0x70],0x66207475
  da:	69 6c 65 20 22 25 73 	imul   ebp,DWORD PTR [ebp+eiz*2+0x20],0x22732522
  e1:	22 
  e2:	20 30                	and    BYTE PTR [eax],dh
  e4:	20 6f 72             	and    BYTE PTR [edi+0x72],ch
  e7:	20 6d 6f             	and    BYTE PTR [ebp+0x6f],ch
  ea:	72 65                	jb     151 <.L.str.11+0x1b>
  ec:	20 32                	and    BYTE PTR [edx],dh
  ee:	20 47 69             	and    BYTE PTR [edi+0x69],al
  f1:	42                   	inc    edx
  f2:	21 0a                	and    DWORD PTR [edx],ecx
	...

000000f5 <.L.str.9>:
  f5:	5b                   	pop    ebx
  f6:	21 5d 20             	and    DWORD PTR [ebp+0x20],ebx
  f9:	45                   	inc    ebp
  fa:	72 72                	jb     16e <.L.str.12+0x19>
  fc:	6f                   	outs   dx,DWORD PTR ds:[esi]
  fd:	72 20                	jb     11f <.L.str.10+0xa>
  ff:	77 72                	ja     173 <.L.str.12+0x1e>
 101:	69 74 65 20 69 6e 20 	imul   esi,DWORD PTR [ebp+eiz*2+0x20],0x66206e69
 108:	66 
 109:	69 6c 65 20 22 25 73 	imul   ebp,DWORD PTR [ebp+eiz*2+0x20],0x22732522
 110:	22 
 111:	20 21                	and    BYTE PTR [ecx],ah
 113:	0a 00                	or     al,BYTE PTR [eax]

00000115 <.L.str.10>:
 115:	5b                   	pop    ebx
 116:	21 5d 20             	and    DWORD PTR [ebp+0x20],ebx
 119:	45                   	inc    ebp
 11a:	72 72                	jb     18e <.L.str.13+0x19>
 11c:	6f                   	outs   dx,DWORD PTR ds:[esi]
 11d:	72 20                	jb     13f <.L.str.11+0x9>
 11f:	72 65                	jb     186 <.L.str.13+0x11>
 121:	61                   	popa   
 122:	64 20 66 6f          	and    BYTE PTR fs:[esi+0x6f],ah
 126:	72 6d                	jb     195 <.L.str.13+0x20>
 128:	20 66 69             	and    BYTE PTR [esi+0x69],ah
 12b:	6c                   	ins    BYTE PTR es:[edi],dx
 12c:	65 20 22             	and    BYTE PTR gs:[edx],ah
 12f:	25 73 22 20 21       	and    eax,0x21202273
 134:	0a 00                	or     al,BYTE PTR [eax]

00000136 <.L.str.11>:
 136:	5b                   	pop    ebx
 137:	21 5d 20             	and    DWORD PTR [ebp+0x20],ebx
 13a:	45                   	inc    ebp
 13b:	72 72                	jb     1af <.L.str.14+0xc>
 13d:	6f                   	outs   dx,DWORD PTR ds:[esi]
 13e:	72 20                	jb     160 <.L.str.12+0xb>
 140:	63 6c 6f 73          	arpl   WORD PTR [edi+ebp*2+0x73],bp
 144:	65 20 69 6e          	and    BYTE PTR gs:[ecx+0x6e],ch
 148:	70 75                	jo     1bf <.L.str.14+0x1c>
 14a:	74 20                	je     16c <.L.str.12+0x17>
 14c:	73 74                	jae    1c2 <.L.str.14+0x1f>
 14e:	72 65                	jb     1b5 <.L.str.14+0x12>
 150:	61                   	popa   
 151:	6d                   	ins    DWORD PTR es:[edi],dx
 152:	21 0a                	and    DWORD PTR [edx],ecx
	...

00000155 <.L.str.12>:
 155:	5b                   	pop    ebx
 156:	21 5d 20             	and    DWORD PTR [ebp+0x20],ebx
 159:	45                   	inc    ebp
 15a:	72 72                	jb     1ce <.L.str.15+0x7>
 15c:	6f                   	outs   dx,DWORD PTR ds:[esi]
 15d:	72 20                	jb     17f <.L.str.13+0xa>
 15f:	63 6c 6f 73          	arpl   WORD PTR [edi+ebp*2+0x73],bp
 163:	65 20 6f 75          	and    BYTE PTR gs:[edi+0x75],ch
 167:	74 70                	je     1d9 <.L.str.15+0x12>
 169:	75 74                	jne    1df <.L.str.15+0x18>
 16b:	20 73 74             	and    BYTE PTR [ebx+0x74],dh
 16e:	72 65                	jb     1d5 <.L.str.15+0xe>
 170:	61                   	popa   
 171:	6d                   	ins    DWORD PTR es:[edi],dx
 172:	21 0a                	and    DWORD PTR [edx],ecx
	...

00000175 <.L.str.13>:
 175:	5b                   	pop    ebx
 176:	21 5d 20             	and    DWORD PTR [ebp+0x20],ebx
 179:	53                   	push   ebx
 17a:	69 7a 65 20 6f 66 20 	imul   edi,DWORD PTR [edx+0x65],0x20666f20
 181:	66 69 6c 65 20 66 6f 	imul   bp,WORD PTR [ebp+eiz*2+0x20],0x6f66
 188:	72 20                	jb     1aa <.L.str.14+0x7>
 18a:	64 65 63 72 79       	fs arpl WORD PTR gs:[edx+0x79],si
 18f:	70 74                	jo     205 <.L.str.17+0x1>
 191:	20 22                	and    BYTE PTR [edx],ah
 193:	25 73 22 20 69       	and    eax,0x69202273
 198:	6e                   	outs   dx,BYTE PTR ds:[esi]
 199:	63 6f 72             	arpl   WORD PTR [edi+0x72],bp
 19c:	72 65                	jb     203 <.L.str.16+0x12>
 19e:	63 74 21 0a          	arpl   WORD PTR [ecx+eiz*1+0xa],si
	...

000001a3 <.L.str.14>:
 1a3:	5b                   	pop    ebx
 1a4:	24 5d                	and    al,0x5d
 1a6:	20 45 6e             	and    BYTE PTR [ebp+0x6e],al
 1a9:	74 65                	je     210 <.L.str.17+0xc>
 1ab:	72 20                	jb     1cd <.L.str.15+0x6>
 1ad:	70 61                	jo     210 <.L.str.17+0xc>
 1af:	73 73                	jae    224 <.L.str.18+0x3>
 1b1:	77 6f                	ja     222 <.L.str.18+0x1>
 1b3:	72 64                	jb     219 <.L.str.17+0x15>
 1b5:	20 6f 72             	and    BYTE PTR [edi+0x72],ch
 1b8:	20 6e 61             	and    BYTE PTR [esi+0x61],ch
 1bb:	6d                   	ins    DWORD PTR es:[edi],dx
 1bc:	65 20 6b 65          	and    BYTE PTR gs:[ebx+0x65],ch
 1c0:	79 66                	jns    228 <.L.str.18+0x7>
 1c2:	69 6c 65 3a 00   	imul   ebp,DWORD PTR [ebp+eiz*2+0x3a],0x5d585b00
 1c9:	 

000001c7 <.L.str.15>:
 1c7:	5b                   	pop    ebx
 1c8:	58                   	pop    eax
 1c9:	5d                   	pop    ebp
 1ca:	20 50 61             	and    BYTE PTR [eax+0x61],dl
 1cd:	73 73                	jae    242 <.L.str.18+0x21>
 1cf:	77 6f                	ja     240 <.L.str.18+0x1f>
 1d1:	72 64                	jb     237 <.L.str.18+0x16>
 1d3:	20 6e 6f             	and    BYTE PTR [esi+0x6f],ch
 1d6:	74 20                	je     1f8 <.L.str.16+0x7>
 1d8:	72 65                	jb     23f <.L.str.18+0x1e>
 1da:	61                   	popa   
 1db:	64 20 66 72          	and    BYTE PTR fs:[esi+0x72],ah
 1df:	6f                   	outs   dx,DWORD PTR ds:[esi]
 1e0:	6d                   	ins    DWORD PTR es:[edi],dx
 1e1:	20 63 6f             	and    BYTE PTR [ebx+0x6f],ah
 1e4:	6d                   	ins    DWORD PTR es:[edi],dx
 1e5:	6d                   	ins    DWORD PTR es:[edi],dx
 1e6:	61                   	popa   
 1e7:	6e                   	outs   dx,BYTE PTR ds:[esi]
 1e8:	64 20 6c 69 6e       	and    BYTE PTR fs:[ecx+ebp*2+0x6e],ch
 1ed:	65 21 0a             	and    DWORD PTR gs:[edx],ecx
	...

000001f1 <.L.str.16>:
 1f1:	5b                   	pop    ebx
 1f2:	58                   	pop    eax
 1f3:	5d                   	pop    ebp
 1f4:	20 4e 6f             	and    BYTE PTR [esi+0x6f],cl
 1f7:	74 20                	je     219 <.L.str.17+0x15>
 1f9:	74 65                	je     260 <.L.str.19+0x11>
 1fb:	72 6d                	jb     26a <.L.str.19+0x1b>
 1fd:	69 6e 61 6c 21 0a 00 	imul   ebp,DWORD PTR [esi+0x61],0xa216c

00000204 <.L.str.17>:
 204:	5b                   	pop    ebx
 205:	21 5d 20             	and    DWORD PTR [ebp+0x20],ebx
 208:	43                   	inc    ebx
 209:	61                   	popa   
 20a:	6e                   	outs   dx,BYTE PTR ds:[esi]
 20b:	6e                   	outs   dx,BYTE PTR ds:[esi]
 20c:	6f                   	outs   dx,DWORD PTR ds:[esi]
 20d:	74 20                	je     22f <.L.str.18+0xe>
 20f:	61                   	popa   
 210:	6c                   	ins    BYTE PTR es:[edi],dx
 211:	6c                   	ins    BYTE PTR es:[edi],dx
 212:	6f                   	outs   dx,DWORD PTR ds:[esi]
 213:	63 61 74             	arpl   WORD PTR [ecx+0x74],sp
 216:	65 20 6d 65          	and    BYTE PTR gs:[ebp+0x65],ch
 21a:	6d                   	ins    DWORD PTR es:[edi],dx
 21b:	6f                   	outs   dx,DWORD PTR ds:[esi]
 21c:	72 79                	jb     297 <.L.str.22+0x1>
 21e:	21 0a                	and    DWORD PTR [edx],ecx
	...

00000221 <.L.str.18>:
 221:	5b                   	pop    ebx
 222:	21 5d 20             	and    DWORD PTR [ebp+0x20],ebx
 225:	57                   	push   edi
 226:	61                   	popa   
 227:	72 6e                	jb     297 <.L.str.22+0x1>
 229:	69 6e 67 3a 20 61 72 	imul   ebp,DWORD PTR [esi+0x67],0x7261203a
 230:	67 75 6d             	addr16 jne 2a0 <.L.str.23+0x6>
 233:	65 6e                	outs   dx,BYTE PTR gs:[esi]
 235:	74 20                	je     257 <.L.str.19+0x8>
 237:	22 25 64 22 20 6c    	and    ah,BYTE PTR ds:0x6c202264
 23d:	65 6e                	outs   dx,BYTE PTR gs:[esi]
 23f:	67 74 68             	addr16 je 2aa <.L.str.23+0x10>
 242:	20 6d 6f             	and    BYTE PTR [ebp+0x6f],ch
 245:	72 65                	jb     2ac <.L.str.23+0x12>
 247:	20 22                	and    BYTE PTR [edx],ah
 249:	25 64 22 21 0a       	and    eax,0xa212264
	...

0000024f <.L.str.19>:
 24f:	5b                   	pop    ebx
 250:	21 5d 20             	and    DWORD PTR [ebp+0x20],ebx
 253:	45                   	inc    ebp
 254:	72 72                	jb     2c8 <.L.str.24>
 256:	6f                   	outs   dx,DWORD PTR ds:[esi]
 257:	72 3a                	jb     293 <.L.str.21+0x4>
 259:	20 63 6f             	and    BYTE PTR [ebx+0x6f],ah
 25c:	75 6e                	jne    2cc <.L.str.24+0x4>
 25e:	74 20                	je     280 <.L.str.19+0x31>
 260:	61                   	popa   
 261:	72 67                	jb     2ca <.L.str.24+0x2>
 263:	75 6d                	jne    2d2 <.L.str.24+0xa>
 265:	65 6e                	outs   dx,BYTE PTR gs:[esi]
 267:	74 73                	je     2dc <.L.str.24+0x14>
 269:	20 25 64 3b 20 6e    	and    BYTE PTR ds:0x6e203b64,ah
 26f:	65 63 65 73          	arpl   WORD PTR gs:[ebp+0x73],sp
 273:	73 61                	jae    2d6 <.L.str.24+0xe>
 275:	72 79                	jb     2f0 <.L.str.24+0x28>
 277:	20 74 6f 20          	and    BYTE PTR [edi+ebp*2+0x20],dh
 27b:	32 20                	xor    ah,BYTE PTR [eax]
 27d:	64 6f                	outs   dx,DWORD PTR fs:[esi]
 27f:	20 37                	and    BYTE PTR [edi],dh
 281:	20 73 74             	and    BYTE PTR [ebx+0x74],dh
 284:	72 69                	jb     2ef <.L.str.24+0x27>
 286:	6e                   	outs   dx,BYTE PTR ds:[esi]
 287:	67 73 21             	addr16 jae 2ab <.L.str.23+0x11>
 28a:	0a 00                	or     al,BYTE PTR [eax]

0000028c <.L.str.20>:
 28c:	2d 68 00         	sub    eax,0x2d2d0068

0000028f <.L.str.21>:
 28f:	2d 2d 68 65 6c       	sub    eax,0x6c65682d
 294:	70 00                	jo     296 <.L.str.22>

00000296 <.L.str.22>:
 296:	25 73 0a 00        	and    eax,0x54000a73

0000029a <.L.str.23>:
 29a:	54                   	push   esp
 29b:	68 69 73 20 69       	push   0x69207369
 2a0:	73 20                	jae    2c2 <.L.str.23+0x28>
 2a2:	73 6f                	jae    313 <.L.str.24+0x4b>
 2a4:	66 74 77             	data16 je 31e <.L.str.25+0x5>
 2a7:	61                   	popa   
 2a8:	72 65                	jb     30f <.L.str.24+0x47>
 2aa:	20 66 6f             	and    BYTE PTR [esi+0x6f],ah
 2ad:	72 20                	jb     2cf <.L.str.24+0x7>
 2af:	65 6e                	outs   dx,BYTE PTR gs:[esi]
 2b1:	63 72 79             	arpl   WORD PTR [edx+0x79],si
 2b4:	70 74                	jo     32a <.L.str.25+0x11>
 2b6:	2f                   	das    
 2b7:	64 65 63 72 79       	fs arpl WORD PTR gs:[edx+0x79],si
 2bc:	70 74                	jo     332 <.L.str.25+0x19>
 2be:	20 66 69             	and    BYTE PTR [esi+0x69],ah
 2c1:	6c                   	ins    BYTE PTR es:[edi],dx
 2c2:	65 73 2e             	gs jae 2f3 <.L.str.24+0x2b>
 2c5:	0a 0a                	or     cl,BYTE PTR [edx]
	...

000002c8 <.L.str.24>:
 2c8:	41                   	inc    ecx
 2c9:	6c                   	ins    BYTE PTR es:[edi],dx
 2ca:	67 6f                	outs   dx,DWORD PTR ds:[si]
 2cc:	72 69                	jb     337 <.L.str.25+0x1e>
 2ce:	74 6d                	je     33d <.L.str.25+0x24>
 2d0:	73 3a                	jae    30c <.L.str.24+0x44>
 2d2:	0a 09                	or     cl,BYTE PTR [ecx]
 2d4:	2d 72 2f 2d 2d       	sub    eax,0x2d2d2f72
 2d9:	61                   	popa   
 2da:	65 73 0a             	gs jae 2e7 <.L.str.24+0x1f>
 2dd:	09 2d 73 2f 2d 2d    	or     DWORD PTR ds:0x2d2d2f73,ebp
 2e3:	73 65                	jae    34a <.L.str.26+0x8>
 2e5:	72 70                	jb     357 <.L.str.26+0x15>
 2e7:	65 6e                	outs   dx,BYTE PTR gs:[esi]
 2e9:	74 0a                	je     2f5 <.L.str.24+0x2d>
 2eb:	09 2d 77 2f 2d 2d    	or     DWORD PTR ds:0x2d2d2f77,ebp
 2f1:	74 77                	je     36a <.L.str.26+0x28>
 2f3:	6f                   	outs   dx,DWORD PTR ds:[esi]
 2f4:	66 69 73 68 0a 09    	imul   si,WORD PTR [ebx+0x68],0x90a
 2fa:	2d 62 2f 2d 2d       	sub    eax,0x2d2d2f62
 2ff:	62 6c 6f 77          	bound  ebp,QWORD PTR [edi+ebp*2+0x77]
 303:	66 69 73 68 0a 09    	imul   si,WORD PTR [ebx+0x68],0x90a
 309:	2d 74 2f 2d 2d       	sub    eax,0x2d2d2f74
 30e:	74 68                	je     378 <.L.str.26+0x36>
 310:	72 65                	jb     377 <.L.str.26+0x35>
 312:	65 66 69 73 68 0a 00 	imul   si,WORD PTR gs:[ebx+0x68],0xa

00000319 <.L.str.25>:
 319:	4f                   	dec    edi
 31a:	70 65                	jo     381 <.L.str.26+0x3f>
 31c:	72 61                	jb     37f <.L.str.26+0x3d>
 31e:	74 69                	je     389 <.L.str.27+0x7>
 320:	6f                   	outs   dx,DWORD PTR ds:[esi]
 321:	6e                   	outs   dx,BYTE PTR ds:[esi]
 322:	73 3a                	jae    35e <.L.str.26+0x1c>
 324:	0a 09                	or     cl,BYTE PTR [ecx]
 326:	2d 65 2f 2d 2d       	sub    eax,0x2d2d2f65
 32b:	65 6e                	outs   dx,BYTE PTR gs:[esi]
 32d:	63 72 79             	arpl   WORD PTR [edx+0x79],si
 330:	70 74                	jo     3a6 <.L.str.27+0x24>
 332:	0a 09                	or     cl,BYTE PTR [ecx]
 334:	2d 64 2f 2d 2d       	sub    eax,0x2d2d2f64
 339:	64 65 63 72 79       	fs arpl WORD PTR gs:[edx+0x79],si
 33e:	70 74                	jo     3b4 <.L.str.27+0x32>
 340:	0a 00                	or     al,BYTE PTR [eax]

00000342 <.L.str.26>:
 342:	4c                   	dec    esp
 343:	65 6e                	outs   dx,BYTE PTR gs:[esi]
 345:	67 74 68             	addr16 je 3b0 <.L.str.27+0x2e>
 348:	73 20                	jae    36a <.L.str.26+0x28>
 34a:	6b 65 79 3a          	imul   esp,DWORD PTR [ebp+0x79],0x3a
 34e:	0a 09                	or     cl,BYTE PTR [ecx]
 350:	2d 61 2f 2d 2d       	sub    eax,0x2d2d2f61
 355:	31 32                	xor    DWORD PTR [edx],esi
 357:	38 2f                	cmp    BYTE PTR [edi],ch
 359:	2d 2d 32 35 36       	sub    eax,0x3635322d
 35e:	0a 09                	or     cl,BYTE PTR [ecx]
 360:	2d 62 2f 2d 2d       	sub    eax,0x2d2d2f62
 365:	31 39                	xor    DWORD PTR [ecx],edi
 367:	32 2f                	xor    ch,BYTE PTR [edi]
 369:	2d 2d 35 31 32       	sub    eax,0x3231352d
 36e:	0a 09                	or     cl,BYTE PTR [ecx]
 370:	2d 63 2f 2d 2d       	sub    eax,0x2d2d2f63
 375:	32 35 36 2f 2d 2d    	xor    dh,BYTE PTR ds:0x2d2d2f36
 37b:	31 30                	xor    DWORD PTR [eax],esi
 37d:	32 34 0a             	xor    dh,BYTE PTR [edx+ecx*1]
 380:	0a 00                	or     al,BYTE PTR [eax]

00000382 <.L.str.27>:
 382:	45                   	inc    ebp
 383:	6e                   	outs   dx,BYTE PTR ds:[esi]
 384:	74 65                	je     3eb <.L.str.28+0x17>
 386:	72 3a                	jb     3c2 <.L.str.27+0x40>
 388:	20 25 73 20 5b 61    	and    BYTE PTR ds:0x615b2073,ah
 38e:	6c                   	ins    BYTE PTR es:[edi],dx
 38f:	67 6f                	outs   dx,DWORD PTR ds:[si]
 391:	72 69                	jb     3fc <.L.str.28+0x28>
 393:	74 6d                	je     402 <.L.str.28+0x2e>
 395:	5d                   	pop    ebp
 396:	20 5b 6f             	and    BYTE PTR [ebx+0x6f],bl
 399:	70 65                	jo     400 <.L.str.28+0x2c>
 39b:	72 61                	jb     3fe <.L.str.28+0x2a>
 39d:	74 69                	je     408 <.L.str.28+0x34>
 39f:	6f                   	outs   dx,DWORD PTR ds:[esi]
 3a0:	6e                   	outs   dx,BYTE PTR ds:[esi]
 3a1:	5d                   	pop    ebp
 3a2:	20 5b 6b             	and    BYTE PTR [ebx+0x6b],bl
 3a5:	65 79 20             	gs jns 3c8 <.L.str.27+0x46>
 3a8:	6c                   	ins    BYTE PTR es:[edi],dx
 3a9:	65 6e                	outs   dx,BYTE PTR gs:[esi]
 3ab:	67 74 68             	addr16 je 416 <.L.str.30+0x9>
 3ae:	5d                   	pop    ebp
 3af:	20 5b 69             	and    BYTE PTR [ebx+0x69],bl
 3b2:	6e                   	outs   dx,BYTE PTR ds:[esi]
 3b3:	70 75                	jo     42a <.L.str.34>
 3b5:	74 20                	je     3d7 <.L.str.28+0x3>
 3b7:	66 69 6c 65 6e 61 6d 	imul   bp,WORD PTR [ebp+eiz*2+0x6e],0x6d61
 3be:	65 5d                	gs pop ebp
 3c0:	20 5b 6f             	and    BYTE PTR [ebx+0x6f],bl
 3c3:	75 74                	jne    439 <.L.str.36+0x6>
 3c5:	70 75                	jo     43c <.L.str.36+0x9>
 3c7:	74 20                	je     3e9 <.L.str.28+0x15>
 3c9:	66 69 6c 65 6e 61 6d 	imul   bp,WORD PTR [ebp+eiz*2+0x6e],0x6d61
 3d0:	65 5d                	gs pop ebp
 3d2:	0a 00                	or     al,BYTE PTR [eax]

000003d4 <.L.str.28>:
 3d4:	5b                   	pop    ebx
 3d5:	21 5d 20             	and    DWORD PTR [ebp+0x20],ebx
 3d8:	49                   	dec    ecx
 3d9:	6e                   	outs   dx,BYTE PTR ds:[esi]
 3da:	63 6f 72             	arpl   WORD PTR [edi+0x72],bp
 3dd:	72 65                	jb     444 <.L.str.38+0x4>
 3df:	63 74 20 70          	arpl   WORD PTR [eax+eiz*1+0x70],si
 3e3:	61                   	popa   
 3e4:	72 61                	jb     447 <.L.str.38+0x7>
 3e6:	6d                   	ins    DWORD PTR es:[edi],dx
 3e7:	65 74 65             	gs je  44f <.L.str.39+0x5>
 3ea:	72 20                	jb     40c <.L.str.29+0x2>
 3ec:	22 25 73 22 21 20    	and    ah,BYTE PTR ds:0x20212273
 3f2:	4f                   	dec    edi
 3f3:	6e                   	outs   dx,BYTE PTR ds:[esi]
 3f4:	6c                   	ins    BYTE PTR es:[edi],dx
 3f5:	79 20                	jns    417 <.L.str.30+0xa>
 3f7:	22 2d 68 22 20 6f    	and    ch,BYTE PTR ds:0x6f202268
 3fd:	72 20                	jb     41f <.L.str.32+0x4>
 3ff:	22 2d 2d 68 65 6c    	and    ch,BYTE PTR ds:0x6c65682d
 405:	70 22                	jo     429 <.L.str.33+0x2>
 407:	2e 0a 00             	or     al,BYTE PTR cs:[eax]

0000040a <.L.str.29>:
 40a:	2d 62 00         	sub    eax,0x2d2d0062

0000040d <.L.str.30>:
 40d:	2d 2d 62 6c 6f       	sub    eax,0x6f6c622d
 412:	77 66                	ja     47a <.L.str.42+0x2>
 414:	69 73 68 00    	imul   esi,DWORD PTR [ebx+0x68],0x742d00

00000418 <.L.str.31>:
 418:	2d 74 00         	sub    eax,0x2d2d0074

0000041b <.L.str.32>:
 41b:	2d 2d 74 68 72       	sub    eax,0x7268742d
 420:	65 65 66 69 73 68 00 	gs imul si,WORD PTR gs:[ebx+0x68],0x2d00
 427:	 

00000427 <.L.str.33>:
 427:	2d 72 00         	sub    eax,0x2d2d0072

0000042a <.L.str.34>:
 42a:	2d 2d 61 65 73       	sub    eax,0x7365612d
	...

00000430 <.L.str.35>:
 430:	2d 73 00         	sub    eax,0x2d2d0073

00000433 <.L.str.36>:
 433:	2d 2d 73 65 72       	sub    eax,0x7265732d
 438:	70 65                	jo     49f <.L.str.44+0x1a>
 43a:	6e                   	outs   dx,BYTE PTR ds:[esi]
 43b:	74 00                	je     43d <.L.str.37>

0000043d <.L.str.37>:
 43d:	2d 77 00         	sub    eax,0x2d2d0077

00000440 <.L.str.38>:
 440:	2d 2d 74 77 6f       	sub    eax,0x6f77742d
 445:	66 69 73 68 00     	imul   si,WORD PTR [ebx+0x68],0x5b00

0000044a <.L.str.39>:
 44a:	5b                   	pop    ebx
 44b:	21 5d 20             	and    DWORD PTR [ebp+0x20],ebx
 44e:	4e                   	dec    esi
 44f:	61                   	popa   
 450:	6d                   	ins    DWORD PTR es:[edi],dx
 451:	65 20 63 69          	and    BYTE PTR gs:[ebx+0x69],ah
 455:	70 68                	jo     4bf <.L.str.50+0x3>
 457:	65 72 20             	gs jb  47a <.L.str.42+0x2>
 45a:	22 25 73 22 20 69    	and    ah,BYTE PTR ds:0x69202273
 460:	6e                   	outs   dx,BYTE PTR ds:[esi]
 461:	63 6f 72             	arpl   WORD PTR [edi+0x72],bp
 464:	72 65                	jb     4cb <.L.str.50+0xf>
 466:	63 74 21 0a          	arpl   WORD PTR [ecx+eiz*1+0xa],si
	...

0000046b <.L.str.40>:
 46b:	2d 65 00         	sub    eax,0x2d2d0065

0000046e <.L.str.41>:
 46e:	2d 2d 65 6e 63       	sub    eax,0x636e652d
 473:	72 79                	jb     4ee <.L.str.53+0x5>
 475:	70 74                	jo     4eb <.L.str.53+0x2>
	...

00000478 <.L.str.42>:
 478:	2d 64 00         	sub    eax,0x2d2d0064

0000047b <.L.str.43>:
 47b:	2d 2d 64 65 63       	sub    eax,0x6365642d
 480:	72 79                	jb     4fb <.L.str.53+0x12>
 482:	70 74                	jo     4f8 <.L.str.53+0xf>
	...

00000485 <.L.str.44>:
 485:	5b                   	pop    ebx
 486:	21 5d 20             	and    DWORD PTR [ebp+0x20],ebx
 489:	4f                   	dec    edi
 48a:	70 65                	jo     4f1 <.L.str.53+0x8>
 48c:	72 61                	jb     4ef <.L.str.53+0x6>
 48e:	74 69                	je     4f9 <.L.str.53+0x10>
 490:	6f                   	outs   dx,DWORD PTR ds:[esi]
 491:	6e                   	outs   dx,BYTE PTR ds:[esi]
 492:	20 22                	and    BYTE PTR [edx],ah
 494:	25 73 22 20 69       	and    eax,0x69202273
 499:	6e                   	outs   dx,BYTE PTR ds:[esi]
 49a:	63 6f 72             	arpl   WORD PTR [edi+0x72],bp
 49d:	72 65                	jb     504 <.L.str.53+0x1b>
 49f:	63 74 21 0a          	arpl   WORD PTR [ecx+eiz*1+0xa],si
	...

000004a4 <.L.str.45>:
 4a4:	2d 61 00         	sub    eax,0x2d2d0061

000004a7 <.L.str.46>:
 4a7:	2d 2d 31 32 38       	sub    eax,0x3832312d
	...

000004ad <.L.str.47>:
 4ad:	2d 2d 31 39 32       	sub    eax,0x3239312d
	...

000004b3 <.L.str.48>:
 4b3:	2d 63 00         	sub    eax,0x2d2d0063

000004b6 <.L.str.49>:
 4b6:	2d 2d 32 35 36       	sub    eax,0x3635322d
	...

000004bc <.L.str.50>:
 4bc:	5b                   	pop    ebx
 4bd:	21 5d 20             	and    DWORD PTR [ebp+0x20],ebx
 4c0:	4b                   	dec    ebx
 4c1:	65 79 20             	gs jns 4e4 <.L.str.52+0x2>
 4c4:	6c                   	ins    BYTE PTR es:[edi],dx
 4c5:	65 6e                	outs   dx,BYTE PTR gs:[esi]
 4c7:	67 74 68             	addr16 je 532 <.L.str.54+0x20>
 4ca:	20 22                	and    BYTE PTR [edx],ah
 4cc:	25 73 22 20 69       	and    eax,0x69202273
 4d1:	6e                   	outs   dx,BYTE PTR ds:[esi]
 4d2:	63 6f 72             	arpl   WORD PTR [edi+0x72],bp
 4d5:	72 65                	jb     53c <.L.str.54+0x2a>
 4d7:	63 74 21 0a          	arpl   WORD PTR [ecx+eiz*1+0xa],si
	...

000004dc <.L.str.51>:
 4dc:	2d 2d 35 31 32       	sub    eax,0x3231352d
	...

000004e2 <.L.str.52>:
 4e2:	2d 2d 31 30 32       	sub    eax,0x3230312d
 4e7:	34 00                	xor    al,0x0

000004e9 <.L.str.53>:
 4e9:	5b                   	pop    ebx
 4ea:	21 5d 20             	and    DWORD PTR [ebp+0x20],ebx
 4ed:	4e                   	dec    esi
 4ee:	61                   	popa   
 4ef:	6d                   	ins    DWORD PTR es:[edi],dx
 4f0:	65 73 20             	gs jae 513 <.L.str.54+0x1>
 4f3:	69 6e 70 75 74 20 61 	imul   ebp,DWORD PTR [esi+0x70],0x61207475
 4fa:	6e                   	outs   dx,BYTE PTR ds:[esi]
 4fb:	64 20 6f 75          	and    BYTE PTR fs:[edi+0x75],ch
 4ff:	74 70                	je     571 <.L.str.56+0xa>
 501:	75 74                	jne    577 <.L.str.56+0x10>
 503:	20 66 69             	and    BYTE PTR [esi+0x69],ah
 506:	6c                   	ins    BYTE PTR es:[edi],dx
 507:	65 73 20             	gs jae 52a <.L.str.54+0x18>
 50a:	65 71 75             	gs jno 582 <.L.str.56+0x1b>
 50d:	61                   	popa   
 50e:	6c                   	ins    BYTE PTR es:[edi],dx
 50f:	21 0a                	and    DWORD PTR [edx],ecx
	...

00000512 <.L.str.54>:
 512:	5b                   	pop    ebx
 513:	21 5d 20             	and    DWORD PTR [ebp+0x20],ebx
 516:	4e                   	dec    esi
 517:	61                   	popa   
 518:	6d                   	ins    DWORD PTR es:[edi],dx
 519:	65 73 20             	gs jae 53c <.L.str.54+0x2a>
 51c:	6b 65 79 66          	imul   esp,DWORD PTR [ebp+0x79],0x66
 520:	69 6c 65 20 61 6e 64 	imul   ebp,DWORD PTR [ebp+eiz*2+0x20],0x20646e61
 527:	20 
 528:	6f                   	outs   dx,DWORD PTR ds:[esi]
 529:	75 74                	jne    59f <.L.str.57+0x14>
 52b:	70 75                	jo     5a2 <.L.str.57+0x17>
 52d:	74 20                	je     54f <.L.str.55+0x12>
 52f:	66 69 6c 65 73 20 65 	imul   bp,WORD PTR [ebp+eiz*2+0x73],0x6520
 536:	71 75                	jno    5ad <.L.str.57+0x22>
 538:	61                   	popa   
 539:	6c                   	ins    BYTE PTR es:[edi],dx
 53a:	21 0a                	and    DWORD PTR [edx],ecx
	...

0000053d <.L.str.55>:
 53d:	5b                   	pop    ebx
 53e:	21 5d 20             	and    DWORD PTR [ebp+0x20],ebx
 541:	4e                   	dec    esi
 542:	61                   	popa   
 543:	6d                   	ins    DWORD PTR es:[edi],dx
 544:	65 73 20             	gs jae 567 <.L.str.56>
 547:	6b 65 79 66          	imul   esp,DWORD PTR [ebp+0x79],0x66
 54b:	69 6c 65 20 61 6e 64 	imul   ebp,DWORD PTR [ebp+eiz*2+0x20],0x20646e61
 552:	20 
 553:	69 6e 70 75 74 20 66 	imul   ebp,DWORD PTR [esi+0x70],0x66207475
 55a:	69 6c 65 73 20 65 71 	imul   ebp,DWORD PTR [ebp+eiz*2+0x73],0x75716520
 561:	75 
 562:	61                   	popa   
 563:	6c                   	ins    BYTE PTR es:[edi],dx
 564:	21 0a                	and    DWORD PTR [edx],ecx
	...

00000567 <.L.str.56>:
 567:	5b                   	pop    ebx
 568:	23 5d 20             	and    ebx,DWORD PTR [ebp+0x20]
 56b:	43                   	inc    ebx
 56c:	72 79                	jb     5e7 <.L.str.59+0x3>
 56e:	70 74                	jo     5e4 <.L.str.59>
 570:	20 6b 65             	and    BYTE PTR [ebx+0x65],ch
 573:	79 20                	jns    595 <.L.str.57+0xa>
 575:	72 65                	jb     5dc <.L.str.58+0x1f>
 577:	61                   	popa   
 578:	64 20 66 72          	and    BYTE PTR fs:[esi+0x72],ah
 57c:	6f                   	outs   dx,DWORD PTR ds:[esi]
 57d:	6d                   	ins    DWORD PTR es:[edi],dx
 57e:	20 66 69             	and    BYTE PTR [esi+0x69],ah
 581:	6c                   	ins    BYTE PTR es:[edi],dx
 582:	65 20 22             	and    BYTE PTR gs:[edx],ah
 585:	25 73 22 21 0a       	and    eax,0xa212273
	...

0000058b <.L.str.57>:
 58b:	5b                   	pop    ebx
 58c:	21 5d 20             	and    DWORD PTR [ebp+0x20],ebx
 58f:	44                   	inc    esp
 590:	61                   	popa   
 591:	74 61                	je     5f4 <.L.str.59+0x10>
 593:	20 69 6e             	and    BYTE PTR [ecx+0x6e],ch
 596:	20 6b 65             	and    BYTE PTR [ebx+0x65],ch
 599:	79 20                	jns    5bb <.L.str.57+0x30>
 59b:	66 69 6c 65 20 25 64 	imul   bp,WORD PTR [ebp+eiz*2+0x20],0x6425
 5a2:	20 62 79             	and    BYTE PTR [edx+0x79],ah
 5a5:	74 65                	je     60c <.L.str.59+0x28>
 5a7:	3b 20                	cmp    esp,DWORD PTR [eax]
 5a9:	6e                   	outs   dx,BYTE PTR ds:[esi]
 5aa:	65 63 65 73          	arpl   WORD PTR gs:[ebp+0x73],sp
 5ae:	73 61                	jae    611 <.L.str.59+0x2d>
 5b0:	72 79                	jb     62b <.L.str.60+0xf>
 5b2:	20 25 64 20 62 79    	and    BYTE PTR ds:0x79622064,ah
 5b8:	74 65                	je     61f <.L.str.60+0x3>
 5ba:	21 0a                	and    DWORD PTR [edx],ecx
	...

000005bd <.L.str.58>:
 5bd:	5b                   	pop    ebx
 5be:	23 5d 20             	and    ebx,DWORD PTR [ebp+0x20]
 5c1:	43                   	inc    ebx
 5c2:	72 79                	jb     63d <.L.str.60+0x21>
 5c4:	70 74                	jo     63a <.L.str.60+0x1e>
 5c6:	20 6b 65             	and    BYTE PTR [ebx+0x65],ch
 5c9:	79 20                	jns    5eb <.L.str.59+0x7>
 5cb:	72 65                	jb     632 <.L.str.60+0x16>
 5cd:	61                   	popa   
 5ce:	64 20 66 72          	and    BYTE PTR fs:[esi+0x72],ah
 5d2:	6f                   	outs   dx,DWORD PTR ds:[esi]
 5d3:	6d                   	ins    DWORD PTR es:[edi],dx
 5d4:	20 63 6f             	and    BYTE PTR [ebx+0x6f],ah
 5d7:	6d                   	ins    DWORD PTR es:[edi],dx
 5d8:	6d                   	ins    DWORD PTR es:[edi],dx
 5d9:	61                   	popa   
 5da:	6e                   	outs   dx,BYTE PTR ds:[esi]
 5db:	64 20 6c 69 6e       	and    BYTE PTR fs:[ecx+ebp*2+0x6e],ch
 5e0:	65 21 0a             	and    DWORD PTR gs:[edx],ecx
	...

000005e4 <.L.str.59>:
 5e4:	5b                   	pop    ebx
 5e5:	21 5d 20             	and    DWORD PTR [ebp+0x20],ebx
 5e8:	44                   	inc    esp
 5e9:	61                   	popa   
 5ea:	74 61                	je     64d <.L.str.61+0xc>
 5ec:	20 69 6e             	and    BYTE PTR [ecx+0x6e],ch
 5ef:	20 73 74             	and    BYTE PTR [ebx+0x74],dh
 5f2:	72 69                	jb     65d <.L.str.61+0x1c>
 5f4:	6e                   	outs   dx,BYTE PTR ds:[esi]
 5f5:	67 20 6b 65          	and    BYTE PTR [bp+di+0x65],ch
 5f9:	79 20                	jns    61b <.L.str.59+0x37>
 5fb:	25 64 20 62 79       	and    eax,0x79622064
 600:	74 65                	je     667 <.L.str.62+0x8>
 602:	3b 20                	cmp    esp,DWORD PTR [eax]
 604:	6e                   	outs   dx,BYTE PTR ds:[esi]
 605:	65 63 65 73          	arpl   WORD PTR gs:[ebp+0x73],sp
 609:	73 61                	jae    66c <.L.str.62+0xd>
 60b:	72 79                	jb     686 <.L.str.63+0x2>
 60d:	20 38                	and    BYTE PTR [eax],bh
 60f:	2e 2e 32 35 36 20 62 	cs xor dh,BYTE PTR cs:0x79622036
 616:	79 
 617:	74 65                	je     67e <.L.str.62+0x1f>
 619:	21 0a                	and    DWORD PTR [edx],ecx
	...

0000061c <.L.str.60>:
 61c:	5b                   	pop    ebx
 61d:	23 5d 20             	and    ebx,DWORD PTR [ebp+0x20]
 620:	4b                   	dec    ebx
 621:	65 79 20             	gs jns 644 <.L.str.61+0x3>
 624:	6c                   	ins    BYTE PTR es:[edi],dx
 625:	65 6e                	outs   dx,BYTE PTR gs:[esi]
 627:	67 74 68             	addr16 je 692 <.L.str.64+0x6>
 62a:	20 25 64 2d 62 69    	and    BYTE PTR ds:0x69622d64,ah
 630:	74 73                	je     6a5 <.L.str.67+0x5>
 632:	20 69 6e             	and    BYTE PTR [ecx+0x6e],ch
 635:	69 74 69 61 6c 69 7a 	imul   esi,DWORD PTR [ecx+ebp*2+0x61],0x657a696c
 63c:	65 
 63d:	64 21 0a             	and    DWORD PTR fs:[edx],ecx
	...

00000641 <.L.str.61>:
 641:	5b                   	pop    ebx
 642:	23 5d 20             	and    ebx,DWORD PTR [ebp+0x20]
 645:	41                   	inc    ecx
 646:	6c                   	ins    BYTE PTR es:[edi],dx
 647:	67 6f                	outs   dx,DWORD PTR ds:[si]
 649:	72 69                	jb     6b4 <.L.str.69+0x3>
 64b:	74 6d                	je     6ba <.L.str.69+0x9>
 64d:	20 25 73 20 69 6e    	and    BYTE PTR ds:0x6e692073,ah
 653:	69 74 69 61 6c 69 7a 	imul   esi,DWORD PTR [ecx+ebp*2+0x61],0x657a696c
 65a:	65 
 65b:	64 21 0a             	and    DWORD PTR fs:[edx],ecx
	...

0000065f <.L.str.62>:
 65f:	5b                   	pop    ebx
 660:	23 5d 20             	and    ebx,DWORD PTR [ebp+0x20]
 663:	4f                   	dec    edi
 664:	70 65                	jo     6cb <.L.str.70+0x10>
 666:	72 61                	jb     6c9 <.L.str.70+0xe>
 668:	74 69                	je     6d3 <.L.str.70+0x18>
 66a:	6f                   	outs   dx,DWORD PTR ds:[esi]
 66b:	6e                   	outs   dx,BYTE PTR ds:[esi]
 66c:	20 25 73 20 66 69    	and    BYTE PTR ds:0x69662073,ah
 672:	6c                   	ins    BYTE PTR es:[edi],dx
 673:	65 20 22             	and    BYTE PTR gs:[edx],ah
 676:	25 73 22 20 73       	and    eax,0x73202273
 67b:	74 61                	je     6de <.L.str.70+0x23>
 67d:	72 74                	jb     6f3 <.L.str.71+0xe>
 67f:	65 64 21 0a          	gs and DWORD PTR fs:[edx],ecx
	...

00000684 <.L.str.63>:
 684:	45                   	inc    ebp
 685:	6e                   	outs   dx,BYTE PTR ds:[esi]
 686:	63 72 79             	arpl   WORD PTR [edx+0x79],si
 689:	70 74                	jo     6ff <.L.str.71+0x1a>
	...

0000068c <.L.str.64>:
 68c:	44                   	inc    esp
 68d:	65 63 72 79          	arpl   WORD PTR gs:[edx+0x79],si
 691:	70 74                	jo     707 <.L.str.71+0x22>
	...

00000694 <.L.str.65>:
 694:	41                   	inc    ecx
 695:	45                   	inc    ebp
 696:	53                   	push   ebx
	...

00000698 <.L.str.66>:
 698:	53                   	push   ebx
 699:	45                   	inc    ebp
 69a:	52                   	push   edx
 69b:	50                   	push   eax
 69c:	45                   	inc    ebp
 69d:	4e                   	dec    esi
 69e:	54                   	push   esp
	...

000006a0 <.L.str.67>:
 6a0:	54                   	push   esp
 6a1:	57                   	push   edi
 6a2:	4f                   	dec    edi
 6a3:	46                   	inc    esi
 6a4:	49                   	dec    ecx
 6a5:	53                   	push   ebx
 6a6:	48                   	dec    eax
	...

000006a8 <.L.str.68>:
 6a8:	42                   	inc    edx
 6a9:	4c                   	dec    esp
 6aa:	4f                   	dec    edi
 6ab:	57                   	push   edi
 6ac:	46                   	inc    esi
 6ad:	49                   	dec    ecx
 6ae:	53                   	push   ebx
 6af:	48                   	dec    eax
	...

000006b1 <.L.str.69>:
 6b1:	54                   	push   esp
 6b2:	48                   	dec    eax
 6b3:	52                   	push   edx
 6b4:	45                   	inc    ebp
 6b5:	45                   	inc    ebp
 6b6:	46                   	inc    esi
 6b7:	49                   	dec    ecx
 6b8:	53                   	push   ebx
 6b9:	48                   	dec    eax
	...

000006bb <.L.str.70>:
 6bb:	0d 20 3e 20 20       	or     eax,0x20203e20
 6c0:	25 73 20 5b 25       	and    eax,0x255b2073
 6c5:	73 5d                	jae    724 <.L.str.72+0xe>
 6c7:	20 28                	and    BYTE PTR [eax],ch
 6c9:	25 34 2e 32 66       	and    eax,0x66322e34
 6ce:	20 25 73 2f 25 34    	and    BYTE PTR ds:0x34252f73,ah
 6d4:	2e 32 66 20          	xor    ah,BYTE PTR cs:[esi+0x20]
 6d8:	25 73 29 20 25       	and    eax,0x25202973
 6dd:	33 64 20 25          	xor    esp,DWORD PTR [eax+eiz*1+0x25]
 6e1:	25 20 20 00        	and    eax,0x5b002020

000006e5 <.L.str.71>:
 6e5:	5b                   	pop    ebx
 6e6:	21 5d 20             	and    DWORD PTR [ebp+0x20],ebx
 6e9:	57                   	push   edi
 6ea:	41                   	inc    ecx
 6eb:	52                   	push   edx
 6ec:	4e                   	dec    esi
 6ed:	49                   	dec    ecx
 6ee:	4e                   	dec    esi
 6ef:	47                   	inc    edi
 6f0:	3a 20                	cmp    ah,BYTE PTR [eax]
 6f2:	43                   	inc    ebx
 6f3:	6f                   	outs   dx,DWORD PTR ds:[esi]
 6f4:	6e                   	outs   dx,BYTE PTR ds:[esi]
 6f5:	74 72                	je     769 <.L.str.76+0x23>
 6f7:	6f                   	outs   dx,DWORD PTR ds:[esi]
 6f8:	6c                   	ins    BYTE PTR es:[edi],dx
 6f9:	20 73 75             	and    BYTE PTR [ebx+0x75],dh
 6fc:	6d                   	ins    DWORD PTR es:[edi],dx
 6fd:	20 66 69             	and    BYTE PTR [esi+0x69],ah
 700:	6c                   	ins    BYTE PTR es:[edi],dx
 701:	65 20 22             	and    BYTE PTR gs:[edx],ah
 704:	25 73 22 20 6e       	and    eax,0x6e202273
 709:	6f                   	outs   dx,DWORD PTR ds:[esi]
 70a:	74 20                	je     72c <.L.str.72+0x16>
 70c:	63 6f 72             	arpl   WORD PTR [edi+0x72],bp
 70f:	72 65                	jb     776 <.L.str.76+0x30>
 711:	63 74 21 0a          	arpl   WORD PTR [ecx+eiz*1+0xa],si
	...

00000716 <.L.str.72>:
 716:	5b                   	pop    ebx
 717:	23 5d 20             	and    ebx,DWORD PTR [ebp+0x20]
 71a:	43                   	inc    ebx
 71b:	6f                   	outs   dx,DWORD PTR ds:[esi]
 71c:	6e                   	outs   dx,BYTE PTR ds:[esi]
 71d:	74 72                	je     791 <.L.str.76+0x4b>
 71f:	6f                   	outs   dx,DWORD PTR ds:[esi]
 720:	6c                   	ins    BYTE PTR es:[edi],dx
 721:	20 73 75             	and    BYTE PTR [ebx+0x75],dh
 724:	6d                   	ins    DWORD PTR es:[edi],dx
 725:	20 66 69             	and    BYTE PTR [esi+0x69],ah
 728:	6c                   	ins    BYTE PTR es:[edi],dx
 729:	65 20 22             	and    BYTE PTR gs:[edx],ah
 72c:	25 73 22 20 63       	and    eax,0x63202273
 731:	68 65 63 6b 21       	push   0x216b6365
 736:	20 3a                	and    BYTE PTR [edx],bh
 738:	29 0a                	sub    DWORD PTR [edx],ecx
	...

0000073b <.L.str.73>:
 73b:	42                   	inc    edx
 73c:	74 00                	je     73e <.L.str.74>

0000073e <.L.str.74>:
 73e:	4b                   	dec    ebx
 73f:	69 42 00     	imul   eax,DWORD PTR [edx+0x0],0x42694d

00000742 <.L.str.75>:
 742:	4d                   	dec    ebp
 743:	69 42 00     	imul   eax,DWORD PTR [edx+0x0],0x426947

00000746 <.L.str.76>:
 746:	47                   	inc    edi
 747:	69                   	.byte 0x69
 748:	42                   	inc    edx
	...

Дизассемблирование раздела .data:

00000000 <PARAM_READ_BYTE>:
   0:	00 00                	add    BYTE PTR [eax],al
	...

00000004 <PARAM_WRITE_BYTE>:
   4:	00 00                	add    BYTE PTR [eax],al
	...

00000008 <PROGRAMM_NAME>:
   8:	00 00                	add    BYTE PTR [eax],al
	...

0000000c <OPERATION_NAME>:
	...

00000014 <ALGORITM_NAME>:
	...

00000028 <CHAR_SIZE_DATA>:
	...

Дизассемблирование раздела .bss:

00000000 <rijndael_ctx>:
   0:	00 00                	add    BYTE PTR [eax],al
	...

00000004 <twofish_ctx>:
   4:	00 00                	add    BYTE PTR [eax],al
	...

00000008 <serpent_ctx>:
   8:	00 00                	add    BYTE PTR [eax],al
	...

0000000c <blowfish_ctx>:
   c:	00 00                	add    BYTE PTR [eax],al
	...

00000010 <threefish_ctx>:
  10:	00 00                	add    BYTE PTR [eax],al
	...

Дизассемблирование раздела .comment:

00000000 <.comment>:
   0:	00 44 65 62          	add    BYTE PTR [ebp+eiz*2+0x62],al
   4:	69 61 6e 20 63 6c 61 	imul   esp,DWORD PTR [ecx+0x6e],0x616c6320
   b:	6e                   	outs   dx,BYTE PTR ds:[esi]
   c:	67 20 76 65          	and    BYTE PTR [bp+0x65],dh
  10:	72 73                	jb     85 <.L.str.6+0x2>
  12:	69 6f 6e 20 31 31 2e 	imul   ebp,DWORD PTR [edi+0x6e],0x2e313120
  19:	30 2e                	xor    BYTE PTR [esi],ch
  1b:	31                   	.byte 0x31
  1c:	2d                   	.byte 0x2d
  1d:	32 00                	xor    al,BYTE PTR [eax]

Дизассемблирование раздела .llvm_addrsig:

00000000 <.llvm_addrsig>:
   0:	a2 01 7c 7e 79       	mov    ds:0x797e7c01,al
   5:	7d 83                	jge    ffffff8a <hmac_sha256_uf+0xffffd76a>
   7:	01 5f 71             	add    DWORD PTR [edi+0x71],ebx
   a:	8c 01                	mov    WORD PTR [ecx],es
   c:	5e                   	pop    esi
   d:	8b 01                	mov    eax,DWORD PTR [ecx]
   f:	9b                   	fwait
  10:	01 9c 01 7a 7b 8d 01 	add    DWORD PTR [ecx+eax*1+0x18d7b7a],ebx
  17:	6e                   	outs   dx,BYTE PTR ds:[esi]
  18:	86 01                	xchg   BYTE PTR [ecx],al
  1a:	89 01                	mov    DWORD PTR [ecx],eax
  1c:	84 01                	test   BYTE PTR [ecx],al
  1e:	5c                   	pop    esp
  1f:	a3 01 9a 01 77       	mov    ds:0x77019a01,eax
  24:	8e 01                	mov    es,WORD PTR [ecx]
  26:	54                   	push   esp
  27:	96                   	xchg   esi,eax
  28:	01 9f 01 58 5b 57    	add    DWORD PTR [edi+0x575b5801],ebx
  2e:	7f 78                	jg     a8 <.L.str.7+0x3>
  30:	74 73                	je     a5 <.L.str.7>
  32:	6d                   	ins    DWORD PTR es:[edi],dx
  33:	94                   	xchg   esp,eax
  34:	01 95 01 93 01 90    	add    DWORD PTR [ebp-0x6ffe6cff],edx
  3a:	01 a1 01 92 01 76    	add    DWORD PTR [ecx+0x76019201],esp
  40:	9e                   	sahf   
  41:	01 64 63 62          	add    DWORD PTR [ebx+eiz*2+0x62],esp
  45:	65 8f 01             	pop    DWORD PTR gs:[ecx]
  48:	91                   	xchg   ecx,eax
  49:	01 a0 01 75 9d 01    	add    DWORD PTR [eax+0x19d7501],esp
  4f:	82 01 59             	add    BYTE PTR [ecx],0x59
  52:	8a 01                	mov    al,BYTE PTR [ecx]
  54:	5a                   	pop    edx
  55:	5d                   	pop    ebp
  56:	87 01                	xchg   DWORD PTR [ecx],eax
  58:	80 01 81             	add    BYTE PTR [ecx],0x81
  5b:	01 6f 70             	add    DWORD PTR [edi+0x70],ebp
  5e:	72 97                	jb     fffffff7 <hmac_sha256_uf+0xffffd7d7>
  60:	01 55 98             	add    DWORD PTR [ebp-0x68],edx
  63:	01 99 01 6c 51 60    	add    DWORD PTR [ecx+0x60516c01],ebx
  69:	67 61                	addr16 popa 
  6b:	56                   	push   esi
  6c:	66 52                	push   dx
  6e:	53                   	push   ebx
